

Microchip MPLAB XC8 Assembler V2.31 build 20201012212115 
                                                                                               Wed Feb 24 23:03:09 2021

Microchip MPLAB XC8 C Compiler v2.31 (Free license) build 20201012212115 Og1 
     1                           	processor	16F887
     2                           	pagewidth 120
     3                           	opt	flic
     4                           	psect	idataBANK1,global,class=CODE,delta=2,noexec
     5                           	psect	strings,global,class=STRING,delta=2,noexec
     6                           	psect	nvBANK0,global,class=BANK0,space=1,delta=1,noexec
     7                           	psect	cinit,global,class=CODE,merge=1,delta=2
     8                           	psect	bssBANK0,global,class=BANK0,space=1,delta=1,noexec
     9                           	psect	bssBANK1,global,class=BANK1,space=1,delta=1,noexec
    10                           	psect	dataBANK1,global,class=BANK1,space=1,delta=1,noexec
    11                           	psect	clrtext,global,class=CODE,delta=2
    12                           	psect	cstackCOMMON,global,class=COMMON,space=1,delta=1,noexec
    13                           	psect	cstackBANK0,global,class=BANK0,space=1,delta=1,noexec
    14                           	psect	maintext,global,class=CODE,split=1,delta=2
    15                           	psect	text1,local,class=CODE,merge=1,delta=2,group=1
    16                           	psect	text2,local,class=CODE,merge=1,delta=2,group=3
    17                           	psect	text3,local,class=CODE,merge=1,delta=2,group=2
    18                           	psect	text4,local,class=CODE,merge=1,delta=2,group=2
    19                           	psect	text5,local,class=CODE,merge=1,delta=2,group=2
    20                           	psect	text6,local,class=CODE,merge=1,delta=2
    21                           	psect	text7,local,class=CODE,merge=1,delta=2
    22                           	psect	text8,local,class=CODE,merge=1,delta=2
    23                           	psect	text9,local,class=CODE,merge=1,delta=2
    24                           	psect	text10,local,class=CODE,merge=1,delta=2
    25                           	psect	text11,local,class=CODE,merge=1,delta=2
    26                           	psect	text12,local,class=CODE,merge=1,delta=2
    27                           	psect	text13,local,class=CODE,merge=1,delta=2
    28                           	psect	text14,local,class=CODE,merge=1,delta=2
    29                           	psect	text15,local,class=CODE,merge=1,delta=2
    30                           	psect	text16,local,class=CODE,merge=1,delta=2
    31                           	psect	text17,local,class=CODE,merge=1,delta=2
    32                           	psect	text18,local,class=CODE,merge=1,delta=2
    33                           	psect	text19,local,class=CODE,merge=1,delta=2,group=2
    34                           	psect	text20,local,class=CODE,merge=1,delta=2,group=2
    35                           	psect	text21,local,class=CODE,merge=1,delta=2
    36                           	psect	text22,local,class=CODE,merge=1,delta=2,group=2
    37                           	psect	text23,local,class=CODE,merge=1,delta=2,group=2
    38                           	psect	text24,local,class=CODE,merge=1,delta=2,group=2
    39                           	psect	text25,local,class=CODE,merge=1,delta=2,group=2
    40                           	psect	text26,local,class=CODE,merge=1,delta=2,group=2
    41                           	psect	config,global,abs,ovrld,class=CONFIG,space=4,delta=2,noexec
    42                           	dabs	1,0x7E,2
    43  0000                     
    44                           ; Version 2.20
    45                           ; Generated 12/02/2020 GMT
    46                           ; 
    47                           ; Copyright © 2020, Microchip Technology Inc. and its subsidiaries ("Microchip")
    48                           ; All rights reserved.
    49                           ; 
    50                           ; This software is developed by Microchip Technology Inc. and its subsidiaries ("Microch
      +                          ip").
    51                           ; 
    52                           ; Redistribution and use in source and binary forms, with or without modification, are
    53                           ; permitted provided that the following conditions are met:
    54                           ; 
    55                           ;     1. Redistributions of source code must retain the above copyright notice, this lis
      +                          t of
    56                           ;        conditions and the following disclaimer.
    57                           ; 
    58                           ;     2. Redistributions in binary form must reproduce the above copyright notice, this 
      +                          list
    59                           ;        of conditions and the following disclaimer in the documentation and/or other
    60                           ;        materials provided with the distribution.
    61                           ; 
    62                           ;     3. Microchip's name may not be used to endorse or promote products derived from th
      +                          is
    63                           ;        software without specific prior written permission.
    64                           ; 
    65                           ; THIS SOFTWARE IS PROVIDED BY MICROCHIP "AS IS" AND ANY EXPRESS OR IMPLIED WARRANTIES,
    66                           ; INCLUDING, BUT NOT LIMITED TO, THE IMPLIED WARRANTIES OF MERCHANTABILITY AND FITNESS F
      +                          OR
    67                           ; PURPOSE ARE DISCLAIMED.  IN NO EVENT SHALL MICROCHIP BE LIABLE FOR ANY DIRECT, INDIREC
      +                          T,
    68                           ; INCIDENTAL, SPECIAL, EXEMPLARY, OR CONSEQUENTIAL DAMAGES (INCLUDING BUT NOT LIMITED TO
    69                           ; PROCUREMENT OF SUBSTITUTE GOODS OR SERVICES; LOSS OF USE, DATA OR PROFITS; OR BUSINESS
    70                           ; INTERRUPTION) HOWSOEVER CAUSED AND ON ANY THEORY OF LIABILITY, WHETHER IN CONTRACT, ST
      +                          RICT
    71                           ; LIABILITY, OR TORT (INCLUDING NEGLIGENCE OR OTHERWISE) ARISING IN ANY WAY OUT OF THE U
      +                          SE OF
    72                           ; THIS SOFTWARE, EVEN IF ADVISED OF THE POSSIBILITY OF SUCH DAMAGE.
    73                           ; 
    74                           ; 
    75                           ; Code-generator required, PIC16F887 Definitions
    76                           ; 
    77                           ; SFR Addresses
    78  0000                     	;# 
    79  0001                     	;# 
    80  0002                     	;# 
    81  0003                     	;# 
    82  0004                     	;# 
    83  0005                     	;# 
    84  0006                     	;# 
    85  0007                     	;# 
    86  0008                     	;# 
    87  0009                     	;# 
    88  000A                     	;# 
    89  000B                     	;# 
    90  000C                     	;# 
    91  000D                     	;# 
    92  000E                     	;# 
    93  000E                     	;# 
    94  000F                     	;# 
    95  0010                     	;# 
    96  0011                     	;# 
    97  0012                     	;# 
    98  0013                     	;# 
    99  0014                     	;# 
   100  0015                     	;# 
   101  0015                     	;# 
   102  0016                     	;# 
   103  0017                     	;# 
   104  0018                     	;# 
   105  0019                     	;# 
   106  001A                     	;# 
   107  001B                     	;# 
   108  001B                     	;# 
   109  001C                     	;# 
   110  001D                     	;# 
   111  001E                     	;# 
   112  001F                     	;# 
   113  0081                     	;# 
   114  0085                     	;# 
   115  0086                     	;# 
   116  0087                     	;# 
   117  0088                     	;# 
   118  0089                     	;# 
   119  008C                     	;# 
   120  008D                     	;# 
   121  008E                     	;# 
   122  008F                     	;# 
   123  0090                     	;# 
   124  0091                     	;# 
   125  0092                     	;# 
   126  0093                     	;# 
   127  0093                     	;# 
   128  0093                     	;# 
   129  0094                     	;# 
   130  0095                     	;# 
   131  0096                     	;# 
   132  0097                     	;# 
   133  0098                     	;# 
   134  0099                     	;# 
   135  009A                     	;# 
   136  009B                     	;# 
   137  009C                     	;# 
   138  009D                     	;# 
   139  009E                     	;# 
   140  009F                     	;# 
   141  0105                     	;# 
   142  0107                     	;# 
   143  0108                     	;# 
   144  0109                     	;# 
   145  010C                     	;# 
   146  010C                     	;# 
   147  010D                     	;# 
   148  010E                     	;# 
   149  010F                     	;# 
   150  0185                     	;# 
   151  0187                     	;# 
   152  0188                     	;# 
   153  0189                     	;# 
   154  018C                     	;# 
   155  018D                     	;# 
   156  0000                     	;# 
   157  0001                     	;# 
   158  0002                     	;# 
   159  0003                     	;# 
   160  0004                     	;# 
   161  0005                     	;# 
   162  0006                     	;# 
   163  0007                     	;# 
   164  0008                     	;# 
   165  0009                     	;# 
   166  000A                     	;# 
   167  000B                     	;# 
   168  000C                     	;# 
   169  000D                     	;# 
   170  000E                     	;# 
   171  000E                     	;# 
   172  000F                     	;# 
   173  0010                     	;# 
   174  0011                     	;# 
   175  0012                     	;# 
   176  0013                     	;# 
   177  0014                     	;# 
   178  0015                     	;# 
   179  0015                     	;# 
   180  0016                     	;# 
   181  0017                     	;# 
   182  0018                     	;# 
   183  0019                     	;# 
   184  001A                     	;# 
   185  001B                     	;# 
   186  001B                     	;# 
   187  001C                     	;# 
   188  001D                     	;# 
   189  001E                     	;# 
   190  001F                     	;# 
   191  0081                     	;# 
   192  0085                     	;# 
   193  0086                     	;# 
   194  0087                     	;# 
   195  0088                     	;# 
   196  0089                     	;# 
   197  008C                     	;# 
   198  008D                     	;# 
   199  008E                     	;# 
   200  008F                     	;# 
   201  0090                     	;# 
   202  0091                     	;# 
   203  0092                     	;# 
   204  0093                     	;# 
   205  0093                     	;# 
   206  0093                     	;# 
   207  0094                     	;# 
   208  0095                     	;# 
   209  0096                     	;# 
   210  0097                     	;# 
   211  0098                     	;# 
   212  0099                     	;# 
   213  009A                     	;# 
   214  009B                     	;# 
   215  009C                     	;# 
   216  009D                     	;# 
   217  009E                     	;# 
   218  009F                     	;# 
   219  0105                     	;# 
   220  0107                     	;# 
   221  0108                     	;# 
   222  0109                     	;# 
   223  010C                     	;# 
   224  010C                     	;# 
   225  010D                     	;# 
   226  010E                     	;# 
   227  010F                     	;# 
   228  0185                     	;# 
   229  0187                     	;# 
   230  0188                     	;# 
   231  0189                     	;# 
   232  018C                     	;# 
   233  018D                     	;# 
   234  0000                     	;# 
   235  0001                     	;# 
   236  0002                     	;# 
   237  0003                     	;# 
   238  0004                     	;# 
   239  0005                     	;# 
   240  0006                     	;# 
   241  0007                     	;# 
   242  0008                     	;# 
   243  0009                     	;# 
   244  000A                     	;# 
   245  000B                     	;# 
   246  000C                     	;# 
   247  000D                     	;# 
   248  000E                     	;# 
   249  000E                     	;# 
   250  000F                     	;# 
   251  0010                     	;# 
   252  0011                     	;# 
   253  0012                     	;# 
   254  0013                     	;# 
   255  0014                     	;# 
   256  0015                     	;# 
   257  0015                     	;# 
   258  0016                     	;# 
   259  0017                     	;# 
   260  0018                     	;# 
   261  0019                     	;# 
   262  001A                     	;# 
   263  001B                     	;# 
   264  001B                     	;# 
   265  001C                     	;# 
   266  001D                     	;# 
   267  001E                     	;# 
   268  001F                     	;# 
   269  0081                     	;# 
   270  0085                     	;# 
   271  0086                     	;# 
   272  0087                     	;# 
   273  0088                     	;# 
   274  0089                     	;# 
   275  008C                     	;# 
   276  008D                     	;# 
   277  008E                     	;# 
   278  008F                     	;# 
   279  0090                     	;# 
   280  0091                     	;# 
   281  0092                     	;# 
   282  0093                     	;# 
   283  0093                     	;# 
   284  0093                     	;# 
   285  0094                     	;# 
   286  0095                     	;# 
   287  0096                     	;# 
   288  0097                     	;# 
   289  0098                     	;# 
   290  0099                     	;# 
   291  009A                     	;# 
   292  009B                     	;# 
   293  009C                     	;# 
   294  009D                     	;# 
   295  009E                     	;# 
   296  009F                     	;# 
   297  0105                     	;# 
   298  0107                     	;# 
   299  0108                     	;# 
   300  0109                     	;# 
   301  010C                     	;# 
   302  010C                     	;# 
   303  010D                     	;# 
   304  010E                     	;# 
   305  010F                     	;# 
   306  0185                     	;# 
   307  0187                     	;# 
   308  0188                     	;# 
   309  0189                     	;# 
   310  018C                     	;# 
   311  018D                     	;# 
   312  0000                     	;# 
   313  0001                     	;# 
   314  0002                     	;# 
   315  0003                     	;# 
   316  0004                     	;# 
   317  0005                     	;# 
   318  0006                     	;# 
   319  0007                     	;# 
   320  0008                     	;# 
   321  0009                     	;# 
   322  000A                     	;# 
   323  000B                     	;# 
   324  000C                     	;# 
   325  000D                     	;# 
   326  000E                     	;# 
   327  000E                     	;# 
   328  000F                     	;# 
   329  0010                     	;# 
   330  0011                     	;# 
   331  0012                     	;# 
   332  0013                     	;# 
   333  0014                     	;# 
   334  0015                     	;# 
   335  0015                     	;# 
   336  0016                     	;# 
   337  0017                     	;# 
   338  0018                     	;# 
   339  0019                     	;# 
   340  001A                     	;# 
   341  001B                     	;# 
   342  001B                     	;# 
   343  001C                     	;# 
   344  001D                     	;# 
   345  001E                     	;# 
   346  001F                     	;# 
   347  0081                     	;# 
   348  0085                     	;# 
   349  0086                     	;# 
   350  0087                     	;# 
   351  0088                     	;# 
   352  0089                     	;# 
   353  008C                     	;# 
   354  008D                     	;# 
   355  008E                     	;# 
   356  008F                     	;# 
   357  0090                     	;# 
   358  0091                     	;# 
   359  0092                     	;# 
   360  0093                     	;# 
   361  0093                     	;# 
   362  0093                     	;# 
   363  0094                     	;# 
   364  0095                     	;# 
   365  0096                     	;# 
   366  0097                     	;# 
   367  0098                     	;# 
   368  0099                     	;# 
   369  009A                     	;# 
   370  009B                     	;# 
   371  009C                     	;# 
   372  009D                     	;# 
   373  009E                     	;# 
   374  009F                     	;# 
   375  0105                     	;# 
   376  0107                     	;# 
   377  0108                     	;# 
   378  0109                     	;# 
   379  010C                     	;# 
   380  010C                     	;# 
   381  010D                     	;# 
   382  010E                     	;# 
   383  010F                     	;# 
   384  0185                     	;# 
   385  0187                     	;# 
   386  0188                     	;# 
   387  0189                     	;# 
   388  018C                     	;# 
   389  018D                     	;# 
   390  0000                     	;# 
   391  0001                     	;# 
   392  0002                     	;# 
   393  0003                     	;# 
   394  0004                     	;# 
   395  0005                     	;# 
   396  0006                     	;# 
   397  0007                     	;# 
   398  0008                     	;# 
   399  0009                     	;# 
   400  000A                     	;# 
   401  000B                     	;# 
   402  000C                     	;# 
   403  000D                     	;# 
   404  000E                     	;# 
   405  000E                     	;# 
   406  000F                     	;# 
   407  0010                     	;# 
   408  0011                     	;# 
   409  0012                     	;# 
   410  0013                     	;# 
   411  0014                     	;# 
   412  0015                     	;# 
   413  0015                     	;# 
   414  0016                     	;# 
   415  0017                     	;# 
   416  0018                     	;# 
   417  0019                     	;# 
   418  001A                     	;# 
   419  001B                     	;# 
   420  001B                     	;# 
   421  001C                     	;# 
   422  001D                     	;# 
   423  001E                     	;# 
   424  001F                     	;# 
   425  0081                     	;# 
   426  0085                     	;# 
   427  0086                     	;# 
   428  0087                     	;# 
   429  0088                     	;# 
   430  0089                     	;# 
   431  008C                     	;# 
   432  008D                     	;# 
   433  008E                     	;# 
   434  008F                     	;# 
   435  0090                     	;# 
   436  0091                     	;# 
   437  0092                     	;# 
   438  0093                     	;# 
   439  0093                     	;# 
   440  0093                     	;# 
   441  0094                     	;# 
   442  0095                     	;# 
   443  0096                     	;# 
   444  0097                     	;# 
   445  0098                     	;# 
   446  0099                     	;# 
   447  009A                     	;# 
   448  009B                     	;# 
   449  009C                     	;# 
   450  009D                     	;# 
   451  009E                     	;# 
   452  009F                     	;# 
   453  0105                     	;# 
   454  0107                     	;# 
   455  0108                     	;# 
   456  0109                     	;# 
   457  010C                     	;# 
   458  010C                     	;# 
   459  010D                     	;# 
   460  010E                     	;# 
   461  010F                     	;# 
   462  0185                     	;# 
   463  0187                     	;# 
   464  0188                     	;# 
   465  0189                     	;# 
   466  018C                     	;# 
   467  018D                     	;# 
   468  0000                     	;# 
   469  0001                     	;# 
   470  0002                     	;# 
   471  0003                     	;# 
   472  0004                     	;# 
   473  0005                     	;# 
   474  0006                     	;# 
   475  0007                     	;# 
   476  0008                     	;# 
   477  0009                     	;# 
   478  000A                     	;# 
   479  000B                     	;# 
   480  000C                     	;# 
   481  000D                     	;# 
   482  000E                     	;# 
   483  000E                     	;# 
   484  000F                     	;# 
   485  0010                     	;# 
   486  0011                     	;# 
   487  0012                     	;# 
   488  0013                     	;# 
   489  0014                     	;# 
   490  0015                     	;# 
   491  0015                     	;# 
   492  0016                     	;# 
   493  0017                     	;# 
   494  0018                     	;# 
   495  0019                     	;# 
   496  001A                     	;# 
   497  001B                     	;# 
   498  001B                     	;# 
   499  001C                     	;# 
   500  001D                     	;# 
   501  001E                     	;# 
   502  001F                     	;# 
   503  0081                     	;# 
   504  0085                     	;# 
   505  0086                     	;# 
   506  0087                     	;# 
   507  0088                     	;# 
   508  0089                     	;# 
   509  008C                     	;# 
   510  008D                     	;# 
   511  008E                     	;# 
   512  008F                     	;# 
   513  0090                     	;# 
   514  0091                     	;# 
   515  0092                     	;# 
   516  0093                     	;# 
   517  0093                     	;# 
   518  0093                     	;# 
   519  0094                     	;# 
   520  0095                     	;# 
   521  0096                     	;# 
   522  0097                     	;# 
   523  0098                     	;# 
   524  0099                     	;# 
   525  009A                     	;# 
   526  009B                     	;# 
   527  009C                     	;# 
   528  009D                     	;# 
   529  009E                     	;# 
   530  009F                     	;# 
   531  0105                     	;# 
   532  0107                     	;# 
   533  0108                     	;# 
   534  0109                     	;# 
   535  010C                     	;# 
   536  010C                     	;# 
   537  010D                     	;# 
   538  010E                     	;# 
   539  010F                     	;# 
   540  0185                     	;# 
   541  0187                     	;# 
   542  0188                     	;# 
   543  0189                     	;# 
   544  018C                     	;# 
   545  018D                     	;# 
   546                           
   547                           	psect	idataBANK1
   548  0B63                     __pidataBANK1:
   549                           
   550                           ;initializer for _Titlea
   551  0B63  3443               	retlw	67
   552  0B64  346F               	retlw	111
   553  0B65  346E               	retlw	110
   554  0B66  3474               	retlw	116
   555  0B67  3461               	retlw	97
   556                           
   557                           	psect	strings
   558  0800                     __pstrings:
   559  0800                     stringtab:
   560  0800                     __stringtab:
   561                           
   562                           ;	String table - string pointers are 1 byte each
   563  0800  1BFF               	btfsc	btemp+1,7
   564  0801  280A               	ljmp	stringcode
   565  0802  1383               	bcf	3,7
   566  0803  187F               	btfsc	btemp+1,0
   567  0804  1783               	bsf	3,7
   568  0805  0800               	movf	0,w
   569  0806  0A84               	incf	4,f
   570  0807  1903               	skipnz
   571  0808  0AFF               	incf	btemp+1,f
   572  0809  0008               	return
   573  080A                     stringcode:
   574  080A                     stringdir:
   575  080A  3008               	movlw	high stringdir
   576  080B  008A               	movwf	10
   577  080C  0804               	movf	4,w
   578  080D  0A84               	incf	4,f
   579  080E  0782               	addwf	2,f
   580  080F                     __stringbase:
   581  080F  3400               	retlw	0
   582  0810                     __end_of__stringtab:
   583  0810                     _dpowers:
   584  0810  3401               	retlw	1
   585  0811  3400               	retlw	0
   586  0812  340A               	retlw	10
   587  0813  3400               	retlw	0
   588  0814  3464               	retlw	100
   589  0815  3400               	retlw	0
   590  0816  34E8               	retlw	232
   591  0817  3403               	retlw	3
   592  0818  3410               	retlw	16
   593  0819  3427               	retlw	39
   594  081A                     __end_of_dpowers:
   595  081A                     STR_1:
   596  081A  3453               	retlw	83	;'S'
   597  081B  3431               	retlw	49	;'1'
   598  081C  343A               	retlw	58	;':'
   599  081D  3420               	retlw	32	;' '
   600  081E  3420               	retlw	32	;' '
   601  081F  3420               	retlw	32	;' '
   602  0820  3453               	retlw	83	;'S'
   603  0821  3432               	retlw	50	;'2'
   604  0822  343A               	retlw	58	;':'
   605  0823  3420               	retlw	32	;' '
   606  0824  3420               	retlw	32	;' '
   607  0825  3420               	retlw	32	;' '
   608  0826  3420               	retlw	32	;' '
   609  0827  3453               	retlw	83	;'S'
   610  0828  3433               	retlw	51	;'3'
   611  0829  343A               	retlw	58	;':'
   612  082A  3400               	retlw	0
   613  082B                     STR_2:
   614  082B  3425               	retlw	37	;'%'
   615  082C  342E               	retlw	46	;'.'
   616  082D  3433               	retlw	51	;'3'
   617  082E  3469               	retlw	105	;'i'
   618  082F  3400               	retlw	0
   619  0830                     STR_3:
   620  0830  3425               	retlw	37	;'%'
   621  0831  342E               	retlw	46	;'.'
   622  0832  3434               	retlw	52	;'4'
   623  0833  3469               	retlw	105	;'i'
   624  0834  3400               	retlw	0
   625  0835                     STR_5:
   626  0835  346D               	retlw	109	;'m'
   627  0836  3456               	retlw	86	;'V'
   628  0837  3420               	retlw	32	;' '
   629  0838  3400               	retlw	0
   630  0839                     STR_7:
   631  0839  3443               	retlw	67	;'C'
   632  083A  3420               	retlw	32	;' '
   633  083B  3400               	retlw	0
   634  083A                     
   635                           	psect	nvBANK0
   636  006E                     __pnvBANK0:
   637  006E                     _SSbit1:
   638  006E                     	ds	1
   639  0013                     _SSPBUF	set	19
   640  0014                     _SSPCONbits	set	20
   641  001F                     _ADCON0bits	set	31
   642  0019                     _TXREG	set	25
   643  001A                     _RCREG	set	26
   644  0018                     _RCSTA	set	24
   645  0006                     _PORTBbits	set	6
   646  000C                     _PIR1bits	set	12
   647  000B                     _INTCONbits	set	11
   648  0009                     _PORTE	set	9
   649  0007                     _PORTC	set	7
   650  0006                     _PORTB	set	6
   651  0005                     _PORTA	set	5
   652  0008                     _PORTD	set	8
   653  004A                     _RE2	set	74
   654  0049                     _RE1	set	73
   655  0048                     _RE0	set	72
   656  0085                     _TRISAbits	set	133
   657  0087                     _TRISCbits	set	135
   658  0094                     _SSPSTATbits	set	148
   659  009F                     _ADCON1bits	set	159
   660  0098                     _TXSTAbits	set	152
   661  0098                     _TXSTA	set	152
   662  0099                     _SPBRG	set	153
   663  009A                     _SPBRGH	set	154
   664  008C                     _PIE1bits	set	140
   665  0089                     _TRISE	set	137
   666  0087                     _TRISC	set	135
   667  0088                     _TRISD	set	136
   668  0086                     _TRISB	set	134
   669  0085                     _TRISA	set	133
   670  008F                     _OSCCONbits	set	143
   671  0187                     _BAUDCTLbits	set	391
   672  0189                     _ANSELH	set	393
   673  0188                     _ANSEL	set	392
   674                           
   675                           	psect	cinit
   676  07CB                     start_initialization:	
   677                           ; #config settings
   678                           
   679  07CB                     __initialization:
   680                           
   681                           ; Initialize objects allocated to BANK1
   682  07CB  1683               	bsf	3,5	;RP0=1, select bank1
   683  07CC  1303               	bcf	3,6	;RP1=0, select bank1
   684  07CD  120A  158A  2363  120A  118A  	fcall	__pidataBANK1	;fetch initializer
   685  07D2  00C6               	movwf	__pdataBANK1& (0+127)
   686  07D3  120A  158A  2364  120A  118A  	fcall	__pidataBANK1+1	;fetch initializer
   687  07D8  00C7               	movwf	(__pdataBANK1+1)& (0+127)
   688  07D9  120A  158A  2365  120A  118A  	fcall	__pidataBANK1+2	;fetch initializer
   689  07DE  00C8               	movwf	(__pdataBANK1+2)& (0+127)
   690  07DF  120A  158A  2366  120A  118A  	fcall	__pidataBANK1+3	;fetch initializer
   691  07E4  00C9               	movwf	(__pdataBANK1+3)& (0+127)
   692  07E5  120A  158A  2367  120A  118A  	fcall	__pidataBANK1+4	;fetch initializer
   693  07EA  00CA               	movwf	(__pdataBANK1+4)& (0+127)
   694                           
   695                           ; Clear objects allocated to BANK1
   696  07EB  1383               	bcf	3,7	;select IRP bank0
   697  07EC  30A0               	movlw	low __pbssBANK1
   698  07ED  0084               	movwf	4
   699  07EE  30C6               	movlw	low (__pbssBANK1+38)
   700  07EF  120A  158A  236E  120A  118A  	fcall	clear_ram0
   701                           
   702                           ; Clear objects allocated to BANK0
   703  07F4  3065               	movlw	low __pbssBANK0
   704  07F5  0084               	movwf	4
   705  07F6  306E               	movlw	low (__pbssBANK0+9)
   706  07F7  120A  158A  236E  120A  118A  	fcall	clear_ram0
   707  07FC                     end_of_initialization:	
   708                           ;End of C runtime variable initialization code
   709                           
   710  07FC                     __end_of__initialization:
   711  07FC  0183               	clrf	3
   712  07FD  120A  158A  2F40   	ljmp	_main	;jump to C main() function
   713                           
   714                           	psect	bssBANK0
   715  0065                     __pbssBANK0:
   716  0065                     _Potenciometro:
   717  0065                     	ds	2
   718  0067                     _PotenciometroLectura:
   719  0067                     	ds	2
   720  0069                     _Temperatura:
   721  0069                     	ds	1
   722  006A                     _TemperaturaLectura:
   723  006A                     	ds	1
   724  006B                     _Contador:
   725  006B                     	ds	1
   726  006C                     _ContadorLectura:
   727  006C                     	ds	1
   728  006D                     _ADC1ADRESH:
   729  006D                     	ds	1
   730                           
   731                           	psect	bssBANK1
   732  00A0                     __pbssBANK1:
   733  00A0                     _POTchar1C:
   734  00A0                     	ds	5
   735  00A5                     _POTchar1B:
   736  00A5                     	ds	5
   737  00AA                     _POTchar1A:
   738  00AA                     	ds	5
   739  00AF                     _POINT:
   740  00AF                     	ds	2
   741  00B1                     _Pot1C:
   742  00B1                     	ds	2
   743  00B3                     _Pot1B:
   744  00B3                     	ds	2
   745  00B5                     _Pot1A:
   746  00B5                     	ds	2
   747  00B7                     _TemperaturaSend:
   748  00B7                     	ds	5
   749  00BC                     _PotenciometroSend:
   750  00BC                     	ds	5
   751  00C1                     _ContadorSend:
   752  00C1                     	ds	5
   753                           
   754                           	psect	dataBANK1
   755  00C6                     __pdataBANK1:
   756  00C6                     _Titlea:
   757  00C6                     	ds	5
   758                           
   759                           	psect	clrtext
   760  0B6E                     clear_ram0:	
   761                           ;	Called with FSR containing the base address, and
   762                           ;	W with the last address+1
   763                           
   764  0B6E  0064               	clrwdt	;clear the watchdog before getting into this loop
   765  0B6F                     clrloop0:
   766  0B6F  0180               	clrf	0	;clear RAM location pointed to by FSR
   767  0B70  0A84               	incf	4,f	;increment pointer
   768  0B71  0604               	xorwf	4,w	;XOR with final address
   769  0B72  1903               	btfsc	3,2	;have we reached the end yet?
   770  0B73  3400               	retlw	0	;all done for this memory range, return
   771  0B74  0604               	xorwf	4,w	;XOR again to restore value
   772  0B75  2B6F               	goto	clrloop0	;do the next byte
   773                           
   774                           	psect	cstackCOMMON
   775  0070                     __pcstackCOMMON:
   776  0070                     ?_isdigit:
   777  0070                     ?_lcd_ready:	
   778                           ; 1 bit 
   779                           
   780  0070                     ??_lcd_ready:	
   781                           ; 1 bytes @ 0x0
   782                           
   783  0070                     ?_lcd_lat:	
   784                           ; 1 bytes @ 0x0
   785                           
   786  0070                     ??_lcd_lat:	
   787                           ; 1 bytes @ 0x0
   788                           
   789  0070                     ?_SPIMaster:	
   790                           ; 1 bytes @ 0x0
   791                           
   792  0070                     ??_SPIMaster:	
   793                           ; 1 bytes @ 0x0
   794                           
   795  0070                     ?_UART_INIT:	
   796                           ; 1 bytes @ 0x0
   797                           
   798  0070                     ??_UART_INIT:	
   799                           ; 1 bytes @ 0x0
   800                           
   801  0070                     ?_ComSPI:	
   802                           ; 1 bytes @ 0x0
   803                           
   804  0070                     ?_UART_Write_Text:	
   805                           ; 1 bytes @ 0x0
   806                           
   807  0070                     ?_spiWrite:	
   808                           ; 1 bytes @ 0x0
   809                           
   810  0070                     ??_spiWrite:	
   811                           ; 1 bytes @ 0x0
   812                           
   813  0070                     ?_spiRead:	
   814                           ; 1 bytes @ 0x0
   815                           
   816  0070                     ??_spiRead:	
   817                           ; 1 bytes @ 0x0
   818                           
   819  0070                     ?_MapPot:	
   820                           ; 1 bytes @ 0x0
   821                           
   822  0070                     ??_isdigit:	
   823                           ; 1 bytes @ 0x0
   824                           
   825  0070                     ?_lcd_cmd:	
   826                           ; 1 bytes @ 0x0
   827                           
   828  0070                     ?_lcd_dwr:	
   829                           ; 1 bytes @ 0x0
   830                           
   831  0070                     ?_inicializacion:	
   832                           ; 1 bytes @ 0x0
   833                           
   834  0070                     ?_main:	
   835                           ; 1 bytes @ 0x0
   836                           
   837  0070                     ?_UART_WRITE:	
   838                           ; 1 bytes @ 0x0
   839                           
   840  0070                     ?___bmul:	
   841                           ; 1 bytes @ 0x0
   842                           
   843  0070                     ?__Umul8_16:	
   844                           ; 1 bytes @ 0x0
   845                           
   846  0070                     ?___wmul:	
   847                           ; 2 bytes @ 0x0
   848                           
   849  0070                     ?___lwdiv:	
   850                           ; 2 bytes @ 0x0
   851                           
   852  0070                     ?___xxtofl:	
   853                           ; 2 bytes @ 0x0
   854                           
   855  0070                     spiWrite@dat:	
   856                           ; 4 bytes @ 0x0
   857                           
   858  0070                     ___bmul@multiplicand:	
   859                           ; 1 bytes @ 0x0
   860                           
   861  0070                     __Umul8_16@multiplicand:	
   862                           ; 1 bytes @ 0x0
   863                           
   864  0070                     _isdigit$1224:	
   865                           ; 1 bytes @ 0x0
   866                           
   867  0070                     UART_WRITE@data:	
   868                           ; 1 bytes @ 0x0
   869                           
   870  0070                     ___wmul@multiplier:	
   871                           ; 2 bytes @ 0x0
   872                           
   873  0070                     ___lwdiv@divisor:	
   874                           ; 2 bytes @ 0x0
   875                           
   876  0070                     ___xxtofl@val:	
   877                           ; 2 bytes @ 0x0
   878                           
   879                           
   880                           ; 4 bytes @ 0x0
   881  0070                     	ds	1
   882  0071                     ??___bmul:
   883  0071                     isdigit@c:	
   884                           ; 1 bytes @ 0x1
   885                           
   886                           
   887                           ; 1 bytes @ 0x1
   888  0071                     	ds	1
   889  0072                     ??_UART_Write_Text:
   890  0072                     ??__Umul8_16:	
   891                           ; 1 bytes @ 0x2
   892                           
   893  0072                     ??_lcd_cmd:	
   894                           ; 1 bytes @ 0x2
   895                           
   896  0072                     ??_lcd_dwr:	
   897                           ; 1 bytes @ 0x2
   898                           
   899  0072                     ??_UART_WRITE:	
   900                           ; 1 bytes @ 0x2
   901                           
   902  0072                     lcd_cmd@x:	
   903                           ; 1 bytes @ 0x2
   904                           
   905  0072                     lcd_dwr@x:	
   906                           ; 1 bytes @ 0x2
   907                           
   908  0072                     ___bmul@product:	
   909                           ; 1 bytes @ 0x2
   910                           
   911  0072                     ___wmul@multiplicand:	
   912                           ; 1 bytes @ 0x2
   913                           
   914  0072                     ___lwdiv@dividend:	
   915                           ; 2 bytes @ 0x2
   916                           
   917                           
   918                           ; 2 bytes @ 0x2
   919  0072                     	ds	1
   920  0073                     ?_lcd_msg:
   921  0073                     ??_inicializacion:	
   922                           ; 1 bytes @ 0x3
   923                           
   924  0073                     ___bmul@multiplier:	
   925                           ; 1 bytes @ 0x3
   926                           
   927  0073                     lcd_msg@c:	
   928                           ; 1 bytes @ 0x3
   929                           
   930                           
   931                           ; 2 bytes @ 0x3
   932  0073                     	ds	1
   933  0074                     ??___wmul:
   934  0074                     ??___lwdiv:	
   935                           ; 1 bytes @ 0x4
   936                           
   937  0074                     ??___xxtofl:	
   938                           ; 1 bytes @ 0x4
   939                           
   940  0074                     ___wmul@product:	
   941                           ; 1 bytes @ 0x4
   942                           
   943  0074                     __Umul8_16@product:	
   944                           ; 2 bytes @ 0x4
   945                           
   946                           
   947                           ; 2 bytes @ 0x4
   948  0074                     	ds	1
   949  0075                     ??_lcd_msg:
   950  0075                     UART_Write_Text@i:	
   951                           ; 1 bytes @ 0x5
   952                           
   953  0075                     ___lwdiv@quotient:	
   954                           ; 2 bytes @ 0x5
   955                           
   956                           
   957                           ; 2 bytes @ 0x5
   958  0075                     	ds	1
   959  0076                     ?___awdiv:
   960  0076                     ___awdiv@divisor:	
   961                           ; 2 bytes @ 0x6
   962                           
   963  0076                     __Umul8_16@word_mpld:	
   964                           ; 2 bytes @ 0x6
   965                           
   966                           
   967                           ; 2 bytes @ 0x6
   968  0076                     	ds	1
   969  0077                     UART_Write_Text@text:
   970  0077                     ___lwdiv@counter:	
   971                           ; 1 bytes @ 0x7
   972                           
   973                           
   974                           ; 1 bytes @ 0x7
   975  0077                     	ds	1
   976  0078                     ?___lwmod:
   977  0078                     __Umul8_16@multiplier:	
   978                           ; 2 bytes @ 0x8
   979                           
   980  0078                     ___xxtofl@sign:	
   981                           ; 1 bytes @ 0x8
   982                           
   983  0078                     ___awdiv@dividend:	
   984                           ; 1 bytes @ 0x8
   985                           
   986  0078                     ___lwmod@divisor:	
   987                           ; 2 bytes @ 0x8
   988                           
   989                           
   990                           ; 2 bytes @ 0x8
   991  0078                     	ds	1
   992  0079                     ___xxtofl@exp:
   993                           
   994                           ; 1 bytes @ 0x9
   995  0079                     	ds	1
   996  007A                     ??___awdiv:
   997  007A                     ___lwmod@dividend:	
   998                           ; 1 bytes @ 0xA
   999                           
  1000  007A                     ___xxtofl@arg:	
  1001                           ; 2 bytes @ 0xA
  1002                           
  1003                           
  1004                           ; 4 bytes @ 0xA
  1005  007A                     	ds	2
  1006  007C                     ??___lwmod:
  1007                           
  1008                           ; 1 bytes @ 0xC
  1009  007C                     	ds	1
  1010  007D                     ___lwmod@counter:
  1011                           
  1012                           ; 1 bytes @ 0xD
  1013  007D                     	ds	1
  1014  007E                     ??_MapPot:
  1015                           
  1016                           	psect	cstackBANK0
  1017  0020                     __pcstackBANK0:	
  1018                           ; 1 bytes @ 0xE
  1019                           
  1020  0020                     ?_sprintf:
  1021  0020                     ?___flmul:	
  1022                           ; 2 bytes @ 0x0
  1023                           
  1024  0020                     sprintf@f:	
  1025                           ; 4 bytes @ 0x0
  1026                           
  1027  0020                     ___awdiv@counter:	
  1028                           ; 1 bytes @ 0x0
  1029                           
  1030  0020                     ___flmul@b:	
  1031                           ; 1 bytes @ 0x0
  1032                           
  1033                           
  1034                           ; 4 bytes @ 0x0
  1035  0020                     	ds	1
  1036  0021                     ___awdiv@sign:
  1037                           
  1038                           ; 1 bytes @ 0x1
  1039  0021                     	ds	1
  1040  0022                     ___awdiv@quotient:
  1041                           
  1042                           ; 2 bytes @ 0x2
  1043  0022                     	ds	1
  1044  0023                     ??_sprintf:
  1045                           
  1046                           ; 1 bytes @ 0x3
  1047  0023                     	ds	1
  1048  0024                     ___flmul@a:
  1049                           
  1050                           ; 4 bytes @ 0x4
  1051  0024                     	ds	2
  1052  0026                     sprintf@ap:
  1053                           
  1054                           ; 1 bytes @ 0x6
  1055  0026                     	ds	1
  1056  0027                     sprintf@flag:
  1057                           
  1058                           ; 1 bytes @ 0x7
  1059  0027                     	ds	1
  1060  0028                     ??___flmul:
  1061  0028                     sprintf@val:	
  1062                           ; 1 bytes @ 0x8
  1063                           
  1064                           
  1065                           ; 2 bytes @ 0x8
  1066  0028                     	ds	2
  1067  002A                     sprintf@sp:
  1068                           
  1069                           ; 1 bytes @ 0xA
  1070  002A                     	ds	1
  1071  002B                     sprintf@prec:
  1072                           
  1073                           ; 1 bytes @ 0xB
  1074  002B                     	ds	1
  1075  002C                     sprintf@c:
  1076                           
  1077                           ; 1 bytes @ 0xC
  1078  002C                     	ds	1
  1079  002D                     ___flmul@sign:
  1080                           
  1081                           ; 1 bytes @ 0xD
  1082  002D                     	ds	1
  1083  002E                     ___flmul@grs:
  1084                           
  1085                           ; 4 bytes @ 0xE
  1086  002E                     	ds	4
  1087  0032                     ___flmul@aexp:
  1088                           
  1089                           ; 1 bytes @ 0x12
  1090  0032                     	ds	1
  1091  0033                     ___flmul@bexp:
  1092                           
  1093                           ; 1 bytes @ 0x13
  1094  0033                     	ds	1
  1095  0034                     ___flmul@prod:
  1096                           
  1097                           ; 4 bytes @ 0x14
  1098  0034                     	ds	4
  1099  0038                     ___flmul@temp:
  1100                           
  1101                           ; 2 bytes @ 0x18
  1102  0038                     	ds	2
  1103  003A                     ?___fldiv:
  1104  003A                     ___fldiv@a:	
  1105                           ; 4 bytes @ 0x1A
  1106                           
  1107                           
  1108                           ; 4 bytes @ 0x1A
  1109  003A                     	ds	4
  1110  003E                     ___fldiv@b:
  1111                           
  1112                           ; 4 bytes @ 0x1E
  1113  003E                     	ds	4
  1114  0042                     ??___fldiv:
  1115                           
  1116                           ; 1 bytes @ 0x22
  1117  0042                     	ds	5
  1118  0047                     ___fldiv@rem:
  1119                           
  1120                           ; 4 bytes @ 0x27
  1121  0047                     	ds	4
  1122  004B                     ___fldiv@sign:
  1123                           
  1124                           ; 1 bytes @ 0x2B
  1125  004B                     	ds	1
  1126  004C                     ___fldiv@new_exp:
  1127                           
  1128                           ; 2 bytes @ 0x2C
  1129  004C                     	ds	2
  1130  004E                     ___fldiv@grs:
  1131                           
  1132                           ; 4 bytes @ 0x2E
  1133  004E                     	ds	4
  1134  0052                     ___fldiv@bexp:
  1135                           
  1136                           ; 1 bytes @ 0x32
  1137  0052                     	ds	1
  1138  0053                     ___fldiv@aexp:
  1139                           
  1140                           ; 1 bytes @ 0x33
  1141  0053                     	ds	1
  1142  0054                     ?___fltol:
  1143  0054                     ___fltol@f1:	
  1144                           ; 4 bytes @ 0x34
  1145                           
  1146                           
  1147                           ; 4 bytes @ 0x34
  1148  0054                     	ds	4
  1149  0058                     ??___fltol:
  1150                           
  1151                           ; 1 bytes @ 0x38
  1152  0058                     	ds	5
  1153  005D                     ___fltol@sign1:
  1154                           
  1155                           ; 1 bytes @ 0x3D
  1156  005D                     	ds	1
  1157  005E                     ___fltol@exp1:
  1158                           
  1159                           ; 1 bytes @ 0x3E
  1160  005E                     	ds	1
  1161  005F                     ??_ComSPI:
  1162                           
  1163                           ; 1 bytes @ 0x3F
  1164  005F                     	ds	3
  1165  0062                     ??_main:
  1166                           
  1167                           ; 1 bytes @ 0x42
  1168  0062                     	ds	3
  1169                           
  1170                           	psect	maintext
  1171  0F40                     __pmaintext:	
  1172 ;;
  1173 ;;Main: autosize = 0, tempsize = 3, incstack = 0, save=0
  1174 ;;
  1175 ;; *************** function _main *****************
  1176 ;; Defined at:
  1177 ;;		line 76 in file "main.c"
  1178 ;; Parameters:    Size  Location     Type
  1179 ;;		None
  1180 ;; Auto vars:     Size  Location     Type
  1181 ;;		None
  1182 ;; Return value:  Size  Location     Type
  1183 ;;                  1    wreg      void 
  1184 ;; Registers used:
  1185 ;;		wreg, fsr0l, fsr0h, status,2, status,0, btemp+1, pclath, cstack
  1186 ;; Tracked objects:
  1187 ;;		On entry : B00/0
  1188 ;;		On exit  : 0/0
  1189 ;;		Unchanged: 0/0
  1190 ;; Data sizes:     COMMON   BANK0   BANK1   BANK3   BANK2
  1191 ;;      Params:         0       0       0       0       0
  1192 ;;      Locals:         0       0       0       0       0
  1193 ;;      Temps:          0       3       0       0       0
  1194 ;;      Totals:         0       3       0       0       0
  1195 ;;Total ram usage:        3 bytes
  1196 ;; Hardware stack levels required when called:    4
  1197 ;; This function calls:
  1198 ;;		_ComSPI
  1199 ;;		_SPIMaster
  1200 ;;		_UART_INIT
  1201 ;;		_UART_Write_Text
  1202 ;;		_inicializacion
  1203 ;;		_lcd_cmd
  1204 ;;		_lcd_msg
  1205 ;;		_sprintf
  1206 ;; This function is called by:
  1207 ;;		Startup code after reset
  1208 ;; This function uses a non-reentrant model
  1209 ;;
  1210                           
  1211                           
  1212                           ;psect for function _main
  1213  0F40                     _main:
  1214  0F40                     l2561:	
  1215                           ;incstack = 0
  1216                           ; Regs used in _main: [wreg-fsr0h+status,2+status,0+btemp+1+pclath+cstack]
  1217                           
  1218                           
  1219                           ;main.c: 79:         lcd_msg(ContadorSend);
  1220  0F40  3070               	movlw	112
  1221  0F41  1683               	bsf	3,5	;RP0=1, select bank1
  1222  0F42  1303               	bcf	3,6	;RP1=0, select bank1
  1223  0F43  048F               	iorwf	15,f	;volatile
  1224  0F44                     l2563:
  1225                           
  1226                           ;main.c: 80:         lcd_msg(" ");
  1227  0F44  118F               	bcf	15,3	;volatile
  1228  0F45                     l2565:
  1229                           
  1230                           ;main.c: 81:         lcd_msg(TemperaturaSend);
  1231  0F45  110F               	bcf	15,2	;volatile
  1232  0F46                     l2567:
  1233                           
  1234                           ;main.c: 82:         lcd_msg("C ");
  1235  0F46  108F               	bcf	15,1	;volatile
  1236  0F47                     l2569:
  1237                           
  1238                           ;main.c: 83: 
  1239  0F47  140F               	bsf	15,0	;volatile
  1240  0F48                     l2571:
  1241                           
  1242                           ;main.c: 86: 
  1243  0F48  1683               	bsf	3,5	;RP0=1, select bank3
  1244  0F49  1703               	bsf	3,6	;RP1=1, select bank3
  1245  0F4A  0188               	clrf	8	;volatile
  1246  0F4B                     l2573:
  1247                           
  1248                           ;main.c: 87:         UART_Write_Text(ContadorSend);
  1249  0F4B  0189               	clrf	9	;volatile
  1250  0F4C                     l2575:
  1251                           
  1252                           ;main.c: 88: 
  1253  0F4C  1683               	bsf	3,5	;RP0=1, select bank1
  1254  0F4D  1303               	bcf	3,6	;RP1=0, select bank1
  1255  0F4E  0185               	clrf	5	;volatile
  1256  0F4F                     l2577:
  1257                           
  1258                           ;main.c: 89: 
  1259  0F4F  0186               	clrf	6	;volatile
  1260  0F50                     l2579:
  1261                           
  1262                           ;main.c: 90: 
  1263  0F50  0188               	clrf	8	;volatile
  1264  0F51                     l2581:
  1265                           
  1266                           ;main.c: 91:     }
  1267  0F51  3090               	movlw	144
  1268  0F52  0087               	movwf	7	;volatile
  1269  0F53                     l2583:
  1270                           
  1271                           ;main.c: 92: }
  1272  0F53  0189               	clrf	9	;volatile
  1273  0F54                     l2585:
  1274                           
  1275                           ;main.c: 93: 
  1276  0F54  1283               	bcf	3,5	;RP0=0, select bank0
  1277  0F55  1303               	bcf	3,6	;RP1=0, select bank0
  1278  0F56  0185               	clrf	5	;volatile
  1279  0F57                     l2587:
  1280                           
  1281                           ;main.c: 94: void ComSPI(void) {
  1282  0F57  0186               	clrf	6	;volatile
  1283  0F58                     l2589:
  1284                           
  1285                           ;main.c: 95:     if (SSbit1 == 1) {
  1286  0F58  0187               	clrf	7	;volatile
  1287  0F59                     l2591:
  1288                           
  1289                           ;main.c: 96:         PORTBbits.RB0 = 0;
  1290  0F59  0188               	clrf	8	;volatile
  1291  0F5A                     l2593:
  1292                           
  1293                           ;main.c: 97:         PORTBbits.RB1 = 1;
  1294  0F5A  0189               	clrf	9	;volatile
  1295  0F5B                     l2595:
  1296                           
  1297                           ;main.c: 98:         PORTBbits.RB2 = 1;
  1298  0F5B  1683               	bsf	3,5	;RP0=1, select bank1
  1299  0F5C  1303               	bcf	3,6	;RP1=0, select bank1
  1300  0F5D  158C               	bsf	12,3	;volatile
  1301  0F5E                     l2597:
  1302                           
  1303                           ;main.c: 99:         _delay((unsigned long)((1)*(8000000/4000.0)));
  1304  0F5E  178B               	bsf	11,7	;volatile
  1305  0F5F                     l2599:
  1306                           
  1307                           ;main.c: 100:         spiWrite(1);
  1308  0F5F  170B               	bsf	11,6	;volatile
  1309  0F60                     l2601:
  1310                           
  1311                           ;main.c: 101:         PotenciometroLectura = spiRead();
  1312  0F60  1283               	bcf	3,5	;RP0=0, select bank0
  1313  0F61  1303               	bcf	3,6	;RP1=0, select bank0
  1314  0F62  118C               	bcf	12,3	;volatile
  1315  0F63                     l2603:
  1316                           
  1317                           ;main.c: 102:         MapPot();
  1318  0F63  120A  158A  23E5  120A  158A  	fcall	_SPIMaster
  1319  0F68                     l2605:
  1320                           
  1321                           ;main.c: 103:         _delay((unsigned long)((1)*(8000000/4000.0)));
  1322  0F68  1283               	bcf	3,5	;RP0=0, select bank0
  1323  0F69  1303               	bcf	3,6	;RP1=0, select bank0
  1324  0F6A  01EE               	clrf	_SSbit1
  1325  0F6B  0AEE               	incf	_SSbit1,f
  1326  0F6C                     l2607:
  1327                           
  1328                           ;main.c: 104:         PORTBbits.RB0 = 1;
  1329  0F6C  120A  158A  2416  120A  158A  	fcall	_inicializacion
  1330  0F71                     l2609:
  1331                           
  1332                           ;main.c: 105:         _delay((unsigned long)((100)*(8000000/4000.0)));
  1333  0F71  120A  158A  23FD  120A  158A  	fcall	_UART_INIT
  1334  0F76                     l2611:
  1335                           
  1336                           ;main.c: 111:         PORTBbits.RB2 = 1;
  1337  0F76  300B               	movlw	(low ((STR_1-__stringbase)| (0+32768)))& (0+255)
  1338  0F77  00F3               	movwf	lcd_msg@c
  1339  0F78  3080               	movlw	128
  1340  0F79  00F4               	movwf	lcd_msg@c+1
  1341  0F7A  120A  158A  245A  120A  158A  	fcall	_lcd_msg
  1342  0F7F                     l2613:
  1343                           
  1344                           ;main.c: 114:         Contador = spiRead();
  1345  0F7F  120A  118A  2030  120A  158A  	fcall	_ComSPI
  1346  0F84                     l2615:
  1347                           
  1348                           ;main.c: 115:         _delay((unsigned long)((1)*(8000000/4000.0)));
  1349  0F84  301C               	movlw	(low ((STR_2-__stringbase)| (0+32768)))& (0+255)
  1350  0F85  1283               	bcf	3,5	;RP0=0, select bank0
  1351  0F86  1303               	bcf	3,6	;RP1=0, select bank0
  1352  0F87  00E2               	movwf	??_main
  1353  0F88  0862               	movf	??_main,w
  1354  0F89  00A0               	movwf	sprintf@f
  1355  0F8A  086B               	movf	_Contador,w
  1356  0F8B  00E3               	movwf	??_main+1
  1357  0F8C  01E4               	clrf	??_main+2
  1358  0F8D  0863               	movf	??_main+1,w
  1359  0F8E  00A1               	movwf	?_sprintf+1
  1360  0F8F  0864               	movf	??_main+2,w
  1361  0F90  00A2               	movwf	?_sprintf+2
  1362  0F91  30C1               	movlw	(low (_ContadorSend| 0))& (0+255)
  1363  0F92  120A  118A  212A  120A  158A  	fcall	_sprintf
  1364  0F97                     l2617:
  1365                           
  1366                           ;main.c: 116:         PORTBbits.RB1 = 1;
  1367  0F97  3021               	movlw	(low ((STR_3-__stringbase)| (0+32768)))& (0+255)
  1368  0F98  1283               	bcf	3,5	;RP0=0, select bank0
  1369  0F99  1303               	bcf	3,6	;RP1=0, select bank0
  1370  0F9A  00E2               	movwf	??_main
  1371  0F9B  0862               	movf	??_main,w
  1372  0F9C  00A0               	movwf	sprintf@f
  1373  0F9D  0866               	movf	_Potenciometro+1,w
  1374  0F9E  00A2               	movwf	?_sprintf+2
  1375  0F9F  0865               	movf	_Potenciometro,w
  1376  0FA0  00A1               	movwf	?_sprintf+1
  1377  0FA1  30BC               	movlw	(low (_PotenciometroSend| 0))& (0+255)
  1378  0FA2  120A  118A  212A  120A  158A  	fcall	_sprintf
  1379  0FA7                     l2619:
  1380                           
  1381                           ;main.c: 117:         _delay((unsigned long)((100)*(8000000/4000.0)));
  1382  0FA7  301C               	movlw	(low ((STR_2-__stringbase)| (0+32768)))& (0+255)
  1383  0FA8  1283               	bcf	3,5	;RP0=0, select bank0
  1384  0FA9  1303               	bcf	3,6	;RP1=0, select bank0
  1385  0FAA  00E2               	movwf	??_main
  1386  0FAB  0862               	movf	??_main,w
  1387  0FAC  00A0               	movwf	sprintf@f
  1388  0FAD  0869               	movf	_Temperatura,w
  1389  0FAE  00E3               	movwf	??_main+1
  1390  0FAF  01E4               	clrf	??_main+2
  1391  0FB0  0863               	movf	??_main+1,w
  1392  0FB1  00A1               	movwf	?_sprintf+1
  1393  0FB2  0864               	movf	??_main+2,w
  1394  0FB3  00A2               	movwf	?_sprintf+2
  1395  0FB4  30B7               	movlw	(low (_TemperaturaSend| 0))& (0+255)
  1396  0FB5  120A  118A  212A  120A  158A  	fcall	_sprintf
  1397  0FBA                     l2621:
  1398                           
  1399                           ;main.c: 118:         SSbit1 = 3;
  1400  0FBA  30C0               	movlw	192
  1401  0FBB  120A  158A  239A  120A  158A  	fcall	_lcd_cmd
  1402  0FC0                     l2623:
  1403                           
  1404                           ;main.c: 120:     if (SSbit1 == 3) {
  1405  0FC0  30BC               	movlw	(low (_PotenciometroSend| 0))& (0+255)
  1406  0FC1  00F3               	movwf	lcd_msg@c
  1407  0FC2  3000               	movlw	0
  1408  0FC3  00F4               	movwf	lcd_msg@c+1
  1409  0FC4  120A  158A  245A  120A  158A  	fcall	_lcd_msg
  1410  0FC9                     l2625:
  1411                           
  1412                           ;main.c: 122:         PORTBbits.RB1 = 1;
  1413  0FC9  3026               	movlw	(low ((STR_5-__stringbase)| (0+32768)))& (0+255)
  1414  0FCA  00F3               	movwf	lcd_msg@c
  1415  0FCB  3080               	movlw	128
  1416  0FCC  00F4               	movwf	lcd_msg@c+1
  1417  0FCD  120A  158A  245A  120A  158A  	fcall	_lcd_msg
  1418  0FD2                     l2627:
  1419                           
  1420                           ;main.c: 124:         _delay((unsigned long)((1)*(8000000/4000.0)));
  1421  0FD2  30C1               	movlw	(low (_ContadorSend| 0))& (0+255)
  1422  0FD3  00F3               	movwf	lcd_msg@c
  1423  0FD4  3000               	movlw	0
  1424  0FD5  00F4               	movwf	lcd_msg@c+1
  1425  0FD6  120A  158A  245A  120A  158A  	fcall	_lcd_msg
  1426  0FDB                     l2629:
  1427                           
  1428                           ;main.c: 125:         spiWrite(1);
  1429  0FDB  302B               	movlw	(low (((STR_7+1)-__stringbase)| (0+32768)))& (0+255)
  1430  0FDC  00F3               	movwf	lcd_msg@c
  1431  0FDD  3080               	movlw	128
  1432  0FDE  00F4               	movwf	lcd_msg@c+1
  1433  0FDF  120A  158A  245A  120A  158A  	fcall	_lcd_msg
  1434  0FE4                     l2631:
  1435                           
  1436                           ;main.c: 126:         TemperaturaLectura = spiRead();
  1437  0FE4  30B7               	movlw	(low (_TemperaturaSend| 0))& (0+255)
  1438  0FE5  00F3               	movwf	lcd_msg@c
  1439  0FE6  3000               	movlw	0
  1440  0FE7  00F4               	movwf	lcd_msg@c+1
  1441  0FE8  120A  158A  245A  120A  158A  	fcall	_lcd_msg
  1442  0FED                     l2633:
  1443                           
  1444                           ;main.c: 127:         Temperatura = (TemperaturaLectura * 125) / 250;
  1445  0FED  302A               	movlw	(low ((STR_7-__stringbase)| (0+32768)))& (0+255)
  1446  0FEE  00F3               	movwf	lcd_msg@c
  1447  0FEF  3080               	movlw	128
  1448  0FF0  00F4               	movwf	lcd_msg@c+1
  1449  0FF1  120A  158A  245A  120A  158A  	fcall	_lcd_msg
  1450  0FF6                     l2635:
  1451                           
  1452                           ;main.c: 132:     }
  1453  0FF6  30C1               	movlw	(low (_ContadorSend| 0))& (0+255)
  1454  0FF7  120A  158A  24A7  120A  158A  	fcall	_UART_Write_Text
  1455  0FFC  2F7F               	goto	l2613
  1456  0FFD  120A  118A  2800   	ljmp	start
  1457  1000                     __end_of_main:
  1458                           
  1459                           	psect	text1
  1460  012A                     __ptext1:	
  1461 ;; *************** function _sprintf *****************
  1462 ;; Defined at:
  1463 ;;		line 505 in file "C:\Program Files\Microchip\xc8\v2.31\pic\sources\c90\common\doprnt.c"
  1464 ;; Parameters:    Size  Location     Type
  1465 ;;  sp              1    wreg     PTR unsigned char 
  1466 ;;		 -> TemperaturaSend(5), PotenciometroSend(5), ContadorSend(5), 
  1467 ;;  f               1    0[BANK0 ] PTR const unsigned char 
  1468 ;;		 -> STR_4(5), STR_3(5), STR_2(5), 
  1469 ;; Auto vars:     Size  Location     Type
  1470 ;;  sp              1   10[BANK0 ] PTR unsigned char 
  1471 ;;		 -> TemperaturaSend(5), PotenciometroSend(5), ContadorSend(5), 
  1472 ;;  tmpval          4    0        struct .
  1473 ;;  val             2    8[BANK0 ] unsigned int 
  1474 ;;  cp              2    0        PTR const unsigned char 
  1475 ;;  len             2    0        unsigned int 
  1476 ;;  c               1   12[BANK0 ] unsigned char 
  1477 ;;  prec            1   11[BANK0 ] char 
  1478 ;;  flag            1    7[BANK0 ] unsigned char 
  1479 ;;  ap              1    6[BANK0 ] PTR void [1]
  1480 ;;		 -> ?_sprintf(2), 
  1481 ;; Return value:  Size  Location     Type
  1482 ;;                  2    0[BANK0 ] int 
  1483 ;; Registers used:
  1484 ;;		wreg, fsr0l, fsr0h, status,2, status,0, btemp+1, pclath, cstack
  1485 ;; Tracked objects:
  1486 ;;		On entry : 0/0
  1487 ;;		On exit  : 0/0
  1488 ;;		Unchanged: 0/0
  1489 ;; Data sizes:     COMMON   BANK0   BANK1   BANK3   BANK2
  1490 ;;      Params:         0       3       0       0       0
  1491 ;;      Locals:         0       7       0       0       0
  1492 ;;      Temps:          0       3       0       0       0
  1493 ;;      Totals:         0      13       0       0       0
  1494 ;;Total ram usage:       13 bytes
  1495 ;; Hardware stack levels used:    1
  1496 ;; Hardware stack levels required when called:    1
  1497 ;; This function calls:
  1498 ;;		___bmul
  1499 ;;		___lwdiv
  1500 ;;		___lwmod
  1501 ;;		_isdigit
  1502 ;; This function is called by:
  1503 ;;		_main
  1504 ;; This function uses a non-reentrant model
  1505 ;;
  1506                           
  1507                           
  1508                           ;psect for function _sprintf
  1509  012A                     _sprintf:
  1510                           
  1511                           ;incstack = 0
  1512                           ; Regs used in _sprintf: [wreg-fsr0h+status,2+status,0+btemp+1+pclath+cstack]
  1513                           ;sprintf@sp stored from wreg
  1514  012A  1283               	bcf	3,5	;RP0=0, select bank0
  1515  012B  1303               	bcf	3,6	;RP1=0, select bank0
  1516  012C  00AA               	movwf	sprintf@sp
  1517  012D                     l2463:
  1518                           
  1519                           ;C:\Program Files\Microchip\xc8\v2.31\pic\sources\c90\common\doprnt.c: 505: sprintf(char
      +                           * sp, const char * f, ...);C:\Program Files\Microchip\xc8\v2.31\pic\sources\c90\common\
      +                          doprnt.c: 506: {;C:\Program Files\Microchip\xc8\v2.31\pic\sources\c90\common\doprnt.c: 5
      +                          07:  va_list ap;;C:\Program Files\Microchip\xc8\v2.31\pic\sources\c90\common\doprnt.c: 5
      +                          12:  char c;;C:\Program Files\Microchip\xc8\v2.31\pic\sources\c90\common\doprnt.c: 521: 
      +                           signed char prec;;C:\Program Files\Microchip\xc8\v2.31\pic\sources\c90\common\doprnt.c:
      +                           525:  unsigned char flag;
  1520  012D  3021               	movlw	(low ((?_sprintf| 0+1)))& (0+255)
  1521  012E  00A3               	movwf	??_sprintf
  1522  012F  0823               	movf	??_sprintf,w
  1523  0130  00A6               	movwf	sprintf@ap
  1524                           
  1525                           ;C:\Program Files\Microchip\xc8\v2.31\pic\sources\c90\common\doprnt.c: 553:  while((c = 
      +                          *f++)) {
  1526  0131  2A76               	goto	l2541
  1527  0132                     l2465:
  1528                           
  1529                           ;C:\Program Files\Microchip\xc8\v2.31\pic\sources\c90\common\doprnt.c: 555:   if(c != '%
      +                          ')
  1530  0132  3025               	movlw	37
  1531  0133  062C               	xorwf	sprintf@c,w
  1532  0134  1903               	btfsc	3,2
  1533  0135  2937               	goto	u2791
  1534  0136  2938               	goto	u2790
  1535  0137                     u2791:
  1536  0137  2944               	goto	l2471
  1537  0138                     u2790:
  1538  0138                     l2467:
  1539                           
  1540                           ;C:\Program Files\Microchip\xc8\v2.31\pic\sources\c90\common\doprnt.c: 557:   {;C:\Progr
      +                          am Files\Microchip\xc8\v2.31\pic\sources\c90\common\doprnt.c: 558:    ((*sp++ = (c)));
  1541  0138  082C               	movf	sprintf@c,w
  1542  0139  00A3               	movwf	??_sprintf
  1543  013A  082A               	movf	sprintf@sp,w
  1544  013B  0084               	movwf	4
  1545  013C  0823               	movf	??_sprintf,w
  1546  013D  1383               	bcf	3,7	;select IRP bank0
  1547  013E  0080               	movwf	0
  1548  013F                     l2469:
  1549  013F  3001               	movlw	1
  1550  0140  00A3               	movwf	??_sprintf
  1551  0141  0823               	movf	??_sprintf,w
  1552  0142  07AA               	addwf	sprintf@sp,f
  1553                           
  1554                           ;C:\Program Files\Microchip\xc8\v2.31\pic\sources\c90\common\doprnt.c: 559:    continue;
  1555  0143  2A76               	goto	l2541
  1556  0144                     l2471:
  1557                           
  1558                           ;C:\Program Files\Microchip\xc8\v2.31\pic\sources\c90\common\doprnt.c: 565:   flag = 0;
  1559  0144  01A7               	clrf	sprintf@flag
  1560  0145                     l2473:
  1561                           
  1562                           ;C:\Program Files\Microchip\xc8\v2.31\pic\sources\c90\common\doprnt.c: 628:   if(*f == '
      +                          .') {
  1563  0145  0820               	movf	sprintf@f,w
  1564  0146  0084               	movwf	4
  1565  0147  120A  158A  200A  120A  118A  	fcall	stringdir
  1566  014C  3A2E               	xorlw	46
  1567  014D  1D03               	skipz
  1568  014E  2950               	goto	u2801
  1569  014F  2951               	goto	u2800
  1570  0150                     u2801:
  1571  0150  2988               	goto	l2487
  1572  0151                     u2800:
  1573  0151                     l2475:
  1574                           
  1575                           ;C:\Program Files\Microchip\xc8\v2.31\pic\sources\c90\common\doprnt.c: 630:    f++;
  1576  0151  3001               	movlw	1
  1577  0152  00A3               	movwf	??_sprintf
  1578  0153  0823               	movf	??_sprintf,w
  1579  0154  07A0               	addwf	sprintf@f,f
  1580  0155                     l2477:
  1581                           
  1582                           ;C:\Program Files\Microchip\xc8\v2.31\pic\sources\c90\common\doprnt.c: 644:    {;C:\Prog
      +                          ram Files\Microchip\xc8\v2.31\pic\sources\c90\common\doprnt.c: 645:     prec = 0;
  1583  0155  01AB               	clrf	sprintf@prec
  1584                           
  1585                           ;C:\Program Files\Microchip\xc8\v2.31\pic\sources\c90\common\doprnt.c: 646:     while(is
      +                          digit((unsigned)*f)) {
  1586  0156  2977               	goto	l2485
  1587  0157                     l2479:
  1588                           
  1589                           ;C:\Program Files\Microchip\xc8\v2.31\pic\sources\c90\common\doprnt.c: 647:      prec *=
      +                           10;
  1590  0157  1283               	bcf	3,5	;RP0=0, select bank0
  1591  0158  1303               	bcf	3,6	;RP1=0, select bank0
  1592  0159  082B               	movf	sprintf@prec,w
  1593  015A  00A3               	movwf	??_sprintf
  1594  015B  0823               	movf	??_sprintf,w
  1595  015C  00F0               	movwf	___bmul@multiplicand
  1596  015D  300A               	movlw	10
  1597  015E  120A  158A  23D0  120A  118A  	fcall	___bmul
  1598  0163  1283               	bcf	3,5	;RP0=0, select bank0
  1599  0164  1303               	bcf	3,6	;RP1=0, select bank0
  1600  0165  00A4               	movwf	??_sprintf+1
  1601  0166  0824               	movf	??_sprintf+1,w
  1602  0167  00AB               	movwf	sprintf@prec
  1603  0168                     l2481:
  1604                           
  1605                           ;C:\Program Files\Microchip\xc8\v2.31\pic\sources\c90\common\doprnt.c: 648:         prec
      +                           += *f++ - '0';
  1606  0168  0820               	movf	sprintf@f,w
  1607  0169  0084               	movwf	4
  1608  016A  120A  158A  200A  120A  118A  	fcall	stringdir
  1609  016F  3ED0               	addlw	-48
  1610  0170  00A3               	movwf	??_sprintf
  1611  0171  0823               	movf	??_sprintf,w
  1612  0172  07AB               	addwf	sprintf@prec,f
  1613  0173                     l2483:
  1614  0173  3001               	movlw	1
  1615  0174  00A3               	movwf	??_sprintf
  1616  0175  0823               	movf	??_sprintf,w
  1617  0176  07A0               	addwf	sprintf@f,f
  1618  0177                     l2485:
  1619                           
  1620                           ;C:\Program Files\Microchip\xc8\v2.31\pic\sources\c90\common\doprnt.c: 646:     while(is
      +                          digit((unsigned)*f)) {
  1621  0177  0820               	movf	sprintf@f,w
  1622  0178  0084               	movwf	4
  1623  0179  120A  158A  200A  120A  118A  	fcall	stringdir
  1624  017E  120A  158A  23BE  120A  118A  	fcall	_isdigit
  1625  0183  1803               	btfsc	3,0
  1626  0184  2986               	goto	u2811
  1627  0185  2987               	goto	u2810
  1628  0186                     u2811:
  1629  0186  2957               	goto	l2479
  1630  0187                     u2810:
  1631  0187  2989               	goto	l2491
  1632  0188                     l2487:
  1633                           
  1634                           ;C:\Program Files\Microchip\xc8\v2.31\pic\sources\c90\common\doprnt.c: 652:    prec = 0;
  1635  0188  01AB               	clrf	sprintf@prec
  1636  0189                     l2491:
  1637  0189  3001               	movlw	1
  1638  018A  1283               	bcf	3,5	;RP0=0, select bank0
  1639  018B  1303               	bcf	3,6	;RP1=0, select bank0
  1640  018C  07A0               	addwf	sprintf@f,f
  1641  018D  30FF               	movlw	-1
  1642  018E  0720               	addwf	sprintf@f,w
  1643  018F  0084               	movwf	4
  1644  0190  120A  158A  200A  120A  118A  	fcall	stringdir
  1645  0195  00AC               	movwf	sprintf@c
  1646  0196  00A3               	movwf	??_sprintf
  1647  0197  01A4               	clrf	??_sprintf+1
  1648                           
  1649                           ; Switch on 2 bytes has been partitioned into a top level switch of size 1, and 1 sub-sw
      +                          itches
  1650                           ; Switch size 1, requested type "simple"
  1651                           ; Number of cases is 1, Range of values is 0 to 0
  1652                           ; switch strategies available:
  1653                           ; Name         Instructions Cycles
  1654                           ; simple_byte            4     3 (average)
  1655                           ; direct_byte           11     8 (fixed)
  1656                           ; jumptable            260     6 (fixed)
  1657                           ;	Chosen strategy is simple_byte
  1658  0198  0824               	movf	??_sprintf+1,w
  1659  0199  3A00               	xorlw	0	; case 0
  1660  019A  1903               	skipnz
  1661  019B  299D               	goto	l2667
  1662  019C  2A76               	goto	l2541
  1663  019D                     l2667:
  1664                           
  1665                           ; Switch size 1, requested type "simple"
  1666                           ; Number of cases is 3, Range of values is 0 to 105
  1667                           ; switch strategies available:
  1668                           ; Name         Instructions Cycles
  1669                           ; simple_byte           10     6 (average)
  1670                           ; jumptable            260     6 (fixed)
  1671                           ;	Chosen strategy is simple_byte
  1672  019D  0823               	movf	??_sprintf,w
  1673  019E  3A00               	xorlw	0	; case 0
  1674  019F  1903               	skipnz
  1675  01A0  2A88               	goto	l2543
  1676  01A1  3A64               	xorlw	100	; case 100
  1677  01A2  1903               	skipnz
  1678  01A3  29A8               	goto	l2493
  1679  01A4  3A0D               	xorlw	13	; case 105
  1680  01A5  1903               	skipnz
  1681  01A6  29A8               	goto	l2493
  1682  01A7  2A76               	goto	l2541
  1683  01A8                     l2493:
  1684                           
  1685                           ;C:\Program Files\Microchip\xc8\v2.31\pic\sources\c90\common\doprnt.c: 1279:   {;C:\Prog
      +                          ram Files\Microchip\xc8\v2.31\pic\sources\c90\common\doprnt.c: 1285:     val = (unsigned
      +                           int)(*(int *)__va_arg((*(int **)ap), (int)0));
  1686  01A8  0826               	movf	sprintf@ap,w
  1687  01A9  0084               	movwf	4
  1688  01AA  1383               	bcf	3,7	;select IRP bank0
  1689  01AB  0800               	movf	0,w
  1690  01AC  00A8               	movwf	sprintf@val
  1691  01AD  0A84               	incf	4,f
  1692  01AE  0800               	movf	0,w
  1693  01AF  00A9               	movwf	sprintf@val+1
  1694  01B0                     l2495:
  1695  01B0  3002               	movlw	2
  1696  01B1  00A3               	movwf	??_sprintf
  1697  01B2  0823               	movf	??_sprintf,w
  1698  01B3  07A6               	addwf	sprintf@ap,f
  1699  01B4                     l2497:
  1700                           
  1701                           ;C:\Program Files\Microchip\xc8\v2.31\pic\sources\c90\common\doprnt.c: 1287:    if((int)
      +                          val < 0) {
  1702  01B4  1FA9               	btfss	sprintf@val+1,7
  1703  01B5  29B7               	goto	u2821
  1704  01B6  29B8               	goto	u2820
  1705  01B7                     u2821:
  1706  01B7  29C1               	goto	l2503
  1707  01B8                     u2820:
  1708  01B8                     l2499:
  1709                           
  1710                           ;C:\Program Files\Microchip\xc8\v2.31\pic\sources\c90\common\doprnt.c: 1288:     flag |=
      +                           0x03;
  1711  01B8  3003               	movlw	3
  1712  01B9  00A3               	movwf	??_sprintf
  1713  01BA  0823               	movf	??_sprintf,w
  1714  01BB  04A7               	iorwf	sprintf@flag,f
  1715  01BC                     l2501:
  1716                           
  1717                           ;C:\Program Files\Microchip\xc8\v2.31\pic\sources\c90\common\doprnt.c: 1289:     val = -
      +                          val;
  1718  01BC  09A8               	comf	sprintf@val,f
  1719  01BD  09A9               	comf	sprintf@val+1,f
  1720  01BE  0AA8               	incf	sprintf@val,f
  1721  01BF  1903               	skipnz
  1722  01C0  0AA9               	incf	sprintf@val+1,f
  1723  01C1                     l2503:
  1724                           
  1725                           ;C:\Program Files\Microchip\xc8\v2.31\pic\sources\c90\common\doprnt.c: 1292:   };C:\Prog
      +                          ram Files\Microchip\xc8\v2.31\pic\sources\c90\common\doprnt.c: 1316:   if(prec == 0 && v
      +                          al == 0)
  1726  01C1  082B               	movf	sprintf@prec,w
  1727  01C2  1D03               	btfss	3,2
  1728  01C3  29C5               	goto	u2831
  1729  01C4  29C6               	goto	u2830
  1730  01C5                     u2831:
  1731  01C5  29D0               	goto	l2509
  1732  01C6                     u2830:
  1733  01C6                     l2505:
  1734  01C6  0828               	movf	sprintf@val,w
  1735  01C7  0429               	iorwf	sprintf@val+1,w
  1736  01C8  1D03               	btfss	3,2
  1737  01C9  29CB               	goto	u2841
  1738  01CA  29CC               	goto	u2840
  1739  01CB                     u2841:
  1740  01CB  29D0               	goto	l2509
  1741  01CC                     u2840:
  1742  01CC                     l2507:
  1743                           
  1744                           ;C:\Program Files\Microchip\xc8\v2.31\pic\sources\c90\common\doprnt.c: 1317:    prec++;
  1745  01CC  3001               	movlw	1
  1746  01CD  00A3               	movwf	??_sprintf
  1747  01CE  0823               	movf	??_sprintf,w
  1748  01CF  07AB               	addwf	sprintf@prec,f
  1749  01D0                     l2509:
  1750                           
  1751                           ;C:\Program Files\Microchip\xc8\v2.31\pic\sources\c90\common\doprnt.c: 1331:    for(c = 
      +                          1 ; c != sizeof dpowers/sizeof dpowers[0] ; c++)
  1752  01D0  01AC               	clrf	sprintf@c
  1753  01D1  0AAC               	incf	sprintf@c,f
  1754  01D2                     l2513:
  1755                           
  1756                           ;C:\Program Files\Microchip\xc8\v2.31\pic\sources\c90\common\doprnt.c: 1332:     if(val 
      +                          < dpowers[c])
  1757  01D2  082C               	movf	sprintf@c,w
  1758  01D3  00A3               	movwf	??_sprintf
  1759  01D4  0723               	addwf	??_sprintf,w
  1760  01D5  3E01               	addlw	low ((_dpowers-__stringbase)| (0+32768))
  1761  01D6  0084               	movwf	4
  1762  01D7  120A  158A  200A  120A  118A  	fcall	stringdir
  1763  01DC  00A4               	movwf	??_sprintf+1
  1764  01DD  120A  158A  200A  120A  118A  	fcall	stringdir
  1765  01E2  00A5               	movwf	??_sprintf+2
  1766  01E3  0825               	movf	??_sprintf+2,w
  1767  01E4  0229               	subwf	sprintf@val+1,w
  1768  01E5  1D03               	skipz
  1769  01E6  29E9               	goto	u2855
  1770  01E7  0824               	movf	??_sprintf+1,w
  1771  01E8  0228               	subwf	sprintf@val,w
  1772  01E9                     u2855:
  1773  01E9  1803               	skipnc
  1774  01EA  29EC               	goto	u2851
  1775  01EB  29ED               	goto	u2850
  1776  01EC                     u2851:
  1777  01EC  29EE               	goto	l2517
  1778  01ED                     u2850:
  1779  01ED  29F8               	goto	l2519
  1780  01EE                     l2517:
  1781  01EE  3001               	movlw	1
  1782  01EF  00A3               	movwf	??_sprintf
  1783  01F0  0823               	movf	??_sprintf,w
  1784  01F1  07AC               	addwf	sprintf@c,f
  1785  01F2  3005               	movlw	5
  1786  01F3  062C               	xorwf	sprintf@c,w
  1787  01F4  1D03               	btfss	3,2
  1788  01F5  29F7               	goto	u2861
  1789  01F6  29F8               	goto	u2860
  1790  01F7                     u2861:
  1791  01F7  29D2               	goto	l2513
  1792  01F8                     u2860:
  1793  01F8                     l2519:
  1794                           
  1795                           ;C:\Program Files\Microchip\xc8\v2.31\pic\sources\c90\common\doprnt.c: 1365:   if(c < pr
      +                          ec)
  1796  01F8  082B               	movf	sprintf@prec,w
  1797  01F9  00A3               	movwf	??_sprintf
  1798  01FA  01A4               	clrf	??_sprintf+1
  1799  01FB  1BA3               	btfsc	??_sprintf,7
  1800  01FC  03A4               	decf	??_sprintf+1,f
  1801  01FD  0824               	movf	??_sprintf+1,w
  1802  01FE  3A80               	xorlw	128
  1803  01FF  3C80               	sublw	128
  1804  0200  1D03               	skipz
  1805  0201  2A04               	goto	u2875
  1806  0202  0823               	movf	??_sprintf,w
  1807  0203  022C               	subwf	sprintf@c,w
  1808  0204                     u2875:
  1809  0204  1803               	skipnc
  1810  0205  2A07               	goto	u2871
  1811  0206  2A08               	goto	u2870
  1812  0207                     u2871:
  1813  0207  2A09               	goto	l2523
  1814  0208                     u2870:
  1815  0208                     l2521:
  1816  0208  2A23               	goto	l2527
  1817  0209                     l2523:
  1818  0209  1283               	bcf	3,5	;RP0=0, select bank0
  1819  020A  1303               	bcf	3,6	;RP1=0, select bank0
  1820  020B  082B               	movf	sprintf@prec,w
  1821  020C  00A3               	movwf	??_sprintf
  1822  020D  01A4               	clrf	??_sprintf+1
  1823  020E  1BA3               	btfsc	??_sprintf,7
  1824  020F  03A4               	decf	??_sprintf+1,f
  1825  0210  0824               	movf	??_sprintf+1,w
  1826  0211  3A80               	xorlw	128
  1827  0212  00A5               	movwf	??_sprintf+2
  1828  0213  3080               	movlw	128
  1829  0214  0225               	subwf	??_sprintf+2,w
  1830  0215  1D03               	skipz
  1831  0216  2A19               	goto	u2885
  1832  0217  082C               	movf	sprintf@c,w
  1833  0218  0223               	subwf	??_sprintf,w
  1834  0219                     u2885:
  1835  0219  1803               	skipnc
  1836  021A  2A1C               	goto	u2881
  1837  021B  2A1D               	goto	u2880
  1838  021C                     u2881:
  1839  021C  2A23               	goto	l2527
  1840  021D                     u2880:
  1841  021D                     l2525:
  1842                           
  1843                           ;C:\Program Files\Microchip\xc8\v2.31\pic\sources\c90\common\doprnt.c: 1368:    prec = c
      +                          ;
  1844  021D  1283               	bcf	3,5	;RP0=0, select bank0
  1845  021E  1303               	bcf	3,6	;RP1=0, select bank0
  1846  021F  082C               	movf	sprintf@c,w
  1847  0220  00A3               	movwf	??_sprintf
  1848  0221  0823               	movf	??_sprintf,w
  1849  0222  00AB               	movwf	sprintf@prec
  1850  0223                     l2527:
  1851                           
  1852                           ;C:\Program Files\Microchip\xc8\v2.31\pic\sources\c90\common\doprnt.c: 1448:   {;C:\Prog
      +                          ram Files\Microchip\xc8\v2.31\pic\sources\c90\common\doprnt.c: 1464:    if(flag & 0x03)
  1853  0223  1283               	bcf	3,5	;RP0=0, select bank0
  1854  0224  1303               	bcf	3,6	;RP1=0, select bank0
  1855  0225  0827               	movf	sprintf@flag,w
  1856  0226  3903               	andlw	3
  1857  0227  1903               	btfsc	3,2
  1858  0228  2A2A               	goto	u2891
  1859  0229  2A2B               	goto	u2890
  1860  022A                     u2891:
  1861  022A  2A6D               	goto	l2539
  1862  022B                     u2890:
  1863  022B                     l2529:
  1864                           
  1865                           ;C:\Program Files\Microchip\xc8\v2.31\pic\sources\c90\common\doprnt.c: 1465:     ((*sp++
      +                           = ('-')));
  1866  022B  302D               	movlw	45
  1867  022C  00A3               	movwf	??_sprintf
  1868  022D  082A               	movf	sprintf@sp,w
  1869  022E  0084               	movwf	4
  1870  022F  0823               	movf	??_sprintf,w
  1871  0230  1383               	bcf	3,7	;select IRP bank0
  1872  0231  0080               	movwf	0
  1873  0232                     l2531:
  1874  0232  3001               	movlw	1
  1875  0233  00A3               	movwf	??_sprintf
  1876  0234  0823               	movf	??_sprintf,w
  1877  0235  07AA               	addwf	sprintf@sp,f
  1878  0236  2A6D               	goto	l2539
  1879  0237                     l2533:
  1880                           
  1881                           ;C:\Program Files\Microchip\xc8\v2.31\pic\sources\c90\common\doprnt.c: 1504:    {;C:\Pro
      +                          gram Files\Microchip\xc8\v2.31\pic\sources\c90\common\doprnt.c: 1515:     c = (val / dpo
      +                          wers[(unsigned char)prec]) % 10 + '0';
  1882  0237  300A               	movlw	10
  1883  0238  00F8               	movwf	___lwmod@divisor
  1884  0239  3000               	movlw	0
  1885  023A  00F9               	movwf	___lwmod@divisor+1
  1886  023B  082B               	movf	sprintf@prec,w
  1887  023C  00A3               	movwf	??_sprintf
  1888  023D  0723               	addwf	??_sprintf,w
  1889  023E  3E01               	addlw	low ((_dpowers-__stringbase)| (0+32768))
  1890  023F  0084               	movwf	4
  1891  0240  120A  158A  200A  120A  118A  	fcall	stringdir
  1892  0245  00F0               	movwf	___lwdiv@divisor
  1893  0246  120A  158A  200A  120A  118A  	fcall	stringdir
  1894  024B  00F1               	movwf	___lwdiv@divisor+1
  1895  024C  0829               	movf	sprintf@val+1,w
  1896  024D  00F3               	movwf	___lwdiv@dividend+1
  1897  024E  0828               	movf	sprintf@val,w
  1898  024F  00F2               	movwf	___lwdiv@dividend
  1899  0250  120A  158A  2508  120A  118A  	fcall	___lwdiv
  1900  0255  0871               	movf	?___lwdiv+1,w
  1901  0256  00FB               	movwf	___lwmod@dividend+1
  1902  0257  0870               	movf	?___lwdiv,w
  1903  0258  00FA               	movwf	___lwmod@dividend
  1904  0259  120A  158A  24CE  120A  118A  	fcall	___lwmod
  1905  025E  0878               	movf	?___lwmod,w
  1906  025F  3E30               	addlw	48
  1907  0260  1283               	bcf	3,5	;RP0=0, select bank0
  1908  0261  1303               	bcf	3,6	;RP1=0, select bank0
  1909  0262  00A4               	movwf	??_sprintf+1
  1910  0263  0824               	movf	??_sprintf+1,w
  1911  0264  00AC               	movwf	sprintf@c
  1912  0265                     l2535:
  1913                           
  1914                           ;C:\Program Files\Microchip\xc8\v2.31\pic\sources\c90\common\doprnt.c: 1549:    };C:\Pro
      +                          gram Files\Microchip\xc8\v2.31\pic\sources\c90\common\doprnt.c: 1550:    ((*sp++ = (c)))
      +                          ;
  1915  0265  082C               	movf	sprintf@c,w
  1916  0266  00A3               	movwf	??_sprintf
  1917  0267  082A               	movf	sprintf@sp,w
  1918  0268  0084               	movwf	4
  1919  0269  0823               	movf	??_sprintf,w
  1920  026A  1383               	bcf	3,7	;select IRP bank0
  1921  026B  0080               	movwf	0
  1922  026C  2A32               	goto	l2531
  1923  026D                     l2539:
  1924                           
  1925                           ;C:\Program Files\Microchip\xc8\v2.31\pic\sources\c90\common\doprnt.c: 1500:   while(pre
      +                          c--) {
  1926  026D  30FF               	movlw	255
  1927  026E  00A3               	movwf	??_sprintf
  1928  026F  0823               	movf	??_sprintf,w
  1929  0270  07AB               	addwf	sprintf@prec,f
  1930  0271  0A2B               	incf	sprintf@prec,w
  1931  0272  1D03               	btfss	3,2
  1932  0273  2A75               	goto	u2901
  1933  0274  2A76               	goto	u2900
  1934  0275                     u2901:
  1935  0275  2A37               	goto	l2533
  1936  0276                     u2900:
  1937  0276                     l2541:
  1938                           
  1939                           ;C:\Program Files\Microchip\xc8\v2.31\pic\sources\c90\common\doprnt.c: 553:  while((c = 
      +                          *f++)) {
  1940  0276  3001               	movlw	1
  1941  0277  07A0               	addwf	sprintf@f,f
  1942  0278  30FF               	movlw	-1
  1943  0279  0720               	addwf	sprintf@f,w
  1944  027A  0084               	movwf	4
  1945  027B  120A  158A  200A  120A  118A  	fcall	stringdir
  1946  0280  00A3               	movwf	??_sprintf
  1947  0281  0823               	movf	??_sprintf,w
  1948  0282  00AC               	movwf	sprintf@c
  1949  0283  082C               	movf	sprintf@c,w
  1950  0284  1D03               	btfss	3,2
  1951  0285  2A87               	goto	u2911
  1952  0286  2A88               	goto	u2910
  1953  0287                     u2911:
  1954  0287  2932               	goto	l2465
  1955  0288                     u2910:
  1956  0288                     l2543:
  1957                           
  1958                           ;C:\Program Files\Microchip\xc8\v2.31\pic\sources\c90\common\doprnt.c: 1564:  *sp = 0;
  1959  0288  082A               	movf	sprintf@sp,w
  1960  0289  0084               	movwf	4
  1961  028A  1383               	bcf	3,7	;select IRP bank0
  1962  028B  0180               	clrf	0
  1963  028C                     l368:
  1964  028C  0008               	return
  1965  028D                     __end_of_sprintf:
  1966                           
  1967                           	psect	text2
  1968  0BBE                     __ptext2:	
  1969 ;; *************** function _isdigit *****************
  1970 ;; Defined at:
  1971 ;;		line 8 in file "C:\Program Files\Microchip\xc8\v2.31\pic\sources\c90\common\isdigit.c"
  1972 ;; Parameters:    Size  Location     Type
  1973 ;;  c               1    wreg     unsigned char 
  1974 ;; Auto vars:     Size  Location     Type
  1975 ;;  c               1    1[COMMON] unsigned char 
  1976 ;; Return value:  Size  Location     Type
  1977 ;;		None               void
  1978 ;; Registers used:
  1979 ;;		wreg, status,2, status,0
  1980 ;; Tracked objects:
  1981 ;;		On entry : 0/0
  1982 ;;		On exit  : 0/0
  1983 ;;		Unchanged: 0/0
  1984 ;; Data sizes:     COMMON   BANK0   BANK1   BANK3   BANK2
  1985 ;;      Params:         0       0       0       0       0
  1986 ;;      Locals:         2       0       0       0       0
  1987 ;;      Temps:          0       0       0       0       0
  1988 ;;      Totals:         2       0       0       0       0
  1989 ;;Total ram usage:        2 bytes
  1990 ;; Hardware stack levels used:    1
  1991 ;; This function calls:
  1992 ;;		Nothing
  1993 ;; This function is called by:
  1994 ;;		_sprintf
  1995 ;; This function uses a non-reentrant model
  1996 ;;
  1997                           
  1998                           
  1999                           ;psect for function _isdigit
  2000  0BBE                     _isdigit:
  2001                           
  2002                           ;incstack = 0
  2003                           ; Regs used in _isdigit: [wreg+status,2+status,0]
  2004                           ;isdigit@c stored from wreg
  2005  0BBE  00F1               	movwf	isdigit@c
  2006  0BBF                     l2231:
  2007  0BBF  01F0               	clrf	_isdigit$1224
  2008  0BC0                     l2233:
  2009  0BC0  303A               	movlw	58
  2010  0BC1  0271               	subwf	isdigit@c,w
  2011  0BC2  1803               	skipnc
  2012  0BC3  2BC5               	goto	u2441
  2013  0BC4  2BC6               	goto	u2440
  2014  0BC5                     u2441:
  2015  0BC5  2BCE               	goto	l2239
  2016  0BC6                     u2440:
  2017  0BC6                     l2235:
  2018  0BC6  3030               	movlw	48
  2019  0BC7  0271               	subwf	isdigit@c,w
  2020  0BC8  1C03               	skipc
  2021  0BC9  2BCB               	goto	u2451
  2022  0BCA  2BCC               	goto	u2450
  2023  0BCB                     u2451:
  2024  0BCB  2BCE               	goto	l2239
  2025  0BCC                     u2450:
  2026  0BCC                     l2237:
  2027  0BCC  01F0               	clrf	_isdigit$1224
  2028  0BCD  0AF0               	incf	_isdigit$1224,f
  2029  0BCE                     l2239:
  2030  0BCE  0C70               	rrf	_isdigit$1224,w
  2031  0BCF                     l825:
  2032  0BCF  0008               	return
  2033  0BD0                     __end_of_isdigit:
  2034                           
  2035                           	psect	text3
  2036  0CCE                     __ptext3:	
  2037 ;; *************** function ___lwmod *****************
  2038 ;; Defined at:
  2039 ;;		line 5 in file "C:\Program Files\Microchip\xc8\v2.31\pic\sources\c90\common\lwmod.c"
  2040 ;; Parameters:    Size  Location     Type
  2041 ;;  divisor         2    8[COMMON] unsigned int 
  2042 ;;  dividend        2   10[COMMON] unsigned int 
  2043 ;; Auto vars:     Size  Location     Type
  2044 ;;  counter         1   13[COMMON] unsigned char 
  2045 ;; Return value:  Size  Location     Type
  2046 ;;                  2    8[COMMON] unsigned int 
  2047 ;; Registers used:
  2048 ;;		wreg, status,2, status,0
  2049 ;; Tracked objects:
  2050 ;;		On entry : 0/0
  2051 ;;		On exit  : 0/0
  2052 ;;		Unchanged: 0/0
  2053 ;; Data sizes:     COMMON   BANK0   BANK1   BANK3   BANK2
  2054 ;;      Params:         4       0       0       0       0
  2055 ;;      Locals:         1       0       0       0       0
  2056 ;;      Temps:          1       0       0       0       0
  2057 ;;      Totals:         6       0       0       0       0
  2058 ;;Total ram usage:        6 bytes
  2059 ;; Hardware stack levels used:    1
  2060 ;; This function calls:
  2061 ;;		Nothing
  2062 ;; This function is called by:
  2063 ;;		_sprintf
  2064 ;; This function uses a non-reentrant model
  2065 ;;
  2066                           
  2067                           
  2068                           ;psect for function ___lwmod
  2069  0CCE                     ___lwmod:
  2070  0CCE                     l2341:	
  2071                           ;incstack = 0
  2072                           ; Regs used in ___lwmod: [wreg+status,2+status,0]
  2073                           
  2074  0CCE  0878               	movf	___lwmod@divisor,w
  2075  0CCF  0479               	iorwf	___lwmod@divisor+1,w
  2076  0CD0  1903               	btfsc	3,2
  2077  0CD1  2CD3               	goto	u2691
  2078  0CD2  2CD4               	goto	u2690
  2079  0CD3                     u2691:
  2080  0CD3  2D03               	goto	l2359
  2081  0CD4                     u2690:
  2082  0CD4                     l2343:
  2083  0CD4  01FD               	clrf	___lwmod@counter
  2084  0CD5  0AFD               	incf	___lwmod@counter,f
  2085  0CD6  2CE2               	goto	l2349
  2086  0CD7                     l2345:
  2087  0CD7  3001               	movlw	1
  2088  0CD8                     u2705:
  2089  0CD8  1003               	clrc
  2090  0CD9  0DF8               	rlf	___lwmod@divisor,f
  2091  0CDA  0DF9               	rlf	___lwmod@divisor+1,f
  2092  0CDB  3EFF               	addlw	-1
  2093  0CDC  1D03               	skipz
  2094  0CDD  2CD8               	goto	u2705
  2095  0CDE                     l2347:
  2096  0CDE  3001               	movlw	1
  2097  0CDF  00FC               	movwf	??___lwmod
  2098  0CE0  087C               	movf	??___lwmod,w
  2099  0CE1  07FD               	addwf	___lwmod@counter,f
  2100  0CE2                     l2349:
  2101  0CE2  1FF9               	btfss	___lwmod@divisor+1,7
  2102  0CE3  2CE5               	goto	u2711
  2103  0CE4  2CE6               	goto	u2710
  2104  0CE5                     u2711:
  2105  0CE5  2CD7               	goto	l2345
  2106  0CE6                     u2710:
  2107  0CE6                     l2351:
  2108  0CE6  0879               	movf	___lwmod@divisor+1,w
  2109  0CE7  027B               	subwf	___lwmod@dividend+1,w
  2110  0CE8  1D03               	skipz
  2111  0CE9  2CEC               	goto	u2725
  2112  0CEA  0878               	movf	___lwmod@divisor,w
  2113  0CEB  027A               	subwf	___lwmod@dividend,w
  2114  0CEC                     u2725:
  2115  0CEC  1C03               	skipc
  2116  0CED  2CEF               	goto	u2721
  2117  0CEE  2CF0               	goto	u2720
  2118  0CEF                     u2721:
  2119  0CEF  2CF6               	goto	l2355
  2120  0CF0                     u2720:
  2121  0CF0                     l2353:
  2122  0CF0  0878               	movf	___lwmod@divisor,w
  2123  0CF1  02FA               	subwf	___lwmod@dividend,f
  2124  0CF2  0879               	movf	___lwmod@divisor+1,w
  2125  0CF3  1C03               	skipc
  2126  0CF4  03FB               	decf	___lwmod@dividend+1,f
  2127  0CF5  02FB               	subwf	___lwmod@dividend+1,f
  2128  0CF6                     l2355:
  2129  0CF6  3001               	movlw	1
  2130  0CF7                     u2735:
  2131  0CF7  1003               	clrc
  2132  0CF8  0CF9               	rrf	___lwmod@divisor+1,f
  2133  0CF9  0CF8               	rrf	___lwmod@divisor,f
  2134  0CFA  3EFF               	addlw	-1
  2135  0CFB  1D03               	skipz
  2136  0CFC  2CF7               	goto	u2735
  2137  0CFD                     l2357:
  2138  0CFD  3001               	movlw	1
  2139  0CFE  02FD               	subwf	___lwmod@counter,f
  2140  0CFF  1D03               	btfss	3,2
  2141  0D00  2D02               	goto	u2741
  2142  0D01  2D03               	goto	u2740
  2143  0D02                     u2741:
  2144  0D02  2CE6               	goto	l2351
  2145  0D03                     u2740:
  2146  0D03                     l2359:
  2147  0D03  087B               	movf	___lwmod@dividend+1,w
  2148  0D04  00F9               	movwf	?___lwmod+1
  2149  0D05  087A               	movf	___lwmod@dividend,w
  2150  0D06  00F8               	movwf	?___lwmod
  2151  0D07                     l654:
  2152  0D07  0008               	return
  2153  0D08                     __end_of___lwmod:
  2154                           
  2155                           	psect	text4
  2156  0D08                     __ptext4:	
  2157 ;; *************** function ___lwdiv *****************
  2158 ;; Defined at:
  2159 ;;		line 5 in file "C:\Program Files\Microchip\xc8\v2.31\pic\sources\c90\common\lwdiv.c"
  2160 ;; Parameters:    Size  Location     Type
  2161 ;;  divisor         2    0[COMMON] unsigned int 
  2162 ;;  dividend        2    2[COMMON] unsigned int 
  2163 ;; Auto vars:     Size  Location     Type
  2164 ;;  quotient        2    5[COMMON] unsigned int 
  2165 ;;  counter         1    7[COMMON] unsigned char 
  2166 ;; Return value:  Size  Location     Type
  2167 ;;                  2    0[COMMON] unsigned int 
  2168 ;; Registers used:
  2169 ;;		wreg, status,2, status,0
  2170 ;; Tracked objects:
  2171 ;;		On entry : 0/0
  2172 ;;		On exit  : 0/0
  2173 ;;		Unchanged: 0/0
  2174 ;; Data sizes:     COMMON   BANK0   BANK1   BANK3   BANK2
  2175 ;;      Params:         4       0       0       0       0
  2176 ;;      Locals:         3       0       0       0       0
  2177 ;;      Temps:          1       0       0       0       0
  2178 ;;      Totals:         8       0       0       0       0
  2179 ;;Total ram usage:        8 bytes
  2180 ;; Hardware stack levels used:    1
  2181 ;; This function calls:
  2182 ;;		Nothing
  2183 ;; This function is called by:
  2184 ;;		_sprintf
  2185 ;; This function uses a non-reentrant model
  2186 ;;
  2187                           
  2188                           
  2189                           ;psect for function ___lwdiv
  2190  0D08                     ___lwdiv:
  2191  0D08                     l2315:	
  2192                           ;incstack = 0
  2193                           ; Regs used in ___lwdiv: [wreg+status,2+status,0]
  2194                           
  2195  0D08  01F5               	clrf	___lwdiv@quotient
  2196  0D09  01F6               	clrf	___lwdiv@quotient+1
  2197  0D0A                     l2317:
  2198  0D0A  0870               	movf	___lwdiv@divisor,w
  2199  0D0B  0471               	iorwf	___lwdiv@divisor+1,w
  2200  0D0C  1903               	btfsc	3,2
  2201  0D0D  2D0F               	goto	u2621
  2202  0D0E  2D10               	goto	u2620
  2203  0D0F                     u2621:
  2204  0D0F  2D47               	goto	l2337
  2205  0D10                     u2620:
  2206  0D10                     l2319:
  2207  0D10  01F7               	clrf	___lwdiv@counter
  2208  0D11  0AF7               	incf	___lwdiv@counter,f
  2209  0D12  2D1E               	goto	l2325
  2210  0D13                     l2321:
  2211  0D13  3001               	movlw	1
  2212  0D14                     u2635:
  2213  0D14  1003               	clrc
  2214  0D15  0DF0               	rlf	___lwdiv@divisor,f
  2215  0D16  0DF1               	rlf	___lwdiv@divisor+1,f
  2216  0D17  3EFF               	addlw	-1
  2217  0D18  1D03               	skipz
  2218  0D19  2D14               	goto	u2635
  2219  0D1A                     l2323:
  2220  0D1A  3001               	movlw	1
  2221  0D1B  00F4               	movwf	??___lwdiv
  2222  0D1C  0874               	movf	??___lwdiv,w
  2223  0D1D  07F7               	addwf	___lwdiv@counter,f
  2224  0D1E                     l2325:
  2225  0D1E  1FF1               	btfss	___lwdiv@divisor+1,7
  2226  0D1F  2D21               	goto	u2641
  2227  0D20  2D22               	goto	u2640
  2228  0D21                     u2641:
  2229  0D21  2D13               	goto	l2321
  2230  0D22                     u2640:
  2231  0D22                     l2327:
  2232  0D22  3001               	movlw	1
  2233  0D23                     u2655:
  2234  0D23  1003               	clrc
  2235  0D24  0DF5               	rlf	___lwdiv@quotient,f
  2236  0D25  0DF6               	rlf	___lwdiv@quotient+1,f
  2237  0D26  3EFF               	addlw	-1
  2238  0D27  1D03               	skipz
  2239  0D28  2D23               	goto	u2655
  2240  0D29  0871               	movf	___lwdiv@divisor+1,w
  2241  0D2A  0273               	subwf	___lwdiv@dividend+1,w
  2242  0D2B  1D03               	skipz
  2243  0D2C  2D2F               	goto	u2665
  2244  0D2D  0870               	movf	___lwdiv@divisor,w
  2245  0D2E  0272               	subwf	___lwdiv@dividend,w
  2246  0D2F                     u2665:
  2247  0D2F  1C03               	skipc
  2248  0D30  2D32               	goto	u2661
  2249  0D31  2D33               	goto	u2660
  2250  0D32                     u2661:
  2251  0D32  2D3A               	goto	l2333
  2252  0D33                     u2660:
  2253  0D33                     l2329:
  2254  0D33  0870               	movf	___lwdiv@divisor,w
  2255  0D34  02F2               	subwf	___lwdiv@dividend,f
  2256  0D35  0871               	movf	___lwdiv@divisor+1,w
  2257  0D36  1C03               	skipc
  2258  0D37  03F3               	decf	___lwdiv@dividend+1,f
  2259  0D38  02F3               	subwf	___lwdiv@dividend+1,f
  2260  0D39                     l2331:
  2261  0D39  1475               	bsf	___lwdiv@quotient,0
  2262  0D3A                     l2333:
  2263  0D3A  3001               	movlw	1
  2264  0D3B                     u2675:
  2265  0D3B  1003               	clrc
  2266  0D3C  0CF1               	rrf	___lwdiv@divisor+1,f
  2267  0D3D  0CF0               	rrf	___lwdiv@divisor,f
  2268  0D3E  3EFF               	addlw	-1
  2269  0D3F  1D03               	skipz
  2270  0D40  2D3B               	goto	u2675
  2271  0D41                     l2335:
  2272  0D41  3001               	movlw	1
  2273  0D42  02F7               	subwf	___lwdiv@counter,f
  2274  0D43  1D03               	btfss	3,2
  2275  0D44  2D46               	goto	u2681
  2276  0D45  2D47               	goto	u2680
  2277  0D46                     u2681:
  2278  0D46  2D22               	goto	l2327
  2279  0D47                     u2680:
  2280  0D47                     l2337:
  2281  0D47  0876               	movf	___lwdiv@quotient+1,w
  2282  0D48  00F1               	movwf	?___lwdiv+1
  2283  0D49  0875               	movf	___lwdiv@quotient,w
  2284  0D4A  00F0               	movwf	?___lwdiv
  2285  0D4B                     l644:
  2286  0D4B  0008               	return
  2287  0D4C                     __end_of___lwdiv:
  2288                           
  2289                           	psect	text5
  2290  0BD0                     __ptext5:	
  2291 ;; *************** function ___bmul *****************
  2292 ;; Defined at:
  2293 ;;		line 4 in file "C:\Program Files\Microchip\xc8\v2.31\pic\sources\c90\common\Umul8.c"
  2294 ;; Parameters:    Size  Location     Type
  2295 ;;  multiplier      1    wreg     unsigned char 
  2296 ;;  multiplicand    1    0[COMMON] unsigned char 
  2297 ;; Auto vars:     Size  Location     Type
  2298 ;;  multiplier      1    3[COMMON] unsigned char 
  2299 ;;  product         1    2[COMMON] unsigned char 
  2300 ;; Return value:  Size  Location     Type
  2301 ;;                  1    wreg      unsigned char 
  2302 ;; Registers used:
  2303 ;;		wreg, status,2, status,0
  2304 ;; Tracked objects:
  2305 ;;		On entry : 0/0
  2306 ;;		On exit  : 0/0
  2307 ;;		Unchanged: 0/0
  2308 ;; Data sizes:     COMMON   BANK0   BANK1   BANK3   BANK2
  2309 ;;      Params:         1       0       0       0       0
  2310 ;;      Locals:         2       0       0       0       0
  2311 ;;      Temps:          1       0       0       0       0
  2312 ;;      Totals:         4       0       0       0       0
  2313 ;;Total ram usage:        4 bytes
  2314 ;; Hardware stack levels used:    1
  2315 ;; This function calls:
  2316 ;;		Nothing
  2317 ;; This function is called by:
  2318 ;;		_sprintf
  2319 ;; This function uses a non-reentrant model
  2320 ;;
  2321                           
  2322                           
  2323                           ;psect for function ___bmul
  2324  0BD0                     ___bmul:
  2325                           
  2326                           ;incstack = 0
  2327                           ; Regs used in ___bmul: [wreg+status,2+status,0]
  2328                           ;___bmul@multiplier stored from wreg
  2329  0BD0  00F3               	movwf	___bmul@multiplier
  2330  0BD1                     l2257:
  2331  0BD1  01F2               	clrf	___bmul@product
  2332  0BD2                     l2259:
  2333  0BD2  1C73               	btfss	___bmul@multiplier,0
  2334  0BD3  2BD5               	goto	u2501
  2335  0BD4  2BD6               	goto	u2500
  2336  0BD5                     u2501:
  2337  0BD5  2BDA               	goto	l2263
  2338  0BD6                     u2500:
  2339  0BD6                     l2261:
  2340  0BD6  0870               	movf	___bmul@multiplicand,w
  2341  0BD7  00F1               	movwf	??___bmul
  2342  0BD8  0871               	movf	??___bmul,w
  2343  0BD9  07F2               	addwf	___bmul@product,f
  2344  0BDA                     l2263:
  2345  0BDA  1003               	clrc
  2346  0BDB  0DF0               	rlf	___bmul@multiplicand,f
  2347  0BDC                     l2265:
  2348  0BDC  1003               	clrc
  2349  0BDD  0CF3               	rrf	___bmul@multiplier,f
  2350  0BDE  0873               	movf	___bmul@multiplier,w
  2351  0BDF  1D03               	btfss	3,2
  2352  0BE0  2BE2               	goto	u2511
  2353  0BE1  2BE3               	goto	u2510
  2354  0BE2                     u2511:
  2355  0BE2  2BD2               	goto	l2259
  2356  0BE3                     u2510:
  2357  0BE3                     l2267:
  2358  0BE3  0872               	movf	___bmul@product,w
  2359  0BE4                     l398:
  2360  0BE4  0008               	return
  2361  0BE5                     __end_of___bmul:
  2362                           
  2363                           	psect	text6
  2364  0C5A                     __ptext6:	
  2365 ;; *************** function _lcd_msg *****************
  2366 ;; Defined at:
  2367 ;;		line 53 in file "LCD.c"
  2368 ;; Parameters:    Size  Location     Type
  2369 ;;  c               2    3[COMMON] PTR unsigned char 
  2370 ;;		 -> STR_7(3), STR_6(2), STR_5(4), TemperaturaSend(5), 
  2371 ;;		 -> PotenciometroSend(5), ContadorSend(5), STR_1(17), 
  2372 ;; Auto vars:     Size  Location     Type
  2373 ;;		None
  2374 ;; Return value:  Size  Location     Type
  2375 ;;                  1    wreg      void 
  2376 ;; Registers used:
  2377 ;;		wreg, fsr0l, fsr0h, status,2, status,0, btemp+1, pclath, cstack
  2378 ;; Tracked objects:
  2379 ;;		On entry : 0/0
  2380 ;;		On exit  : 0/0
  2381 ;;		Unchanged: 0/0
  2382 ;; Data sizes:     COMMON   BANK0   BANK1   BANK3   BANK2
  2383 ;;      Params:         2       0       0       0       0
  2384 ;;      Locals:         0       0       0       0       0
  2385 ;;      Temps:          0       0       0       0       0
  2386 ;;      Totals:         2       0       0       0       0
  2387 ;;Total ram usage:        2 bytes
  2388 ;; Hardware stack levels used:    1
  2389 ;; Hardware stack levels required when called:    2
  2390 ;; This function calls:
  2391 ;;		_lcd_dwr
  2392 ;; This function is called by:
  2393 ;;		_main
  2394 ;; This function uses a non-reentrant model
  2395 ;;
  2396                           
  2397                           
  2398                           ;psect for function _lcd_msg
  2399  0C5A                     _lcd_msg:
  2400  0C5A                     l2363:	
  2401                           ;incstack = 0
  2402                           ; Regs used in _lcd_msg: [wreg-fsr0h+status,2+status,0+btemp+1+pclath+cstack]
  2403                           
  2404                           
  2405                           ;LCD.c: 54:     while(*c != 0)
  2406  0C5A  2C6F               	goto	l2369
  2407  0C5B                     l2365:
  2408                           
  2409                           ;LCD.c: 55:         lcd_dwr(*c++);
  2410  0C5B  0874               	movf	lcd_msg@c+1,w
  2411  0C5C  00FF               	movwf	btemp+1
  2412  0C5D  0873               	movf	lcd_msg@c,w
  2413  0C5E  0084               	movwf	4
  2414  0C5F  120A  158A  2000  120A  158A  	fcall	stringtab
  2415  0C64  120A  158A  23AC  120A  158A  	fcall	_lcd_dwr
  2416  0C69                     l2367:
  2417  0C69  3001               	movlw	1
  2418  0C6A  07F3               	addwf	lcd_msg@c,f
  2419  0C6B  1803               	skipnc
  2420  0C6C  0AF4               	incf	lcd_msg@c+1,f
  2421  0C6D  3000               	movlw	0
  2422  0C6E  07F4               	addwf	lcd_msg@c+1,f
  2423  0C6F                     l2369:
  2424                           
  2425                           ;LCD.c: 54:     while(*c != 0)
  2426  0C6F  0874               	movf	lcd_msg@c+1,w
  2427  0C70  1283               	bcf	3,5	;RP0=0, select bank0
  2428  0C71  1303               	bcf	3,6	;RP1=0, select bank0
  2429  0C72  00FF               	movwf	btemp+1
  2430  0C73  0873               	movf	lcd_msg@c,w
  2431  0C74  0084               	movwf	4
  2432  0C75  120A  158A  2000  120A  158A  	fcall	stringtab
  2433  0C7A  3A00               	xorlw	0
  2434  0C7B  1D03               	skipz
  2435  0C7C  2C7E               	goto	u2751
  2436  0C7D  2C7F               	goto	u2750
  2437  0C7E                     u2751:
  2438  0C7E  2C5B               	goto	l2365
  2439  0C7F                     u2750:
  2440  0C7F                     l34:
  2441  0C7F  0008               	return
  2442  0C80                     __end_of_lcd_msg:
  2443                           
  2444                           	psect	text7
  2445  0BAC                     __ptext7:	
  2446 ;; *************** function _lcd_dwr *****************
  2447 ;; Defined at:
  2448 ;;		line 45 in file "LCD.c"
  2449 ;; Parameters:    Size  Location     Type
  2450 ;;  x               1    wreg     unsigned char 
  2451 ;; Auto vars:     Size  Location     Type
  2452 ;;  x               1    2[COMMON] unsigned char 
  2453 ;; Return value:  Size  Location     Type
  2454 ;;                  1    wreg      void 
  2455 ;; Registers used:
  2456 ;;		wreg, status,2, status,0, pclath, cstack
  2457 ;; Tracked objects:
  2458 ;;		On entry : 0/0
  2459 ;;		On exit  : 0/0
  2460 ;;		Unchanged: 0/0
  2461 ;; Data sizes:     COMMON   BANK0   BANK1   BANK3   BANK2
  2462 ;;      Params:         0       0       0       0       0
  2463 ;;      Locals:         1       0       0       0       0
  2464 ;;      Temps:          0       0       0       0       0
  2465 ;;      Totals:         1       0       0       0       0
  2466 ;;Total ram usage:        1 bytes
  2467 ;; Hardware stack levels used:    1
  2468 ;; Hardware stack levels required when called:    1
  2469 ;; This function calls:
  2470 ;;		_lcd_lat
  2471 ;;		_lcd_ready
  2472 ;; This function is called by:
  2473 ;;		_lcd_msg
  2474 ;; This function uses a non-reentrant model
  2475 ;;
  2476                           
  2477                           
  2478                           ;psect for function _lcd_dwr
  2479  0BAC                     _lcd_dwr:
  2480                           
  2481                           ;incstack = 0
  2482                           ; Regs used in _lcd_dwr: [wreg+status,2+status,0+pclath+cstack]
  2483                           ;lcd_dwr@x stored from wreg
  2484  0BAC  00F2               	movwf	lcd_dwr@x
  2485  0BAD                     l2205:
  2486                           
  2487                           ;LCD.c: 46:     lcd_ready();
  2488  0BAD  120A  118A  2007  120A  158A  	fcall	_lcd_ready
  2489  0BB2                     l2207:
  2490                           
  2491                           ;LCD.c: 47:     PORTD = x;
  2492  0BB2  0872               	movf	lcd_dwr@x,w
  2493  0BB3  1283               	bcf	3,5	;RP0=0, select bank0
  2494  0BB4  1303               	bcf	3,6	;RP1=0, select bank0
  2495  0BB5  0088               	movwf	8	;volatile
  2496  0BB6                     l2209:
  2497                           
  2498                           ;LCD.c: 48:     RE0 = 1;
  2499  0BB6  1409               	bsf	9,0	;volatile
  2500  0BB7                     l2211:
  2501                           
  2502                           ;LCD.c: 49:     RE1 = 0;
  2503  0BB7  1089               	bcf	9,1	;volatile
  2504  0BB8                     l2213:
  2505                           
  2506                           ;LCD.c: 50:     lcd_lat();
  2507  0BB8  120A  158A  238B  120A  158A  	fcall	_lcd_lat
  2508  0BBD                     l28:
  2509  0BBD  0008               	return
  2510  0BBE                     __end_of_lcd_dwr:
  2511                           
  2512                           	psect	text8
  2513  0C16                     __ptext8:	
  2514 ;; *************** function _inicializacion *****************
  2515 ;; Defined at:
  2516 ;;		line 58 in file "LCD.c"
  2517 ;; Parameters:    Size  Location     Type
  2518 ;;		None
  2519 ;; Auto vars:     Size  Location     Type
  2520 ;;		None
  2521 ;; Return value:  Size  Location     Type
  2522 ;;                  1    wreg      void 
  2523 ;; Registers used:
  2524 ;;		wreg, status,2, status,0, pclath, cstack
  2525 ;; Tracked objects:
  2526 ;;		On entry : 0/0
  2527 ;;		On exit  : 0/0
  2528 ;;		Unchanged: 0/0
  2529 ;; Data sizes:     COMMON   BANK0   BANK1   BANK3   BANK2
  2530 ;;      Params:         0       0       0       0       0
  2531 ;;      Locals:         0       0       0       0       0
  2532 ;;      Temps:          0       0       0       0       0
  2533 ;;      Totals:         0       0       0       0       0
  2534 ;;Total ram usage:        0 bytes
  2535 ;; Hardware stack levels used:    1
  2536 ;; Hardware stack levels required when called:    2
  2537 ;; This function calls:
  2538 ;;		_lcd_cmd
  2539 ;; This function is called by:
  2540 ;;		_main
  2541 ;; This function uses a non-reentrant model
  2542 ;;
  2543                           
  2544                           
  2545                           ;psect for function _inicializacion
  2546  0C16                     _inicializacion:
  2547  0C16                     l2371:	
  2548                           ;incstack = 0
  2549                           ; Regs used in _inicializacion: [wreg+status,2+status,0+pclath+cstack]
  2550                           
  2551                           
  2552                           ;LCD.c: 59:     lcd_cmd(0x38);
  2553  0C16  3038               	movlw	56
  2554  0C17  120A  158A  239A  120A  158A  	fcall	_lcd_cmd
  2555                           
  2556                           ;LCD.c: 60:     lcd_cmd(0x0C);
  2557  0C1C  300C               	movlw	12
  2558  0C1D  120A  158A  239A  120A  158A  	fcall	_lcd_cmd
  2559                           
  2560                           ;LCD.c: 61:     lcd_cmd(0x01);
  2561  0C22  3001               	movlw	1
  2562  0C23  120A  158A  239A  120A  158A  	fcall	_lcd_cmd
  2563                           
  2564                           ;LCD.c: 62:     lcd_cmd(0x06);
  2565  0C28  3006               	movlw	6
  2566  0C29  120A  158A  239A  120A  158A  	fcall	_lcd_cmd
  2567                           
  2568                           ;LCD.c: 63:     lcd_cmd(0x80);
  2569  0C2E  3080               	movlw	128
  2570  0C2F  120A  158A  239A  120A  158A  	fcall	_lcd_cmd
  2571  0C34                     l37:
  2572  0C34  0008               	return
  2573  0C35                     __end_of_inicializacion:
  2574                           
  2575                           	psect	text9
  2576  0B9A                     __ptext9:	
  2577 ;; *************** function _lcd_cmd *****************
  2578 ;; Defined at:
  2579 ;;		line 15 in file "LCD.c"
  2580 ;; Parameters:    Size  Location     Type
  2581 ;;  x               1    wreg     unsigned char 
  2582 ;; Auto vars:     Size  Location     Type
  2583 ;;  x               1    2[COMMON] unsigned char 
  2584 ;; Return value:  Size  Location     Type
  2585 ;;                  1    wreg      void 
  2586 ;; Registers used:
  2587 ;;		wreg, status,2, status,0, pclath, cstack
  2588 ;; Tracked objects:
  2589 ;;		On entry : 0/0
  2590 ;;		On exit  : 0/0
  2591 ;;		Unchanged: 0/0
  2592 ;; Data sizes:     COMMON   BANK0   BANK1   BANK3   BANK2
  2593 ;;      Params:         0       0       0       0       0
  2594 ;;      Locals:         1       0       0       0       0
  2595 ;;      Temps:          0       0       0       0       0
  2596 ;;      Totals:         1       0       0       0       0
  2597 ;;Total ram usage:        1 bytes
  2598 ;; Hardware stack levels used:    1
  2599 ;; Hardware stack levels required when called:    1
  2600 ;; This function calls:
  2601 ;;		_lcd_lat
  2602 ;;		_lcd_ready
  2603 ;; This function is called by:
  2604 ;;		_inicializacion
  2605 ;;		_main
  2606 ;; This function uses a non-reentrant model
  2607 ;;
  2608                           
  2609                           
  2610                           ;psect for function _lcd_cmd
  2611  0B9A                     _lcd_cmd:
  2612                           
  2613                           ;incstack = 0
  2614                           ; Regs used in _lcd_cmd: [wreg+status,2+status,0+pclath+cstack]
  2615                           ;lcd_cmd@x stored from wreg
  2616  0B9A  00F2               	movwf	lcd_cmd@x
  2617  0B9B                     l2195:
  2618                           
  2619                           ;LCD.c: 16:     lcd_ready();
  2620  0B9B  120A  118A  2007  120A  158A  	fcall	_lcd_ready
  2621  0BA0                     l2197:
  2622                           
  2623                           ;LCD.c: 17:     PORTD = x;
  2624  0BA0  0872               	movf	lcd_cmd@x,w
  2625  0BA1  1283               	bcf	3,5	;RP0=0, select bank0
  2626  0BA2  1303               	bcf	3,6	;RP1=0, select bank0
  2627  0BA3  0088               	movwf	8	;volatile
  2628  0BA4                     l2199:
  2629                           
  2630                           ;LCD.c: 18:     RE0 = 0;
  2631  0BA4  1009               	bcf	9,0	;volatile
  2632  0BA5                     l2201:
  2633                           
  2634                           ;LCD.c: 19:     RE1 = 0;
  2635  0BA5  1089               	bcf	9,1	;volatile
  2636  0BA6                     l2203:
  2637                           
  2638                           ;LCD.c: 20:     lcd_lat();
  2639  0BA6  120A  158A  238B  120A  158A  	fcall	_lcd_lat
  2640  0BAB                     l17:
  2641  0BAB  0008               	return
  2642  0BAC                     __end_of_lcd_cmd:
  2643                           
  2644                           	psect	text10
  2645  0007                     __ptext10:	
  2646 ;; *************** function _lcd_ready *****************
  2647 ;; Defined at:
  2648 ;;		line 28 in file "LCD.c"
  2649 ;; Parameters:    Size  Location     Type
  2650 ;;		None
  2651 ;; Auto vars:     Size  Location     Type
  2652 ;;		None
  2653 ;; Return value:  Size  Location     Type
  2654 ;;                  1    wreg      void 
  2655 ;; Registers used:
  2656 ;;		wreg, status,2, status,0
  2657 ;; Tracked objects:
  2658 ;;		On entry : 0/0
  2659 ;;		On exit  : 0/0
  2660 ;;		Unchanged: 0/0
  2661 ;; Data sizes:     COMMON   BANK0   BANK1   BANK3   BANK2
  2662 ;;      Params:         0       0       0       0       0
  2663 ;;      Locals:         0       0       0       0       0
  2664 ;;      Temps:          2       0       0       0       0
  2665 ;;      Totals:         2       0       0       0       0
  2666 ;;Total ram usage:        2 bytes
  2667 ;; Hardware stack levels used:    1
  2668 ;; This function calls:
  2669 ;;		Nothing
  2670 ;; This function is called by:
  2671 ;;		_lcd_cmd
  2672 ;;		_lcd_dwr
  2673 ;; This function uses a non-reentrant model
  2674 ;;
  2675                           
  2676                           
  2677                           ;psect for function _lcd_ready
  2678  0007                     _lcd_ready:
  2679  0007                     l1807:	
  2680                           ;incstack = 0
  2681                           ; Regs used in _lcd_ready: [wreg+status,2+status,0]
  2682                           
  2683                           
  2684                           ;LCD.c: 29:     PORTD = 0xFF;
  2685  0007  30FF               	movlw	255
  2686  0008  1283               	bcf	3,5	;RP0=0, select bank0
  2687  0009  1303               	bcf	3,6	;RP1=0, select bank0
  2688  000A  0088               	movwf	8	;volatile
  2689  000B                     l1809:
  2690                           
  2691                           ;LCD.c: 30:     PORTD &= 0x80;
  2692  000B  3080               	movlw	128
  2693  000C  00F0               	movwf	??_lcd_ready
  2694  000D  0870               	movf	??_lcd_ready,w
  2695  000E  0588               	andwf	8,f	;volatile
  2696  000F                     l1811:
  2697                           
  2698                           ;LCD.c: 31:     RE0 = 0;
  2699  000F  1009               	bcf	9,0	;volatile
  2700  0010                     l1813:
  2701                           
  2702                           ;LCD.c: 32:     RE1 = 1;
  2703  0010  1489               	bsf	9,1	;volatile
  2704  0011                     l1815:
  2705                           
  2706                           ;LCD.c: 33:     RE2 = 0;
  2707  0011  1109               	bcf	9,2	;volatile
  2708  0012                     l1817:
  2709                           
  2710                           ;LCD.c: 34:     _delay((unsigned long)((30)*(4000000/4000.0)));
  2711  0012  3027               	movlw	39
  2712  0013  00F1               	movwf	??_lcd_ready+1
  2713  0014  30F5               	movlw	245
  2714  0015  00F0               	movwf	??_lcd_ready
  2715  0016                     u2937:
  2716  0016  0BF0               	decfsz	??_lcd_ready,f
  2717  0017  2816               	goto	u2937
  2718  0018  0BF1               	decfsz	??_lcd_ready+1,f
  2719  0019  2816               	goto	u2937
  2720  001A                     l1819:
  2721                           
  2722                           ;LCD.c: 35:     RE2 = 1;
  2723  001A  1283               	bcf	3,5	;RP0=0, select bank0
  2724  001B  1303               	bcf	3,6	;RP1=0, select bank0
  2725  001C  1509               	bsf	9,2	;volatile
  2726                           
  2727                           ;LCD.c: 36:     if (PORTD == 0x80){
  2728  001D  3080               	movlw	128
  2729  001E  0608               	xorwf	8,w	;volatile
  2730  001F  1D03               	btfss	3,2
  2731  0020  2822               	goto	u1511
  2732  0021  2823               	goto	u1510
  2733  0022                     u1511:
  2734  0022  282F               	goto	l25
  2735  0023                     u1510:
  2736  0023                     l1821:
  2737                           
  2738                           ;LCD.c: 37:     RE2 = 0;
  2739  0023  1109               	bcf	9,2	;volatile
  2740  0024                     l1823:
  2741                           
  2742                           ;LCD.c: 38:     _delay((unsigned long)((30)*(4000000/4000.0)));
  2743  0024  3027               	movlw	39
  2744  0025  00F1               	movwf	??_lcd_ready+1
  2745  0026  30F5               	movlw	245
  2746  0027  00F0               	movwf	??_lcd_ready
  2747  0028                     u2947:
  2748  0028  0BF0               	decfsz	??_lcd_ready,f
  2749  0029  2828               	goto	u2947
  2750  002A  0BF1               	decfsz	??_lcd_ready+1,f
  2751  002B  2828               	goto	u2947
  2752  002C                     l1825:
  2753                           
  2754                           ;LCD.c: 39:     RE2 = 1;
  2755  002C  1283               	bcf	3,5	;RP0=0, select bank0
  2756  002D  1303               	bcf	3,6	;RP1=0, select bank0
  2757  002E  1509               	bsf	9,2	;volatile
  2758  002F                     l25:	
  2759                           ;LCD.c: 40:     }
  2760                           
  2761  002F  0008               	return
  2762  0030                     __end_of_lcd_ready:
  2763                           
  2764                           	psect	text11
  2765  0B8B                     __ptext11:	
  2766 ;; *************** function _lcd_lat *****************
  2767 ;; Defined at:
  2768 ;;		line 23 in file "LCD.c"
  2769 ;; Parameters:    Size  Location     Type
  2770 ;;		None
  2771 ;; Auto vars:     Size  Location     Type
  2772 ;;		None
  2773 ;; Return value:  Size  Location     Type
  2774 ;;                  1    wreg      void 
  2775 ;; Registers used:
  2776 ;;		wreg
  2777 ;; Tracked objects:
  2778 ;;		On entry : 0/0
  2779 ;;		On exit  : 0/0
  2780 ;;		Unchanged: 0/0
  2781 ;; Data sizes:     COMMON   BANK0   BANK1   BANK3   BANK2
  2782 ;;      Params:         0       0       0       0       0
  2783 ;;      Locals:         0       0       0       0       0
  2784 ;;      Temps:          2       0       0       0       0
  2785 ;;      Totals:         2       0       0       0       0
  2786 ;;Total ram usage:        2 bytes
  2787 ;; Hardware stack levels used:    1
  2788 ;; This function calls:
  2789 ;;		Nothing
  2790 ;; This function is called by:
  2791 ;;		_lcd_cmd
  2792 ;;		_lcd_dwr
  2793 ;; This function uses a non-reentrant model
  2794 ;;
  2795                           
  2796                           
  2797                           ;psect for function _lcd_lat
  2798  0B8B                     _lcd_lat:
  2799  0B8B                     l1827:	
  2800                           ;incstack = 0
  2801                           ; Regs used in _lcd_lat: [wreg]
  2802                           
  2803                           
  2804                           ;LCD.c: 24:     RE2 = 1;
  2805  0B8B  1283               	bcf	3,5	;RP0=0, select bank0
  2806  0B8C  1303               	bcf	3,6	;RP1=0, select bank0
  2807  0B8D  1509               	bsf	9,2	;volatile
  2808  0B8E                     l1829:
  2809                           
  2810                           ;LCD.c: 25:    _delay((unsigned long)((30)*(4000000/4000.0)));
  2811  0B8E  3027               	movlw	39
  2812  0B8F  00F1               	movwf	??_lcd_lat+1
  2813  0B90  30F5               	movlw	245
  2814  0B91  00F0               	movwf	??_lcd_lat
  2815  0B92                     u2957:
  2816  0B92  0BF0               	decfsz	??_lcd_lat,f
  2817  0B93  2B92               	goto	u2957
  2818  0B94  0BF1               	decfsz	??_lcd_lat+1,f
  2819  0B95  2B92               	goto	u2957
  2820  0B96                     l1831:
  2821                           
  2822                           ;LCD.c: 26:    RE2 = 0;
  2823  0B96  1283               	bcf	3,5	;RP0=0, select bank0
  2824  0B97  1303               	bcf	3,6	;RP1=0, select bank0
  2825  0B98  1109               	bcf	9,2	;volatile
  2826  0B99                     l20:
  2827  0B99  0008               	return
  2828  0B9A                     __end_of_lcd_lat:
  2829                           
  2830                           	psect	text12
  2831  0CA7                     __ptext12:	
  2832 ;; *************** function _UART_Write_Text *****************
  2833 ;; Defined at:
  2834 ;;		line 39 in file "eusart.c"
  2835 ;; Parameters:    Size  Location     Type
  2836 ;;  text            1    wreg     PTR unsigned char 
  2837 ;;		 -> ContadorSend(5), 
  2838 ;; Auto vars:     Size  Location     Type
  2839 ;;  text            1    7[COMMON] PTR unsigned char 
  2840 ;;		 -> ContadorSend(5), 
  2841 ;;  i               2    5[COMMON] int 
  2842 ;; Return value:  Size  Location     Type
  2843 ;;                  1    wreg      void 
  2844 ;; Registers used:
  2845 ;;		wreg, fsr0l, fsr0h, status,2, status,0, pclath, cstack
  2846 ;; Tracked objects:
  2847 ;;		On entry : 0/0
  2848 ;;		On exit  : 0/0
  2849 ;;		Unchanged: 0/0
  2850 ;; Data sizes:     COMMON   BANK0   BANK1   BANK3   BANK2
  2851 ;;      Params:         0       0       0       0       0
  2852 ;;      Locals:         3       0       0       0       0
  2853 ;;      Temps:          3       0       0       0       0
  2854 ;;      Totals:         6       0       0       0       0
  2855 ;;Total ram usage:        6 bytes
  2856 ;; Hardware stack levels used:    1
  2857 ;; Hardware stack levels required when called:    1
  2858 ;; This function calls:
  2859 ;;		_UART_WRITE
  2860 ;; This function is called by:
  2861 ;;		_main
  2862 ;; This function uses a non-reentrant model
  2863 ;;
  2864                           
  2865                           
  2866                           ;psect for function _UART_Write_Text
  2867  0CA7                     _UART_Write_Text:
  2868                           
  2869                           ;incstack = 0
  2870                           ; Regs used in _UART_Write_Text: [wreg-fsr0h+status,2+status,0+pclath+cstack]
  2871                           ;UART_Write_Text@text stored from wreg
  2872  0CA7  00F7               	movwf	UART_Write_Text@text
  2873  0CA8                     l2553:
  2874                           
  2875                           ;eusart.c: 39: void UART_Write_Text(char *text);eusart.c: 40: {;eusart.c: 41:   int i;;e
      +                          usart.c: 42:   for(i=0;text[i]!='\0';i++)
  2876  0CA8  01F5               	clrf	UART_Write_Text@i
  2877  0CA9  01F6               	clrf	UART_Write_Text@i+1
  2878  0CAA  2CC2               	goto	l2559
  2879  0CAB                     l2555:
  2880                           
  2881                           ;eusart.c: 43:    UART_WRITE(text[i]);
  2882  0CAB  0875               	movf	UART_Write_Text@i,w
  2883  0CAC  0777               	addwf	UART_Write_Text@text,w
  2884  0CAD  00F2               	movwf	??_UART_Write_Text
  2885  0CAE  0872               	movf	??_UART_Write_Text,w
  2886  0CAF  0084               	movwf	4
  2887  0CB0  0800               	movf	0,w
  2888  0CB1  00F3               	movwf	??_UART_Write_Text+1
  2889  0CB2  01F4               	clrf	??_UART_Write_Text+2
  2890  0CB3  0873               	movf	??_UART_Write_Text+1,w
  2891  0CB4  00F0               	movwf	UART_WRITE@data
  2892  0CB5  0874               	movf	??_UART_Write_Text+2,w
  2893  0CB6  00F1               	movwf	UART_WRITE@data+1
  2894  0CB7  120A  158A  2380  120A  158A  	fcall	_UART_WRITE
  2895  0CBC                     l2557:
  2896  0CBC  3001               	movlw	1
  2897  0CBD  07F5               	addwf	UART_Write_Text@i,f
  2898  0CBE  1803               	skipnc
  2899  0CBF  0AF6               	incf	UART_Write_Text@i+1,f
  2900  0CC0  3000               	movlw	0
  2901  0CC1  07F6               	addwf	UART_Write_Text@i+1,f
  2902  0CC2                     l2559:
  2903  0CC2  0875               	movf	UART_Write_Text@i,w
  2904  0CC3  0777               	addwf	UART_Write_Text@text,w
  2905  0CC4  00F2               	movwf	??_UART_Write_Text
  2906  0CC5  0872               	movf	??_UART_Write_Text,w
  2907  0CC6  0084               	movwf	4
  2908  0CC7  1383               	bcf	3,7	;select IRP bank0
  2909  0CC8  0800               	movf	0,w
  2910  0CC9  1D03               	btfss	3,2
  2911  0CCA  2CCC               	goto	u2921
  2912  0CCB  2CCD               	goto	u2920
  2913  0CCC                     u2921:
  2914  0CCC  2CAB               	goto	l2555
  2915  0CCD                     u2920:
  2916  0CCD                     l197:
  2917  0CCD  0008               	return
  2918  0CCE                     __end_of_UART_Write_Text:
  2919                           
  2920                           	psect	text13
  2921  0B80                     __ptext13:	
  2922 ;; *************** function _UART_WRITE *****************
  2923 ;; Defined at:
  2924 ;;		line 25 in file "eusart.c"
  2925 ;; Parameters:    Size  Location     Type
  2926 ;;  data            2    0[COMMON] int 
  2927 ;; Auto vars:     Size  Location     Type
  2928 ;;		None
  2929 ;; Return value:  Size  Location     Type
  2930 ;;                  1    wreg      void 
  2931 ;; Registers used:
  2932 ;;		wreg
  2933 ;; Tracked objects:
  2934 ;;		On entry : 0/0
  2935 ;;		On exit  : 0/0
  2936 ;;		Unchanged: 0/0
  2937 ;; Data sizes:     COMMON   BANK0   BANK1   BANK3   BANK2
  2938 ;;      Params:         2       0       0       0       0
  2939 ;;      Locals:         0       0       0       0       0
  2940 ;;      Temps:          0       0       0       0       0
  2941 ;;      Totals:         2       0       0       0       0
  2942 ;;Total ram usage:        2 bytes
  2943 ;; Hardware stack levels used:    1
  2944 ;; This function calls:
  2945 ;;		Nothing
  2946 ;; This function is called by:
  2947 ;;		_UART_Write_Text
  2948 ;; This function uses a non-reentrant model
  2949 ;;
  2950                           
  2951                           
  2952                           ;psect for function _UART_WRITE
  2953  0B80                     _UART_WRITE:
  2954  0B80                     l2227:	
  2955                           ;incstack = 0
  2956                           ; Regs used in _UART_WRITE: [wreg]
  2957                           
  2958  0B80                     l182:	
  2959                           ;eusart.c: 26:   while(!TXSTAbits.TRMT);
  2960                           
  2961  0B80  1683               	bsf	3,5	;RP0=1, select bank1
  2962  0B81  1303               	bcf	3,6	;RP1=0, select bank1
  2963  0B82  1C98               	btfss	24,1	;volatile
  2964  0B83  2B85               	goto	u2431
  2965  0B84  2B86               	goto	u2430
  2966  0B85                     u2431:
  2967  0B85  2B80               	goto	l182
  2968  0B86                     u2430:
  2969  0B86                     l2229:
  2970                           
  2971                           ;eusart.c: 27:   TXREG = data;
  2972  0B86  0870               	movf	UART_WRITE@data,w
  2973  0B87  1283               	bcf	3,5	;RP0=0, select bank0
  2974  0B88  1303               	bcf	3,6	;RP1=0, select bank0
  2975  0B89  0099               	movwf	25	;volatile
  2976  0B8A                     l185:
  2977  0B8A  0008               	return
  2978  0B8B                     __end_of_UART_WRITE:
  2979                           
  2980                           	psect	text14
  2981  0BFD                     __ptext14:	
  2982 ;; *************** function _UART_INIT *****************
  2983 ;; Defined at:
  2984 ;;		line 5 in file "eusart.c"
  2985 ;; Parameters:    Size  Location     Type
  2986 ;;		None
  2987 ;; Auto vars:     Size  Location     Type
  2988 ;;		None
  2989 ;; Return value:  Size  Location     Type
  2990 ;;                  1    wreg      void 
  2991 ;; Registers used:
  2992 ;;		wreg, status,2
  2993 ;; Tracked objects:
  2994 ;;		On entry : 0/0
  2995 ;;		On exit  : 0/0
  2996 ;;		Unchanged: 0/0
  2997 ;; Data sizes:     COMMON   BANK0   BANK1   BANK3   BANK2
  2998 ;;      Params:         0       0       0       0       0
  2999 ;;      Locals:         0       0       0       0       0
  3000 ;;      Temps:          0       0       0       0       0
  3001 ;;      Totals:         0       0       0       0       0
  3002 ;;Total ram usage:        0 bytes
  3003 ;; Hardware stack levels used:    1
  3004 ;; This function calls:
  3005 ;;		Nothing
  3006 ;; This function is called by:
  3007 ;;		_main
  3008 ;; This function uses a non-reentrant model
  3009 ;;
  3010                           
  3011                           
  3012                           ;psect for function _UART_INIT
  3013  0BFD                     _UART_INIT:
  3014  0BFD                     l2391:	
  3015                           ;incstack = 0
  3016                           ; Regs used in _UART_INIT: [wreg+status,2]
  3017                           
  3018                           
  3019                           ;eusart.c: 7:     INTCONbits.GIE = 1;
  3020  0BFD  178B               	bsf	11,7	;volatile
  3021                           
  3022                           ;eusart.c: 8:     INTCONbits.PEIE = 1;
  3023  0BFE  170B               	bsf	11,6	;volatile
  3024                           
  3025                           ;eusart.c: 9:     PIE1bits.RCIE = 1;
  3026  0BFF  1683               	bsf	3,5	;RP0=1, select bank1
  3027  0C00  1303               	bcf	3,6	;RP1=0, select bank1
  3028  0C01  168C               	bsf	12,5	;volatile
  3029                           
  3030                           ;eusart.c: 10:     PIE1bits.TXIE = 1;
  3031  0C02  160C               	bsf	12,4	;volatile
  3032                           
  3033                           ;eusart.c: 12:     PIR1bits.RCIF = 0;
  3034  0C03  1283               	bcf	3,5	;RP0=0, select bank0
  3035  0C04  1303               	bcf	3,6	;RP1=0, select bank0
  3036  0C05  128C               	bcf	12,5	;volatile
  3037                           
  3038                           ;eusart.c: 13:     PIR1bits.TXIF = 0;
  3039  0C06  120C               	bcf	12,4	;volatile
  3040  0C07                     l2393:
  3041                           
  3042                           ;eusart.c: 14:     SPBRGH = 0;
  3043  0C07  1683               	bsf	3,5	;RP0=1, select bank1
  3044  0C08  1303               	bcf	3,6	;RP1=0, select bank1
  3045  0C09  019A               	clrf	26	;volatile
  3046  0C0A                     l2395:
  3047                           
  3048                           ;eusart.c: 15:     SPBRG = 25;
  3049  0C0A  3019               	movlw	25
  3050  0C0B  0099               	movwf	25	;volatile
  3051  0C0C                     l2397:
  3052                           
  3053                           ;eusart.c: 16:     TXSTA = 0b00100100;
  3054  0C0C  3024               	movlw	36
  3055  0C0D  0098               	movwf	24	;volatile
  3056  0C0E                     l2399:
  3057                           
  3058                           ;eusart.c: 17:     RCSTA = 0b10010000;
  3059  0C0E  3090               	movlw	144
  3060  0C0F  1283               	bcf	3,5	;RP0=0, select bank0
  3061  0C10  1303               	bcf	3,6	;RP1=0, select bank0
  3062  0C11  0098               	movwf	24	;volatile
  3063  0C12                     l2401:
  3064                           
  3065                           ;eusart.c: 18:     BAUDCTLbits.BRG16 = 0;
  3066  0C12  1683               	bsf	3,5	;RP0=1, select bank3
  3067  0C13  1703               	bsf	3,6	;RP1=1, select bank3
  3068  0C14  1187               	bcf	7,3	;volatile
  3069  0C15                     l175:
  3070  0C15  0008               	return
  3071  0C16                     __end_of_UART_INIT:
  3072                           
  3073                           	psect	text15
  3074  0BE5                     __ptext15:	
  3075 ;; *************** function _SPIMaster *****************
  3076 ;; Defined at:
  3077 ;;		line 26 in file "spi.c"
  3078 ;; Parameters:    Size  Location     Type
  3079 ;;		None
  3080 ;; Auto vars:     Size  Location     Type
  3081 ;;		None
  3082 ;; Return value:  Size  Location     Type
  3083 ;;                  1    wreg      void 
  3084 ;; Registers used:
  3085 ;;		wreg, status,2, status,0
  3086 ;; Tracked objects:
  3087 ;;		On entry : 0/0
  3088 ;;		On exit  : 0/0
  3089 ;;		Unchanged: 0/0
  3090 ;; Data sizes:     COMMON   BANK0   BANK1   BANK3   BANK2
  3091 ;;      Params:         0       0       0       0       0
  3092 ;;      Locals:         0       0       0       0       0
  3093 ;;      Temps:          0       0       0       0       0
  3094 ;;      Totals:         0       0       0       0       0
  3095 ;;Total ram usage:        0 bytes
  3096 ;; Hardware stack levels used:    1
  3097 ;; This function calls:
  3098 ;;		Nothing
  3099 ;; This function is called by:
  3100 ;;		_main
  3101 ;; This function uses a non-reentrant model
  3102 ;;
  3103                           
  3104                           
  3105                           ;psect for function _SPIMaster
  3106  0BE5                     _SPIMaster:
  3107  0BE5                     l2373:	
  3108                           ;incstack = 0
  3109                           ; Regs used in _SPIMaster: [wreg+status,2+status,0]
  3110                           
  3111                           
  3112                           ;spi.c: 28:     SSPSTATbits.SMP = 0;
  3113  0BE5  1683               	bsf	3,5	;RP0=1, select bank1
  3114  0BE6  1303               	bcf	3,6	;RP1=0, select bank1
  3115  0BE7  1394               	bcf	20,7	;volatile
  3116                           
  3117                           ;spi.c: 29:     SSPSTATbits.CKE = 0;
  3118  0BE8  1314               	bcf	20,6	;volatile
  3119                           
  3120                           ;spi.c: 30:     SSPCONbits.SSPEN = 1;
  3121  0BE9  1283               	bcf	3,5	;RP0=0, select bank0
  3122  0BEA  1303               	bcf	3,6	;RP1=0, select bank0
  3123  0BEB  1694               	bsf	20,5	;volatile
  3124                           
  3125                           ;spi.c: 31:     SSPCONbits.CKP = 1;
  3126  0BEC  1614               	bsf	20,4	;volatile
  3127  0BED                     l2375:
  3128                           
  3129                           ;spi.c: 32:     SSPCONbits.SSPM = 0b0010;
  3130  0BED  0814               	movf	20,w	;volatile
  3131  0BEE  39F0               	andlw	-16
  3132  0BEF  3802               	iorlw	2
  3133  0BF0  0094               	movwf	20	;volatile
  3134  0BF1                     l2377:
  3135                           
  3136                           ;spi.c: 34:     TRISCbits.TRISC5 = 0;
  3137  0BF1  1683               	bsf	3,5	;RP0=1, select bank1
  3138  0BF2  1303               	bcf	3,6	;RP1=0, select bank1
  3139  0BF3  1287               	bcf	7,5	;volatile
  3140  0BF4                     l2379:
  3141                           
  3142                           ;spi.c: 35:     TRISCbits.TRISC4 = 1;
  3143  0BF4  1607               	bsf	7,4	;volatile
  3144  0BF5                     l2381:
  3145                           
  3146                           ;spi.c: 36:     TRISCbits.TRISC3 = 0;
  3147  0BF5  1187               	bcf	7,3	;volatile
  3148  0BF6                     l2383:
  3149                           
  3150                           ;spi.c: 38:     PIE1bits.SSPIE = 1;
  3151  0BF6  158C               	bsf	12,3	;volatile
  3152  0BF7                     l2385:
  3153                           
  3154                           ;spi.c: 39:     INTCONbits.GIE = 1;
  3155  0BF7  178B               	bsf	11,7	;volatile
  3156  0BF8                     l2387:
  3157                           
  3158                           ;spi.c: 40:     INTCONbits.PEIE = 1;
  3159  0BF8  170B               	bsf	11,6	;volatile
  3160  0BF9                     l2389:
  3161                           
  3162                           ;spi.c: 41:     PIR1bits.SSPIF = 0;
  3163  0BF9  1283               	bcf	3,5	;RP0=0, select bank0
  3164  0BFA  1303               	bcf	3,6	;RP1=0, select bank0
  3165  0BFB  118C               	bcf	12,3	;volatile
  3166  0BFC                     l235:
  3167  0BFC  0008               	return
  3168  0BFD                     __end_of_SPIMaster:
  3169                           
  3170                           	psect	text16
  3171  0030                     __ptext16:	
  3172 ;; *************** function _ComSPI *****************
  3173 ;; Defined at:
  3174 ;;		line 139 in file "main.c"
  3175 ;; Parameters:    Size  Location     Type
  3176 ;;		None
  3177 ;; Auto vars:     Size  Location     Type
  3178 ;;		None
  3179 ;; Return value:  Size  Location     Type
  3180 ;;                  1    wreg      void 
  3181 ;; Registers used:
  3182 ;;		wreg, status,2, status,0, btemp+1, pclath, cstack
  3183 ;; Tracked objects:
  3184 ;;		On entry : 0/0
  3185 ;;		On exit  : 0/0
  3186 ;;		Unchanged: 0/0
  3187 ;; Data sizes:     COMMON   BANK0   BANK1   BANK3   BANK2
  3188 ;;      Params:         0       0       0       0       0
  3189 ;;      Locals:         0       0       0       0       0
  3190 ;;      Temps:          0       3       0       0       0
  3191 ;;      Totals:         0       3       0       0       0
  3192 ;;Total ram usage:        3 bytes
  3193 ;; Hardware stack levels used:    1
  3194 ;; Hardware stack levels required when called:    3
  3195 ;; This function calls:
  3196 ;;		_MapPot
  3197 ;;		___awdiv
  3198 ;;		___wmul
  3199 ;;		_spiRead
  3200 ;;		_spiWrite
  3201 ;; This function is called by:
  3202 ;;		_main
  3203 ;; This function uses a non-reentrant model
  3204 ;;
  3205                           
  3206                           
  3207                           ;psect for function _ComSPI
  3208  0030                     _ComSPI:
  3209  0030                     l2403:	
  3210                           ;incstack = 0
  3211                           ; Regs used in _ComSPI: [wreg+status,2+status,0+btemp+1+pclath+cstack]
  3212                           
  3213  0030  1283               	bcf	3,5	;RP0=0, select bank0
  3214  0031  1303               	bcf	3,6	;RP1=0, select bank0
  3215  0032  036E               	decf	_SSbit1,w
  3216  0033  1D03               	btfss	3,2
  3217  0034  2836               	goto	u2761
  3218  0035  2837               	goto	u2760
  3219  0036                     u2761:
  3220  0036  287E               	goto	l2423
  3221  0037                     u2760:
  3222  0037                     l2405:
  3223  0037  1006               	bcf	6,0	;volatile
  3224  0038  1486               	bsf	6,1	;volatile
  3225  0039  1506               	bsf	6,2	;volatile
  3226  003A                     l2407:
  3227  003A  3003               	movlw	3
  3228  003B  1283               	bcf	3,5	;RP0=0, select bank0
  3229  003C  1303               	bcf	3,6	;RP1=0, select bank0
  3230  003D  00E0               	movwf	??_ComSPI+1
  3231  003E  3097               	movlw	151
  3232  003F  00DF               	movwf	??_ComSPI
  3233  0040                     u2967:
  3234  0040  0BDF               	decfsz	??_ComSPI,f
  3235  0041  2840               	goto	u2967
  3236  0042  0BE0               	decfsz	??_ComSPI+1,f
  3237  0043  2840               	goto	u2967
  3238  0044                     l2409:
  3239  0044  3001               	movlw	1
  3240  0045  120A  158A  2368  120A  118A  	fcall	_spiWrite
  3241  004A                     l2411:
  3242  004A  120A  158A  2376  120A  118A  	fcall	_spiRead
  3243  004F  1283               	bcf	3,5	;RP0=0, select bank0
  3244  0050  1303               	bcf	3,6	;RP1=0, select bank0
  3245  0051  00DF               	movwf	??_ComSPI
  3246  0052  01E0               	clrf	??_ComSPI+1
  3247  0053  085F               	movf	??_ComSPI,w
  3248  0054  00E7               	movwf	_PotenciometroLectura
  3249  0055  0860               	movf	??_ComSPI+1,w
  3250  0056  00E8               	movwf	_PotenciometroLectura+1
  3251  0057                     l2413:
  3252  0057  120A  158A  254C  120A  118A  	fcall	_MapPot
  3253  005C                     l2415:
  3254  005C  3003               	movlw	3
  3255  005D  1283               	bcf	3,5	;RP0=0, select bank0
  3256  005E  1303               	bcf	3,6	;RP1=0, select bank0
  3257  005F  00E0               	movwf	??_ComSPI+1
  3258  0060  3097               	movlw	151
  3259  0061  00DF               	movwf	??_ComSPI
  3260  0062                     u2977:
  3261  0062  0BDF               	decfsz	??_ComSPI,f
  3262  0063  2862               	goto	u2977
  3263  0064  0BE0               	decfsz	??_ComSPI+1,f
  3264  0065  2862               	goto	u2977
  3265  0066                     l2417:
  3266  0066  1283               	bcf	3,5	;RP0=0, select bank0
  3267  0067  1303               	bcf	3,6	;RP1=0, select bank0
  3268  0068  1406               	bsf	6,0	;volatile
  3269  0069                     l2419:
  3270  0069  3002               	movlw	2
  3271  006A  1283               	bcf	3,5	;RP0=0, select bank0
  3272  006B  1303               	bcf	3,6	;RP1=0, select bank0
  3273  006C  00E1               	movwf	??_ComSPI+2
  3274  006D  3004               	movlw	4
  3275  006E  00E0               	movwf	??_ComSPI+1
  3276  006F  30B9               	movlw	185
  3277  0070  00DF               	movwf	??_ComSPI
  3278  0071                     u2987:
  3279  0071  0BDF               	decfsz	??_ComSPI,f
  3280  0072  2871               	goto	u2987
  3281  0073  0BE0               	decfsz	??_ComSPI+1,f
  3282  0074  2871               	goto	u2987
  3283  0075  0BE1               	decfsz	??_ComSPI+2,f
  3284  0076  2871               	goto	u2987
  3285  0077  2878               	nop2
  3286  0078                     l2421:
  3287  0078  3002               	movlw	2
  3288  0079  1283               	bcf	3,5	;RP0=0, select bank0
  3289  007A  1303               	bcf	3,6	;RP1=0, select bank0
  3290  007B  00DF               	movwf	??_ComSPI
  3291  007C  085F               	movf	??_ComSPI,w
  3292  007D  00EE               	movwf	_SSbit1
  3293  007E                     l2423:
  3294  007E  3002               	movlw	2
  3295  007F  066E               	xorwf	_SSbit1,w
  3296  0080  1D03               	btfss	3,2
  3297  0081  2883               	goto	u2771
  3298  0082  2884               	goto	u2770
  3299  0083                     u2771:
  3300  0083  28C3               	goto	l2441
  3301  0084                     u2770:
  3302  0084                     l2425:
  3303  0084  1406               	bsf	6,0	;volatile
  3304  0085  1086               	bcf	6,1	;volatile
  3305  0086  1506               	bsf	6,2	;volatile
  3306  0087                     l2427:
  3307  0087  3003               	movlw	3
  3308  0088  1283               	bcf	3,5	;RP0=0, select bank0
  3309  0089  1303               	bcf	3,6	;RP1=0, select bank0
  3310  008A  00E0               	movwf	??_ComSPI+1
  3311  008B  3097               	movlw	151
  3312  008C  00DF               	movwf	??_ComSPI
  3313  008D                     u2997:
  3314  008D  0BDF               	decfsz	??_ComSPI,f
  3315  008E  288D               	goto	u2997
  3316  008F  0BE0               	decfsz	??_ComSPI+1,f
  3317  0090  288D               	goto	u2997
  3318  0091                     l2429:
  3319  0091  3001               	movlw	1
  3320  0092  120A  158A  2368  120A  118A  	fcall	_spiWrite
  3321  0097                     l2431:
  3322  0097  120A  158A  2376  120A  118A  	fcall	_spiRead
  3323  009C  1283               	bcf	3,5	;RP0=0, select bank0
  3324  009D  1303               	bcf	3,6	;RP1=0, select bank0
  3325  009E  00DF               	movwf	??_ComSPI
  3326  009F  085F               	movf	??_ComSPI,w
  3327  00A0  00EB               	movwf	_Contador
  3328  00A1                     l2433:
  3329  00A1  3003               	movlw	3
  3330  00A2  1283               	bcf	3,5	;RP0=0, select bank0
  3331  00A3  1303               	bcf	3,6	;RP1=0, select bank0
  3332  00A4  00E0               	movwf	??_ComSPI+1
  3333  00A5  3097               	movlw	151
  3334  00A6  00DF               	movwf	??_ComSPI
  3335  00A7                     u3007:
  3336  00A7  0BDF               	decfsz	??_ComSPI,f
  3337  00A8  28A7               	goto	u3007
  3338  00A9  0BE0               	decfsz	??_ComSPI+1,f
  3339  00AA  28A7               	goto	u3007
  3340  00AB                     l2435:
  3341  00AB  1283               	bcf	3,5	;RP0=0, select bank0
  3342  00AC  1303               	bcf	3,6	;RP1=0, select bank0
  3343  00AD  1486               	bsf	6,1	;volatile
  3344  00AE                     l2437:
  3345  00AE  3002               	movlw	2
  3346  00AF  1283               	bcf	3,5	;RP0=0, select bank0
  3347  00B0  1303               	bcf	3,6	;RP1=0, select bank0
  3348  00B1  00E1               	movwf	??_ComSPI+2
  3349  00B2  3004               	movlw	4
  3350  00B3  00E0               	movwf	??_ComSPI+1
  3351  00B4  30B9               	movlw	185
  3352  00B5  00DF               	movwf	??_ComSPI
  3353  00B6                     u3017:
  3354  00B6  0BDF               	decfsz	??_ComSPI,f
  3355  00B7  28B6               	goto	u3017
  3356  00B8  0BE0               	decfsz	??_ComSPI+1,f
  3357  00B9  28B6               	goto	u3017
  3358  00BA  0BE1               	decfsz	??_ComSPI+2,f
  3359  00BB  28B6               	goto	u3017
  3360  00BC  28BD               	nop2
  3361  00BD                     l2439:
  3362  00BD  3003               	movlw	3
  3363  00BE  1283               	bcf	3,5	;RP0=0, select bank0
  3364  00BF  1303               	bcf	3,6	;RP1=0, select bank0
  3365  00C0  00DF               	movwf	??_ComSPI
  3366  00C1  085F               	movf	??_ComSPI,w
  3367  00C2  00EE               	movwf	_SSbit1
  3368  00C3                     l2441:
  3369  00C3  3003               	movlw	3
  3370  00C4  066E               	xorwf	_SSbit1,w
  3371  00C5  1D03               	btfss	3,2
  3372  00C6  28C8               	goto	u2781
  3373  00C7  28C9               	goto	u2780
  3374  00C8                     u2781:
  3375  00C8  2929               	goto	l147
  3376  00C9                     u2780:
  3377  00C9                     l2443:
  3378  00C9  1406               	bsf	6,0	;volatile
  3379  00CA  1486               	bsf	6,1	;volatile
  3380  00CB  1106               	bcf	6,2	;volatile
  3381  00CC                     l2445:
  3382  00CC  3003               	movlw	3
  3383  00CD  1283               	bcf	3,5	;RP0=0, select bank0
  3384  00CE  1303               	bcf	3,6	;RP1=0, select bank0
  3385  00CF  00E0               	movwf	??_ComSPI+1
  3386  00D0  3097               	movlw	151
  3387  00D1  00DF               	movwf	??_ComSPI
  3388  00D2                     u3027:
  3389  00D2  0BDF               	decfsz	??_ComSPI,f
  3390  00D3  28D2               	goto	u3027
  3391  00D4  0BE0               	decfsz	??_ComSPI+1,f
  3392  00D5  28D2               	goto	u3027
  3393  00D6                     l2447:
  3394  00D6  3001               	movlw	1
  3395  00D7  120A  158A  2368  120A  118A  	fcall	_spiWrite
  3396  00DC                     l2449:
  3397  00DC  120A  158A  2376  120A  118A  	fcall	_spiRead
  3398  00E1  1283               	bcf	3,5	;RP0=0, select bank0
  3399  00E2  1303               	bcf	3,6	;RP1=0, select bank0
  3400  00E3  00DF               	movwf	??_ComSPI
  3401  00E4  085F               	movf	??_ComSPI,w
  3402  00E5  00EA               	movwf	_TemperaturaLectura
  3403  00E6                     l2451:
  3404  00E6  30FA               	movlw	250
  3405  00E7  00F6               	movwf	___awdiv@divisor
  3406  00E8  3000               	movlw	0
  3407  00E9  00F7               	movwf	___awdiv@divisor+1
  3408  00EA  086A               	movf	_TemperaturaLectura,w
  3409  00EB  00DF               	movwf	??_ComSPI
  3410  00EC  01E0               	clrf	??_ComSPI+1
  3411  00ED  085F               	movf	??_ComSPI,w
  3412  00EE  00F0               	movwf	___wmul@multiplier
  3413  00EF  0860               	movf	??_ComSPI+1,w
  3414  00F0  00F1               	movwf	___wmul@multiplier+1
  3415  00F1  307D               	movlw	125
  3416  00F2  00F2               	movwf	___wmul@multiplicand
  3417  00F3  3000               	movlw	0
  3418  00F4  00F3               	movwf	___wmul@multiplicand+1
  3419  00F5  120A  158A  2435  120A  118A  	fcall	___wmul
  3420  00FA  0871               	movf	?___wmul+1,w
  3421  00FB  00F9               	movwf	___awdiv@dividend+1
  3422  00FC  0870               	movf	?___wmul,w
  3423  00FD  00F8               	movwf	___awdiv@dividend
  3424  00FE  120A  158A  25A1  120A  118A  	fcall	___awdiv
  3425  0103  0876               	movf	?___awdiv,w
  3426  0104  1283               	bcf	3,5	;RP0=0, select bank0
  3427  0105  1303               	bcf	3,6	;RP1=0, select bank0
  3428  0106  00E1               	movwf	??_ComSPI+2
  3429  0107  0861               	movf	??_ComSPI+2,w
  3430  0108  00E9               	movwf	_Temperatura
  3431  0109                     l2453:
  3432  0109  3003               	movlw	3
  3433  010A  1283               	bcf	3,5	;RP0=0, select bank0
  3434  010B  1303               	bcf	3,6	;RP1=0, select bank0
  3435  010C  00E0               	movwf	??_ComSPI+1
  3436  010D  3097               	movlw	151
  3437  010E  00DF               	movwf	??_ComSPI
  3438  010F                     u3037:
  3439  010F  0BDF               	decfsz	??_ComSPI,f
  3440  0110  290F               	goto	u3037
  3441  0111  0BE0               	decfsz	??_ComSPI+1,f
  3442  0112  290F               	goto	u3037
  3443  0113                     l2455:
  3444  0113  1283               	bcf	3,5	;RP0=0, select bank0
  3445  0114  1303               	bcf	3,6	;RP1=0, select bank0
  3446  0115  1506               	bsf	6,2	;volatile
  3447  0116                     l2457:
  3448  0116  3002               	movlw	2
  3449  0117  1283               	bcf	3,5	;RP0=0, select bank0
  3450  0118  1303               	bcf	3,6	;RP1=0, select bank0
  3451  0119  00E1               	movwf	??_ComSPI+2
  3452  011A  3004               	movlw	4
  3453  011B  00E0               	movwf	??_ComSPI+1
  3454  011C  30B9               	movlw	185
  3455  011D  00DF               	movwf	??_ComSPI
  3456  011E                     u3047:
  3457  011E  0BDF               	decfsz	??_ComSPI,f
  3458  011F  291E               	goto	u3047
  3459  0120  0BE0               	decfsz	??_ComSPI+1,f
  3460  0121  291E               	goto	u3047
  3461  0122  0BE1               	decfsz	??_ComSPI+2,f
  3462  0123  291E               	goto	u3047
  3463  0124  2925               	nop2
  3464  0125                     l2459:
  3465  0125  1283               	bcf	3,5	;RP0=0, select bank0
  3466  0126  1303               	bcf	3,6	;RP1=0, select bank0
  3467  0127  01EE               	clrf	_SSbit1
  3468  0128  0AEE               	incf	_SSbit1,f
  3469  0129                     l147:
  3470  0129  0008               	return
  3471  012A                     __end_of_ComSPI:
  3472                           
  3473                           	psect	text17
  3474  0B68                     __ptext17:	
  3475 ;; *************** function _spiWrite *****************
  3476 ;; Defined at:
  3477 ;;		line 68 in file "spi.c"
  3478 ;; Parameters:    Size  Location     Type
  3479 ;;  dat             1    wreg     unsigned char 
  3480 ;; Auto vars:     Size  Location     Type
  3481 ;;  dat             1    0[COMMON] unsigned char 
  3482 ;; Return value:  Size  Location     Type
  3483 ;;                  1    wreg      void 
  3484 ;; Registers used:
  3485 ;;		wreg
  3486 ;; Tracked objects:
  3487 ;;		On entry : 0/0
  3488 ;;		On exit  : 0/0
  3489 ;;		Unchanged: 0/0
  3490 ;; Data sizes:     COMMON   BANK0   BANK1   BANK3   BANK2
  3491 ;;      Params:         0       0       0       0       0
  3492 ;;      Locals:         1       0       0       0       0
  3493 ;;      Temps:          0       0       0       0       0
  3494 ;;      Totals:         1       0       0       0       0
  3495 ;;Total ram usage:        1 bytes
  3496 ;; Hardware stack levels used:    1
  3497 ;; This function calls:
  3498 ;;		Nothing
  3499 ;; This function is called by:
  3500 ;;		_ComSPI
  3501 ;; This function uses a non-reentrant model
  3502 ;;
  3503                           
  3504                           
  3505                           ;psect for function _spiWrite
  3506  0B68                     _spiWrite:
  3507                           
  3508                           ;incstack = 0
  3509                           ; Regs used in _spiWrite: [wreg]
  3510                           ;spiWrite@dat stored from wreg
  3511  0B68  00F0               	movwf	spiWrite@dat
  3512  0B69                     l2215:
  3513                           
  3514                           ;spi.c: 69:     SSPBUF = dat;
  3515  0B69  0870               	movf	spiWrite@dat,w
  3516  0B6A  1283               	bcf	3,5	;RP0=0, select bank0
  3517  0B6B  1303               	bcf	3,6	;RP1=0, select bank0
  3518  0B6C  0093               	movwf	19	;volatile
  3519  0B6D                     l247:
  3520  0B6D  0008               	return
  3521  0B6E                     __end_of_spiWrite:
  3522                           
  3523                           	psect	text18
  3524  0B76                     __ptext18:	
  3525 ;; *************** function _spiRead *****************
  3526 ;; Defined at:
  3527 ;;		line 63 in file "spi.c"
  3528 ;; Parameters:    Size  Location     Type
  3529 ;;		None
  3530 ;; Auto vars:     Size  Location     Type
  3531 ;;		None
  3532 ;; Return value:  Size  Location     Type
  3533 ;;                  1    wreg      unsigned char 
  3534 ;; Registers used:
  3535 ;;		wreg
  3536 ;; Tracked objects:
  3537 ;;		On entry : 0/0
  3538 ;;		On exit  : 0/0
  3539 ;;		Unchanged: 0/0
  3540 ;; Data sizes:     COMMON   BANK0   BANK1   BANK3   BANK2
  3541 ;;      Params:         0       0       0       0       0
  3542 ;;      Locals:         0       0       0       0       0
  3543 ;;      Temps:          0       0       0       0       0
  3544 ;;      Totals:         0       0       0       0       0
  3545 ;;Total ram usage:        0 bytes
  3546 ;; Hardware stack levels used:    1
  3547 ;; This function calls:
  3548 ;;		Nothing
  3549 ;; This function is called by:
  3550 ;;		_ComSPI
  3551 ;; This function uses a non-reentrant model
  3552 ;;
  3553                           
  3554                           
  3555                           ;psect for function _spiRead
  3556  0B76                     _spiRead:
  3557  0B76                     l2217:	
  3558                           ;incstack = 0
  3559                           ; Regs used in _spiRead: [wreg]
  3560                           
  3561  0B76                     l241:	
  3562                           ;spi.c: 64:     while (!SSPSTATbits.BF);
  3563                           
  3564  0B76  1683               	bsf	3,5	;RP0=1, select bank1
  3565  0B77  1303               	bcf	3,6	;RP1=0, select bank1
  3566  0B78  1C14               	btfss	20,0	;volatile
  3567  0B79  2B7B               	goto	u2421
  3568  0B7A  2B7C               	goto	u2420
  3569  0B7B                     u2421:
  3570  0B7B  2B76               	goto	l241
  3571  0B7C                     u2420:
  3572  0B7C                     l2219:
  3573                           
  3574                           ;spi.c: 65:     return (SSPBUF);
  3575  0B7C  1283               	bcf	3,5	;RP0=0, select bank0
  3576  0B7D  1303               	bcf	3,6	;RP1=0, select bank0
  3577  0B7E  0813               	movf	19,w	;volatile
  3578  0B7F                     l244:
  3579  0B7F  0008               	return
  3580  0B80                     __end_of_spiRead:
  3581                           
  3582                           	psect	text19
  3583  0C35                     __ptext19:	
  3584 ;; *************** function ___wmul *****************
  3585 ;; Defined at:
  3586 ;;		line 15 in file "C:\Program Files\Microchip\xc8\v2.31\pic\sources\c90\common\Umul16.c"
  3587 ;; Parameters:    Size  Location     Type
  3588 ;;  multiplier      2    0[COMMON] unsigned int 
  3589 ;;  multiplicand    2    2[COMMON] unsigned int 
  3590 ;; Auto vars:     Size  Location     Type
  3591 ;;  product         2    4[COMMON] unsigned int 
  3592 ;; Return value:  Size  Location     Type
  3593 ;;                  2    0[COMMON] unsigned int 
  3594 ;; Registers used:
  3595 ;;		wreg, status,2, status,0
  3596 ;; Tracked objects:
  3597 ;;		On entry : 0/0
  3598 ;;		On exit  : 0/0
  3599 ;;		Unchanged: 0/0
  3600 ;; Data sizes:     COMMON   BANK0   BANK1   BANK3   BANK2
  3601 ;;      Params:         4       0       0       0       0
  3602 ;;      Locals:         2       0       0       0       0
  3603 ;;      Temps:          0       0       0       0       0
  3604 ;;      Totals:         6       0       0       0       0
  3605 ;;Total ram usage:        6 bytes
  3606 ;; Hardware stack levels used:    1
  3607 ;; This function calls:
  3608 ;;		Nothing
  3609 ;; This function is called by:
  3610 ;;		_ComSPI
  3611 ;; This function uses a non-reentrant model
  3612 ;;
  3613                           
  3614                           
  3615                           ;psect for function ___wmul
  3616  0C35                     ___wmul:
  3617  0C35                     l2243:	
  3618                           ;incstack = 0
  3619                           ; Regs used in ___wmul: [wreg+status,2+status,0]
  3620                           
  3621  0C35  01F4               	clrf	___wmul@product
  3622  0C36  01F5               	clrf	___wmul@product+1
  3623  0C37                     l2245:
  3624  0C37  1C70               	btfss	___wmul@multiplier,0
  3625  0C38  2C3A               	goto	u2461
  3626  0C39  2C3B               	goto	u2460
  3627  0C3A                     u2461:
  3628  0C3A  2C41               	goto	l372
  3629  0C3B                     u2460:
  3630  0C3B                     l2247:
  3631  0C3B  0872               	movf	___wmul@multiplicand,w
  3632  0C3C  07F4               	addwf	___wmul@product,f
  3633  0C3D  1803               	skipnc
  3634  0C3E  0AF5               	incf	___wmul@product+1,f
  3635  0C3F  0873               	movf	___wmul@multiplicand+1,w
  3636  0C40  07F5               	addwf	___wmul@product+1,f
  3637  0C41                     l372:
  3638  0C41  3001               	movlw	1
  3639  0C42                     u2475:
  3640  0C42  1003               	clrc
  3641  0C43  0DF2               	rlf	___wmul@multiplicand,f
  3642  0C44  0DF3               	rlf	___wmul@multiplicand+1,f
  3643  0C45  3EFF               	addlw	-1
  3644  0C46  1D03               	skipz
  3645  0C47  2C42               	goto	u2475
  3646  0C48                     l2249:
  3647  0C48  3001               	movlw	1
  3648  0C49                     u2485:
  3649  0C49  1003               	clrc
  3650  0C4A  0CF1               	rrf	___wmul@multiplier+1,f
  3651  0C4B  0CF0               	rrf	___wmul@multiplier,f
  3652  0C4C  3EFF               	addlw	-1
  3653  0C4D  1D03               	skipz
  3654  0C4E  2C49               	goto	u2485
  3655  0C4F                     l2251:
  3656  0C4F  0870               	movf	___wmul@multiplier,w
  3657  0C50  0471               	iorwf	___wmul@multiplier+1,w
  3658  0C51  1D03               	btfss	3,2
  3659  0C52  2C54               	goto	u2491
  3660  0C53  2C55               	goto	u2490
  3661  0C54                     u2491:
  3662  0C54  2C37               	goto	l2245
  3663  0C55                     u2490:
  3664  0C55                     l2253:
  3665  0C55  0875               	movf	___wmul@product+1,w
  3666  0C56  00F1               	movwf	?___wmul+1
  3667  0C57  0874               	movf	___wmul@product,w
  3668  0C58  00F0               	movwf	?___wmul
  3669  0C59                     l374:
  3670  0C59  0008               	return
  3671  0C5A                     __end_of___wmul:
  3672                           
  3673                           	psect	text20
  3674  0DA1                     __ptext20:	
  3675 ;; *************** function ___awdiv *****************
  3676 ;; Defined at:
  3677 ;;		line 5 in file "C:\Program Files\Microchip\xc8\v2.31\pic\sources\c90\common\awdiv.c"
  3678 ;; Parameters:    Size  Location     Type
  3679 ;;  divisor         2    6[COMMON] int 
  3680 ;;  dividend        2    8[COMMON] int 
  3681 ;; Auto vars:     Size  Location     Type
  3682 ;;  quotient        2    2[BANK0 ] int 
  3683 ;;  sign            1    1[BANK0 ] unsigned char 
  3684 ;;  counter         1    0[BANK0 ] unsigned char 
  3685 ;; Return value:  Size  Location     Type
  3686 ;;                  2    6[COMMON] int 
  3687 ;; Registers used:
  3688 ;;		wreg, status,2, status,0
  3689 ;; Tracked objects:
  3690 ;;		On entry : 0/0
  3691 ;;		On exit  : 0/0
  3692 ;;		Unchanged: 0/0
  3693 ;; Data sizes:     COMMON   BANK0   BANK1   BANK3   BANK2
  3694 ;;      Params:         4       0       0       0       0
  3695 ;;      Locals:         0       4       0       0       0
  3696 ;;      Temps:          1       0       0       0       0
  3697 ;;      Totals:         5       4       0       0       0
  3698 ;;Total ram usage:        9 bytes
  3699 ;; Hardware stack levels used:    1
  3700 ;; This function calls:
  3701 ;;		Nothing
  3702 ;; This function is called by:
  3703 ;;		_ComSPI
  3704 ;; This function uses a non-reentrant model
  3705 ;;
  3706                           
  3707                           
  3708                           ;psect for function ___awdiv
  3709  0DA1                     ___awdiv:
  3710  0DA1                     l2271:	
  3711                           ;incstack = 0
  3712                           ; Regs used in ___awdiv: [wreg+status,2+status,0]
  3713                           
  3714  0DA1  1283               	bcf	3,5	;RP0=0, select bank0
  3715  0DA2  1303               	bcf	3,6	;RP1=0, select bank0
  3716  0DA3  01A1               	clrf	___awdiv@sign
  3717  0DA4                     l2273:
  3718  0DA4  1FF7               	btfss	___awdiv@divisor+1,7
  3719  0DA5  2DA7               	goto	u2521
  3720  0DA6  2DA8               	goto	u2520
  3721  0DA7                     u2521:
  3722  0DA7  2DAF               	goto	l2279
  3723  0DA8                     u2520:
  3724  0DA8                     l2275:
  3725  0DA8  09F6               	comf	___awdiv@divisor,f
  3726  0DA9  09F7               	comf	___awdiv@divisor+1,f
  3727  0DAA  0AF6               	incf	___awdiv@divisor,f
  3728  0DAB  1903               	skipnz
  3729  0DAC  0AF7               	incf	___awdiv@divisor+1,f
  3730  0DAD                     l2277:
  3731  0DAD  01A1               	clrf	___awdiv@sign
  3732  0DAE  0AA1               	incf	___awdiv@sign,f
  3733  0DAF                     l2279:
  3734  0DAF  1FF9               	btfss	___awdiv@dividend+1,7
  3735  0DB0  2DB2               	goto	u2531
  3736  0DB1  2DB3               	goto	u2530
  3737  0DB2                     u2531:
  3738  0DB2  2DBC               	goto	l2285
  3739  0DB3                     u2530:
  3740  0DB3                     l2281:
  3741  0DB3  09F8               	comf	___awdiv@dividend,f
  3742  0DB4  09F9               	comf	___awdiv@dividend+1,f
  3743  0DB5  0AF8               	incf	___awdiv@dividend,f
  3744  0DB6  1903               	skipnz
  3745  0DB7  0AF9               	incf	___awdiv@dividend+1,f
  3746  0DB8                     l2283:
  3747  0DB8  3001               	movlw	1
  3748  0DB9  00FA               	movwf	??___awdiv
  3749  0DBA  087A               	movf	??___awdiv,w
  3750  0DBB  06A1               	xorwf	___awdiv@sign,f
  3751  0DBC                     l2285:
  3752  0DBC  01A2               	clrf	___awdiv@quotient
  3753  0DBD  01A3               	clrf	___awdiv@quotient+1
  3754  0DBE                     l2287:
  3755  0DBE  0876               	movf	___awdiv@divisor,w
  3756  0DBF  0477               	iorwf	___awdiv@divisor+1,w
  3757  0DC0  1903               	btfsc	3,2
  3758  0DC1  2DC3               	goto	u2541
  3759  0DC2  2DC4               	goto	u2540
  3760  0DC3                     u2541:
  3761  0DC3  2DFB               	goto	l2307
  3762  0DC4                     u2540:
  3763  0DC4                     l2289:
  3764  0DC4  01A0               	clrf	___awdiv@counter
  3765  0DC5  0AA0               	incf	___awdiv@counter,f
  3766  0DC6  2DD2               	goto	l2295
  3767  0DC7                     l2291:
  3768  0DC7  3001               	movlw	1
  3769  0DC8                     u2555:
  3770  0DC8  1003               	clrc
  3771  0DC9  0DF6               	rlf	___awdiv@divisor,f
  3772  0DCA  0DF7               	rlf	___awdiv@divisor+1,f
  3773  0DCB  3EFF               	addlw	-1
  3774  0DCC  1D03               	skipz
  3775  0DCD  2DC8               	goto	u2555
  3776  0DCE                     l2293:
  3777  0DCE  3001               	movlw	1
  3778  0DCF  00FA               	movwf	??___awdiv
  3779  0DD0  087A               	movf	??___awdiv,w
  3780  0DD1  07A0               	addwf	___awdiv@counter,f
  3781  0DD2                     l2295:
  3782  0DD2  1FF7               	btfss	___awdiv@divisor+1,7
  3783  0DD3  2DD5               	goto	u2561
  3784  0DD4  2DD6               	goto	u2560
  3785  0DD5                     u2561:
  3786  0DD5  2DC7               	goto	l2291
  3787  0DD6                     u2560:
  3788  0DD6                     l2297:
  3789  0DD6  3001               	movlw	1
  3790  0DD7                     u2575:
  3791  0DD7  1003               	clrc
  3792  0DD8  0DA2               	rlf	___awdiv@quotient,f
  3793  0DD9  0DA3               	rlf	___awdiv@quotient+1,f
  3794  0DDA  3EFF               	addlw	-1
  3795  0DDB  1D03               	skipz
  3796  0DDC  2DD7               	goto	u2575
  3797  0DDD  0877               	movf	___awdiv@divisor+1,w
  3798  0DDE  0279               	subwf	___awdiv@dividend+1,w
  3799  0DDF  1D03               	skipz
  3800  0DE0  2DE3               	goto	u2585
  3801  0DE1  0876               	movf	___awdiv@divisor,w
  3802  0DE2  0278               	subwf	___awdiv@dividend,w
  3803  0DE3                     u2585:
  3804  0DE3  1C03               	skipc
  3805  0DE4  2DE6               	goto	u2581
  3806  0DE5  2DE7               	goto	u2580
  3807  0DE6                     u2581:
  3808  0DE6  2DEE               	goto	l2303
  3809  0DE7                     u2580:
  3810  0DE7                     l2299:
  3811  0DE7  0876               	movf	___awdiv@divisor,w
  3812  0DE8  02F8               	subwf	___awdiv@dividend,f
  3813  0DE9  0877               	movf	___awdiv@divisor+1,w
  3814  0DEA  1C03               	skipc
  3815  0DEB  03F9               	decf	___awdiv@dividend+1,f
  3816  0DEC  02F9               	subwf	___awdiv@dividend+1,f
  3817  0DED                     l2301:
  3818  0DED  1422               	bsf	___awdiv@quotient,0
  3819  0DEE                     l2303:
  3820  0DEE  3001               	movlw	1
  3821  0DEF                     u2595:
  3822  0DEF  1003               	clrc
  3823  0DF0  0CF7               	rrf	___awdiv@divisor+1,f
  3824  0DF1  0CF6               	rrf	___awdiv@divisor,f
  3825  0DF2  3EFF               	addlw	-1
  3826  0DF3  1D03               	skipz
  3827  0DF4  2DEF               	goto	u2595
  3828  0DF5                     l2305:
  3829  0DF5  3001               	movlw	1
  3830  0DF6  02A0               	subwf	___awdiv@counter,f
  3831  0DF7  1D03               	btfss	3,2
  3832  0DF8  2DFA               	goto	u2601
  3833  0DF9  2DFB               	goto	u2600
  3834  0DFA                     u2601:
  3835  0DFA  2DD6               	goto	l2297
  3836  0DFB                     u2600:
  3837  0DFB                     l2307:
  3838  0DFB  0821               	movf	___awdiv@sign,w
  3839  0DFC  1903               	btfsc	3,2
  3840  0DFD  2DFF               	goto	u2611
  3841  0DFE  2E00               	goto	u2610
  3842  0DFF                     u2611:
  3843  0DFF  2E05               	goto	l2311
  3844  0E00                     u2610:
  3845  0E00                     l2309:
  3846  0E00  09A2               	comf	___awdiv@quotient,f
  3847  0E01  09A3               	comf	___awdiv@quotient+1,f
  3848  0E02  0AA2               	incf	___awdiv@quotient,f
  3849  0E03  1903               	skipnz
  3850  0E04  0AA3               	incf	___awdiv@quotient+1,f
  3851  0E05                     l2311:
  3852  0E05  0823               	movf	___awdiv@quotient+1,w
  3853  0E06  00F7               	movwf	?___awdiv+1
  3854  0E07  0822               	movf	___awdiv@quotient,w
  3855  0E08  00F6               	movwf	?___awdiv
  3856  0E09                     l525:
  3857  0E09  0008               	return
  3858  0E0A                     __end_of___awdiv:
  3859                           
  3860                           	psect	text21
  3861  0D4C                     __ptext21:	
  3862 ;; *************** function _MapPot *****************
  3863 ;; Defined at:
  3864 ;;		line 181 in file "main.c"
  3865 ;; Parameters:    Size  Location     Type
  3866 ;;		None
  3867 ;; Auto vars:     Size  Location     Type
  3868 ;;		None
  3869 ;; Return value:  Size  Location     Type
  3870 ;;                  1    wreg      void 
  3871 ;; Registers used:
  3872 ;;		wreg, status,2, status,0, btemp+1, pclath, cstack
  3873 ;; Tracked objects:
  3874 ;;		On entry : 0/0
  3875 ;;		On exit  : 0/0
  3876 ;;		Unchanged: 0/0
  3877 ;; Data sizes:     COMMON   BANK0   BANK1   BANK3   BANK2
  3878 ;;      Params:         0       0       0       0       0
  3879 ;;      Locals:         0       0       0       0       0
  3880 ;;      Temps:          0       0       0       0       0
  3881 ;;      Totals:         0       0       0       0       0
  3882 ;;Total ram usage:        0 bytes
  3883 ;; Hardware stack levels used:    1
  3884 ;; Hardware stack levels required when called:    2
  3885 ;; This function calls:
  3886 ;;		___fldiv
  3887 ;;		___flmul
  3888 ;;		___fltol
  3889 ;;		___xxtofl
  3890 ;; This function is called by:
  3891 ;;		_ComSPI
  3892 ;; This function uses a non-reentrant model
  3893 ;;
  3894                           
  3895                           
  3896                           ;psect for function _MapPot
  3897  0D4C                     _MapPot:
  3898  0D4C                     l2223:	
  3899                           ;incstack = 0
  3900                           ; Regs used in _MapPot: [wreg+status,2+status,0+btemp+1+pclath+cstack]
  3901                           
  3902  0D4C  1283               	bcf	3,5	;RP0=0, select bank0
  3903  0D4D  1303               	bcf	3,6	;RP1=0, select bank0
  3904  0D4E  0867               	movf	_PotenciometroLectura,w
  3905  0D4F  00F0               	movwf	___xxtofl@val
  3906  0D50  0868               	movf	_PotenciometroLectura+1,w
  3907  0D51  00F1               	movwf	___xxtofl@val+1
  3908  0D52  3000               	movlw	0
  3909  0D53  1BF1               	btfsc	___xxtofl@val+1,7
  3910  0D54  30FF               	movlw	255
  3911  0D55  00F2               	movwf	___xxtofl@val+2
  3912  0D56  00F3               	movwf	___xxtofl@val+3
  3913  0D57  3001               	movlw	1
  3914  0D58  120A  158A  2686  120A  158A  	fcall	___xxtofl
  3915  0D5D  0873               	movf	?___xxtofl+3,w
  3916  0D5E  1283               	bcf	3,5	;RP0=0, select bank0
  3917  0D5F  1303               	bcf	3,6	;RP1=0, select bank0
  3918  0D60  00A7               	movwf	___flmul@a+3
  3919  0D61  0872               	movf	?___xxtofl+2,w
  3920  0D62  00A6               	movwf	___flmul@a+2
  3921  0D63  0871               	movf	?___xxtofl+1,w
  3922  0D64  00A5               	movwf	___flmul@a+1
  3923  0D65  0870               	movf	?___xxtofl,w
  3924  0D66  00A4               	movwf	___flmul@a
  3925  0D67  3045               	movlw	69
  3926  0D68  00A3               	movwf	___flmul@b+3
  3927  0D69  309C               	movlw	156
  3928  0D6A  00A2               	movwf	___flmul@b+2
  3929  0D6B  3040               	movlw	64
  3930  0D6C  00A1               	movwf	___flmul@b+1
  3931  0D6D  3000               	movlw	0
  3932  0D6E  00A0               	movwf	___flmul@b
  3933  0D6F  120A  118A  246A  120A  158A  	fcall	___flmul
  3934  0D74  1283               	bcf	3,5	;RP0=0, select bank0
  3935  0D75  1303               	bcf	3,6	;RP1=0, select bank0
  3936  0D76  0823               	movf	?___flmul+3,w
  3937  0D77  00C1               	movwf	___fldiv@b+3
  3938  0D78  0822               	movf	?___flmul+2,w
  3939  0D79  00C0               	movwf	___fldiv@b+2
  3940  0D7A  0821               	movf	?___flmul+1,w
  3941  0D7B  00BF               	movwf	___fldiv@b+1
  3942  0D7C  0820               	movf	?___flmul,w
  3943  0D7D  00BE               	movwf	___fldiv@b
  3944  0D7E  3043               	movlw	67
  3945  0D7F  00BD               	movwf	___fldiv@a+3
  3946  0D80  307F               	movlw	127
  3947  0D81  00BC               	movwf	___fldiv@a+2
  3948  0D82  3000               	movlw	0
  3949  0D83  00BB               	movwf	___fldiv@a+1
  3950  0D84  3000               	movlw	0
  3951  0D85  00BA               	movwf	___fldiv@a
  3952  0D86  120A  118A  228D  120A  158A  	fcall	___fldiv
  3953  0D8B  1283               	bcf	3,5	;RP0=0, select bank0
  3954  0D8C  1303               	bcf	3,6	;RP1=0, select bank0
  3955  0D8D  083D               	movf	?___fldiv+3,w
  3956  0D8E  00D7               	movwf	___fltol@f1+3
  3957  0D8F  083C               	movf	?___fldiv+2,w
  3958  0D90  00D6               	movwf	___fltol@f1+2
  3959  0D91  083B               	movf	?___fldiv+1,w
  3960  0D92  00D5               	movwf	___fltol@f1+1
  3961  0D93  083A               	movf	?___fldiv,w
  3962  0D94  00D4               	movwf	___fltol@f1
  3963  0D95  120A  158A  260A  120A  158A  	fcall	___fltol
  3964  0D9A  1283               	bcf	3,5	;RP0=0, select bank0
  3965  0D9B  1303               	bcf	3,6	;RP1=0, select bank0
  3966  0D9C  0855               	movf	?___fltol+1,w
  3967  0D9D  00E6               	movwf	_Potenciometro+1
  3968  0D9E  0854               	movf	?___fltol,w
  3969  0D9F  00E5               	movwf	_Potenciometro
  3970  0DA0                     l150:
  3971  0DA0  0008               	return
  3972  0DA1                     __end_of_MapPot:
  3973                           
  3974                           	psect	text22
  3975  0E86                     __ptext22:	
  3976 ;; *************** function ___xxtofl *****************
  3977 ;; Defined at:
  3978 ;;		line 10 in file "C:\Program Files\Microchip\xc8\v2.31\pic\sources\c90\common\xxtofl.c"
  3979 ;; Parameters:    Size  Location     Type
  3980 ;;  sign            1    wreg     unsigned char 
  3981 ;;  val             4    0[COMMON] long 
  3982 ;; Auto vars:     Size  Location     Type
  3983 ;;  sign            1    8[COMMON] unsigned char 
  3984 ;;  arg             4   10[COMMON] unsigned long 
  3985 ;;  exp             1    9[COMMON] unsigned char 
  3986 ;; Return value:  Size  Location     Type
  3987 ;;                  4    0[COMMON] unsigned char 
  3988 ;; Registers used:
  3989 ;;		wreg, status,2, status,0
  3990 ;; Tracked objects:
  3991 ;;		On entry : 0/0
  3992 ;;		On exit  : 0/0
  3993 ;;		Unchanged: 0/0
  3994 ;; Data sizes:     COMMON   BANK0   BANK1   BANK3   BANK2
  3995 ;;      Params:         4       0       0       0       0
  3996 ;;      Locals:         6       0       0       0       0
  3997 ;;      Temps:          4       0       0       0       0
  3998 ;;      Totals:        14       0       0       0       0
  3999 ;;Total ram usage:       14 bytes
  4000 ;; Hardware stack levels used:    1
  4001 ;; This function calls:
  4002 ;;		Nothing
  4003 ;; This function is called by:
  4004 ;;		_MapPot
  4005 ;; This function uses a non-reentrant model
  4006 ;;
  4007                           
  4008                           
  4009                           ;psect for function ___xxtofl
  4010  0E86                     ___xxtofl:
  4011                           
  4012                           ;incstack = 0
  4013                           ; Regs used in ___xxtofl: [wreg+status,2+status,0]
  4014                           ;___xxtofl@sign stored from wreg
  4015  0E86  00F8               	movwf	___xxtofl@sign
  4016  0E87                     l2151:
  4017  0E87  0878               	movf	___xxtofl@sign,w
  4018  0E88  1903               	btfsc	3,2
  4019  0E89  2E8B               	goto	u2281
  4020  0E8A  2E8C               	goto	u2280
  4021  0E8B                     u2281:
  4022  0E8B  2EA0               	goto	l2157
  4023  0E8C                     u2280:
  4024  0E8C                     l2153:
  4025  0E8C  1FF3               	btfss	___xxtofl@val+3,7
  4026  0E8D  2E8F               	goto	u2291
  4027  0E8E  2E90               	goto	u2290
  4028  0E8F                     u2291:
  4029  0E8F  2EA0               	goto	l2157
  4030  0E90                     u2290:
  4031  0E90                     l2155:
  4032  0E90  0970               	comf	___xxtofl@val,w
  4033  0E91  00FA               	movwf	___xxtofl@arg
  4034  0E92  0971               	comf	___xxtofl@val+1,w
  4035  0E93  00FB               	movwf	___xxtofl@arg+1
  4036  0E94  0972               	comf	___xxtofl@val+2,w
  4037  0E95  00FC               	movwf	___xxtofl@arg+2
  4038  0E96  0973               	comf	___xxtofl@val+3,w
  4039  0E97  00FD               	movwf	___xxtofl@arg+3
  4040  0E98  0AFA               	incf	___xxtofl@arg,f
  4041  0E99  1903               	skipnz
  4042  0E9A  0AFB               	incf	___xxtofl@arg+1,f
  4043  0E9B  1903               	skipnz
  4044  0E9C  0AFC               	incf	___xxtofl@arg+2,f
  4045  0E9D  1903               	skipnz
  4046  0E9E  0AFD               	incf	___xxtofl@arg+3,f
  4047  0E9F  2EA8               	goto	l805
  4048  0EA0                     l2157:
  4049  0EA0  0873               	movf	___xxtofl@val+3,w
  4050  0EA1  00FD               	movwf	___xxtofl@arg+3
  4051  0EA2  0872               	movf	___xxtofl@val+2,w
  4052  0EA3  00FC               	movwf	___xxtofl@arg+2
  4053  0EA4  0871               	movf	___xxtofl@val+1,w
  4054  0EA5  00FB               	movwf	___xxtofl@arg+1
  4055  0EA6  0870               	movf	___xxtofl@val,w
  4056  0EA7  00FA               	movwf	___xxtofl@arg
  4057  0EA8                     l805:
  4058  0EA8  0873               	movf	___xxtofl@val+3,w
  4059  0EA9  0472               	iorwf	___xxtofl@val+2,w
  4060  0EAA  0471               	iorwf	___xxtofl@val+1,w
  4061  0EAB  0470               	iorwf	___xxtofl@val,w
  4062  0EAC  1D03               	skipz
  4063  0EAD  2EAF               	goto	u2301
  4064  0EAE  2EB0               	goto	u2300
  4065  0EAF                     u2301:
  4066  0EAF  2EB9               	goto	l2163
  4067  0EB0                     u2300:
  4068  0EB0                     l2159:
  4069  0EB0  3000               	movlw	0
  4070  0EB1  00F3               	movwf	?___xxtofl+3
  4071  0EB2  3000               	movlw	0
  4072  0EB3  00F2               	movwf	?___xxtofl+2
  4073  0EB4  3000               	movlw	0
  4074  0EB5  00F1               	movwf	?___xxtofl+1
  4075  0EB6  3000               	movlw	0
  4076  0EB7  00F0               	movwf	?___xxtofl
  4077  0EB8  2F3F               	goto	l807
  4078  0EB9                     l2163:
  4079  0EB9  3096               	movlw	150
  4080  0EBA  00F4               	movwf	??___xxtofl
  4081  0EBB  0874               	movf	??___xxtofl,w
  4082  0EBC  00F9               	movwf	___xxtofl@exp
  4083  0EBD  2ECB               	goto	l2167
  4084  0EBE                     l2165:
  4085  0EBE  3001               	movlw	1
  4086  0EBF  00F4               	movwf	??___xxtofl
  4087  0EC0  0874               	movf	??___xxtofl,w
  4088  0EC1  07F9               	addwf	___xxtofl@exp,f
  4089  0EC2  3001               	movlw	1
  4090  0EC3                     u2315:
  4091  0EC3  1003               	clrc
  4092  0EC4  0CFD               	rrf	___xxtofl@arg+3,f
  4093  0EC5  0CFC               	rrf	___xxtofl@arg+2,f
  4094  0EC6  0CFB               	rrf	___xxtofl@arg+1,f
  4095  0EC7  0CFA               	rrf	___xxtofl@arg,f
  4096  0EC8  3EFF               	addlw	-1
  4097  0EC9  1D03               	skipz
  4098  0ECA  2EC3               	goto	u2315
  4099  0ECB                     l2167:
  4100  0ECB  30FE               	movlw	254
  4101  0ECC  057D               	andwf	___xxtofl@arg+3,w
  4102  0ECD  1D03               	btfss	3,2
  4103  0ECE  2ED0               	goto	u2321
  4104  0ECF  2ED1               	goto	u2320
  4105  0ED0                     u2321:
  4106  0ED0  2EBE               	goto	l2165
  4107  0ED1                     u2320:
  4108  0ED1  2EED               	goto	l811
  4109  0ED2                     l2169:
  4110  0ED2  3001               	movlw	1
  4111  0ED3  00F4               	movwf	??___xxtofl
  4112  0ED4  0874               	movf	??___xxtofl,w
  4113  0ED5  07F9               	addwf	___xxtofl@exp,f
  4114  0ED6                     l2171:
  4115  0ED6  3001               	movlw	1
  4116  0ED7  07FA               	addwf	___xxtofl@arg,f
  4117  0ED8  3000               	movlw	0
  4118  0ED9  1803               	skipnc
  4119  0EDA  3001               	movlw	1
  4120  0EDB  07FB               	addwf	___xxtofl@arg+1,f
  4121  0EDC  3000               	movlw	0
  4122  0EDD  1803               	skipnc
  4123  0EDE  3001               	movlw	1
  4124  0EDF  07FC               	addwf	___xxtofl@arg+2,f
  4125  0EE0  3000               	movlw	0
  4126  0EE1  1803               	skipnc
  4127  0EE2  3001               	movlw	1
  4128  0EE3  07FD               	addwf	___xxtofl@arg+3,f
  4129  0EE4                     l2173:
  4130  0EE4  3001               	movlw	1
  4131  0EE5                     u2335:
  4132  0EE5  1003               	clrc
  4133  0EE6  0CFD               	rrf	___xxtofl@arg+3,f
  4134  0EE7  0CFC               	rrf	___xxtofl@arg+2,f
  4135  0EE8  0CFB               	rrf	___xxtofl@arg+1,f
  4136  0EE9  0CFA               	rrf	___xxtofl@arg,f
  4137  0EEA  3EFF               	addlw	-1
  4138  0EEB  1D03               	skipz
  4139  0EEC  2EE5               	goto	u2335
  4140  0EED                     l811:
  4141  0EED  30FF               	movlw	255
  4142  0EEE  057D               	andwf	___xxtofl@arg+3,w
  4143  0EEF  1D03               	btfss	3,2
  4144  0EF0  2EF2               	goto	u2341
  4145  0EF1  2EF3               	goto	u2340
  4146  0EF2                     u2341:
  4147  0EF2  2ED2               	goto	l2169
  4148  0EF3                     u2340:
  4149  0EF3  2EFF               	goto	l2177
  4150  0EF4                     l2175:
  4151  0EF4  3001               	movlw	1
  4152  0EF5  02F9               	subwf	___xxtofl@exp,f
  4153  0EF6  3001               	movlw	1
  4154  0EF7  00F4               	movwf	??___xxtofl
  4155  0EF8                     u2355:
  4156  0EF8  1003               	clrc
  4157  0EF9  0DFA               	rlf	___xxtofl@arg,f
  4158  0EFA  0DFB               	rlf	___xxtofl@arg+1,f
  4159  0EFB  0DFC               	rlf	___xxtofl@arg+2,f
  4160  0EFC  0DFD               	rlf	___xxtofl@arg+3,f
  4161  0EFD  0BF4               	decfsz	??___xxtofl,f
  4162  0EFE  2EF8               	goto	u2355
  4163  0EFF                     l2177:
  4164  0EFF  1BFC               	btfsc	___xxtofl@arg+2,7
  4165  0F00  2F02               	goto	u2361
  4166  0F01  2F03               	goto	u2360
  4167  0F02                     u2361:
  4168  0F02  2F09               	goto	l818
  4169  0F03                     u2360:
  4170  0F03                     l2179:
  4171  0F03  3002               	movlw	2
  4172  0F04  0279               	subwf	___xxtofl@exp,w
  4173  0F05  1803               	skipnc
  4174  0F06  2F08               	goto	u2371
  4175  0F07  2F09               	goto	u2370
  4176  0F08                     u2371:
  4177  0F08  2EF4               	goto	l2175
  4178  0F09                     u2370:
  4179  0F09                     l818:
  4180  0F09  1879               	btfsc	___xxtofl@exp,0
  4181  0F0A  2F0C               	goto	u2381
  4182  0F0B  2F0D               	goto	u2380
  4183  0F0C                     u2381:
  4184  0F0C  2F15               	goto	l819
  4185  0F0D                     u2380:
  4186  0F0D                     l2181:
  4187  0F0D  30FF               	movlw	255
  4188  0F0E  05FA               	andwf	___xxtofl@arg,f
  4189  0F0F  30FF               	movlw	255
  4190  0F10  05FB               	andwf	___xxtofl@arg+1,f
  4191  0F11  307F               	movlw	127
  4192  0F12  05FC               	andwf	___xxtofl@arg+2,f
  4193  0F13  30FF               	movlw	255
  4194  0F14  05FD               	andwf	___xxtofl@arg+3,f
  4195  0F15                     l819:
  4196  0F15  1003               	clrc
  4197  0F16  0CF9               	rrf	___xxtofl@exp,f
  4198  0F17                     l2183:
  4199  0F17  0879               	movf	___xxtofl@exp,w
  4200  0F18  00F4               	movwf	??___xxtofl
  4201  0F19  01F5               	clrf	??___xxtofl+1
  4202  0F1A  01F6               	clrf	??___xxtofl+2
  4203  0F1B  01F7               	clrf	??___xxtofl+3
  4204  0F1C  3018               	movlw	24
  4205  0F1D                     u2395:
  4206  0F1D  1003               	clrc
  4207  0F1E  0DF4               	rlf	??___xxtofl,f
  4208  0F1F  0DF5               	rlf	??___xxtofl+1,f
  4209  0F20  0DF6               	rlf	??___xxtofl+2,f
  4210  0F21  0DF7               	rlf	??___xxtofl+3,f
  4211  0F22                     u2390:
  4212  0F22  3EFF               	addlw	-1
  4213  0F23  1D03               	skipz
  4214  0F24  2F1D               	goto	u2395
  4215  0F25  0874               	movf	??___xxtofl,w
  4216  0F26  04FA               	iorwf	___xxtofl@arg,f
  4217  0F27  0875               	movf	??___xxtofl+1,w
  4218  0F28  04FB               	iorwf	___xxtofl@arg+1,f
  4219  0F29  0876               	movf	??___xxtofl+2,w
  4220  0F2A  04FC               	iorwf	___xxtofl@arg+2,f
  4221  0F2B  0877               	movf	??___xxtofl+3,w
  4222  0F2C  04FD               	iorwf	___xxtofl@arg+3,f
  4223  0F2D                     l2185:
  4224  0F2D  0878               	movf	___xxtofl@sign,w
  4225  0F2E  1903               	btfsc	3,2
  4226  0F2F  2F31               	goto	u2401
  4227  0F30  2F32               	goto	u2400
  4228  0F31                     u2401:
  4229  0F31  2F37               	goto	l2191
  4230  0F32                     u2400:
  4231  0F32                     l2187:
  4232  0F32  1FF3               	btfss	___xxtofl@val+3,7
  4233  0F33  2F35               	goto	u2411
  4234  0F34  2F36               	goto	u2410
  4235  0F35                     u2411:
  4236  0F35  2F37               	goto	l2191
  4237  0F36                     u2410:
  4238  0F36                     l2189:
  4239  0F36  17FD               	bsf	___xxtofl@arg+3,7
  4240  0F37                     l2191:
  4241  0F37  087D               	movf	___xxtofl@arg+3,w
  4242  0F38  00F3               	movwf	?___xxtofl+3
  4243  0F39  087C               	movf	___xxtofl@arg+2,w
  4244  0F3A  00F2               	movwf	?___xxtofl+2
  4245  0F3B  087B               	movf	___xxtofl@arg+1,w
  4246  0F3C  00F1               	movwf	?___xxtofl+1
  4247  0F3D  087A               	movf	___xxtofl@arg,w
  4248  0F3E  00F0               	movwf	?___xxtofl
  4249  0F3F                     l807:
  4250  0F3F  0008               	return
  4251  0F40                     __end_of___xxtofl:
  4252                           
  4253                           	psect	text23
  4254  0E0A                     __ptext23:	
  4255 ;; *************** function ___fltol *****************
  4256 ;; Defined at:
  4257 ;;		line 43 in file "C:\Program Files\Microchip\xc8\v2.31\pic\sources\c90\common\fltol.c"
  4258 ;; Parameters:    Size  Location     Type
  4259 ;;  f1              4   52[BANK0 ] unsigned char 
  4260 ;; Auto vars:     Size  Location     Type
  4261 ;;  exp1            1   62[BANK0 ] unsigned char 
  4262 ;;  sign1           1   61[BANK0 ] unsigned char 
  4263 ;; Return value:  Size  Location     Type
  4264 ;;                  4   52[BANK0 ] long 
  4265 ;; Registers used:
  4266 ;;		wreg, status,2, status,0
  4267 ;; Tracked objects:
  4268 ;;		On entry : 0/0
  4269 ;;		On exit  : 0/0
  4270 ;;		Unchanged: 0/0
  4271 ;; Data sizes:     COMMON   BANK0   BANK1   BANK3   BANK2
  4272 ;;      Params:         0       4       0       0       0
  4273 ;;      Locals:         0       2       0       0       0
  4274 ;;      Temps:          0       5       0       0       0
  4275 ;;      Totals:         0      11       0       0       0
  4276 ;;Total ram usage:       11 bytes
  4277 ;; Hardware stack levels used:    1
  4278 ;; This function calls:
  4279 ;;		Nothing
  4280 ;; This function is called by:
  4281 ;;		_MapPot
  4282 ;; This function uses a non-reentrant model
  4283 ;;
  4284                           
  4285                           
  4286                           ;psect for function ___fltol
  4287  0E0A                     ___fltol:
  4288  0E0A                     l1833:	
  4289                           ;incstack = 0
  4290                           ; Regs used in ___fltol: [wreg+status,2+status,0]
  4291                           
  4292  0E0A  1003               	clrc
  4293  0E0B  1283               	bcf	3,5	;RP0=0, select bank0
  4294  0E0C  1303               	bcf	3,6	;RP1=0, select bank0
  4295  0E0D  0D56               	rlf	___fltol@f1+2,w
  4296  0E0E  0D57               	rlf	___fltol@f1+3,w
  4297  0E0F  00D8               	movwf	??___fltol
  4298  0E10  0858               	movf	??___fltol,w
  4299  0E11  00DE               	movwf	___fltol@exp1
  4300  0E12  085E               	movf	___fltol@exp1,w
  4301  0E13  1D03               	btfss	3,2
  4302  0E14  2E16               	goto	u1521
  4303  0E15  2E17               	goto	u1520
  4304  0E16                     u1521:
  4305  0E16  2E20               	goto	l1839
  4306  0E17                     u1520:
  4307  0E17                     l1835:
  4308  0E17  3000               	movlw	0
  4309  0E18  00D7               	movwf	?___fltol+3
  4310  0E19  3000               	movlw	0
  4311  0E1A  00D6               	movwf	?___fltol+2
  4312  0E1B  3000               	movlw	0
  4313  0E1C  00D5               	movwf	?___fltol+1
  4314  0E1D  3000               	movlw	0
  4315  0E1E  00D4               	movwf	?___fltol
  4316  0E1F  2E85               	goto	l558
  4317  0E20                     l1839:
  4318  0E20  0854               	movf	___fltol@f1,w
  4319  0E21  00D8               	movwf	??___fltol
  4320  0E22  0855               	movf	___fltol@f1+1,w
  4321  0E23  00D9               	movwf	??___fltol+1
  4322  0E24  0856               	movf	___fltol@f1+2,w
  4323  0E25  00DA               	movwf	??___fltol+2
  4324  0E26  0857               	movf	___fltol@f1+3,w
  4325  0E27  00DB               	movwf	??___fltol+3
  4326  0E28  301F               	movlw	31
  4327  0E29                     u1535:
  4328  0E29  1003               	clrc
  4329  0E2A  0CDB               	rrf	??___fltol+3,f
  4330  0E2B  0CDA               	rrf	??___fltol+2,f
  4331  0E2C  0CD9               	rrf	??___fltol+1,f
  4332  0E2D  0CD8               	rrf	??___fltol,f
  4333  0E2E                     u1530:
  4334  0E2E  3EFF               	addlw	-1
  4335  0E2F  1D03               	skipz
  4336  0E30  2E29               	goto	u1535
  4337  0E31  0858               	movf	??___fltol,w
  4338  0E32  00DC               	movwf	??___fltol+4
  4339  0E33  085C               	movf	??___fltol+4,w
  4340  0E34  00DD               	movwf	___fltol@sign1
  4341  0E35                     l1841:
  4342  0E35  17D6               	bsf	___fltol@f1+2,7
  4343  0E36                     l1843:
  4344  0E36  30FF               	movlw	255
  4345  0E37  05D4               	andwf	___fltol@f1,f
  4346  0E38  30FF               	movlw	255
  4347  0E39  05D5               	andwf	___fltol@f1+1,f
  4348  0E3A  30FF               	movlw	255
  4349  0E3B  05D6               	andwf	___fltol@f1+2,f
  4350  0E3C  3000               	movlw	0
  4351  0E3D  05D7               	andwf	___fltol@f1+3,f
  4352  0E3E                     l1845:
  4353  0E3E  3096               	movlw	150
  4354  0E3F  02DE               	subwf	___fltol@exp1,f
  4355  0E40                     l1847:
  4356  0E40  1FDE               	btfss	___fltol@exp1,7
  4357  0E41  2E43               	goto	u1541
  4358  0E42  2E44               	goto	u1540
  4359  0E43                     u1541:
  4360  0E43  2E5E               	goto	l1857
  4361  0E44                     u1540:
  4362  0E44                     l1849:
  4363  0E44  085E               	movf	___fltol@exp1,w
  4364  0E45  3A80               	xorlw	128
  4365  0E46  3E97               	addlw	151
  4366  0E47  1803               	skipnc
  4367  0E48  2E4A               	goto	u1551
  4368  0E49  2E4B               	goto	u1550
  4369  0E4A                     u1551:
  4370  0E4A  2E4C               	goto	l1855
  4371  0E4B                     u1550:
  4372  0E4B  2E17               	goto	l1835
  4373  0E4C                     l1855:
  4374  0E4C  3001               	movlw	1
  4375  0E4D                     u1565:
  4376  0E4D  1003               	clrc
  4377  0E4E  0CD7               	rrf	___fltol@f1+3,f
  4378  0E4F  0CD6               	rrf	___fltol@f1+2,f
  4379  0E50  0CD5               	rrf	___fltol@f1+1,f
  4380  0E51  0CD4               	rrf	___fltol@f1,f
  4381  0E52  3EFF               	addlw	-1
  4382  0E53  1D03               	skipz
  4383  0E54  2E4D               	goto	u1565
  4384  0E55  3001               	movlw	1
  4385  0E56  00D8               	movwf	??___fltol
  4386  0E57  0858               	movf	??___fltol,w
  4387  0E58  07DE               	addwf	___fltol@exp1,f
  4388  0E59  1D03               	btfss	3,2
  4389  0E5A  2E5C               	goto	u1571
  4390  0E5B  2E5D               	goto	u1570
  4391  0E5C                     u1571:
  4392  0E5C  2E4C               	goto	l1855
  4393  0E5D                     u1570:
  4394  0E5D  2E75               	goto	l1865
  4395  0E5E                     l1857:
  4396  0E5E  3020               	movlw	32
  4397  0E5F  025E               	subwf	___fltol@exp1,w
  4398  0E60  1C03               	skipc
  4399  0E61  2E63               	goto	u1581
  4400  0E62  2E64               	goto	u1580
  4401  0E63                     u1581:
  4402  0E63  2E70               	goto	l565
  4403  0E64                     u1580:
  4404  0E64  2E17               	goto	l1835
  4405  0E65                     l1863:
  4406  0E65  3001               	movlw	1
  4407  0E66  00D8               	movwf	??___fltol
  4408  0E67                     u1595:
  4409  0E67  1003               	clrc
  4410  0E68  0DD4               	rlf	___fltol@f1,f
  4411  0E69  0DD5               	rlf	___fltol@f1+1,f
  4412  0E6A  0DD6               	rlf	___fltol@f1+2,f
  4413  0E6B  0DD7               	rlf	___fltol@f1+3,f
  4414  0E6C  0BD8               	decfsz	??___fltol,f
  4415  0E6D  2E67               	goto	u1595
  4416  0E6E  3001               	movlw	1
  4417  0E6F  02DE               	subwf	___fltol@exp1,f
  4418  0E70                     l565:
  4419  0E70  085E               	movf	___fltol@exp1,w
  4420  0E71  1D03               	btfss	3,2
  4421  0E72  2E74               	goto	u1601
  4422  0E73  2E75               	goto	u1600
  4423  0E74                     u1601:
  4424  0E74  2E65               	goto	l1863
  4425  0E75                     u1600:
  4426  0E75                     l1865:
  4427  0E75  085D               	movf	___fltol@sign1,w
  4428  0E76  1903               	btfsc	3,2
  4429  0E77  2E79               	goto	u1611
  4430  0E78  2E7A               	goto	u1610
  4431  0E79                     u1611:
  4432  0E79  2E85               	goto	l568
  4433  0E7A                     u1610:
  4434  0E7A                     l1867:
  4435  0E7A  09D4               	comf	___fltol@f1,f
  4436  0E7B  09D5               	comf	___fltol@f1+1,f
  4437  0E7C  09D6               	comf	___fltol@f1+2,f
  4438  0E7D  09D7               	comf	___fltol@f1+3,f
  4439  0E7E  0AD4               	incf	___fltol@f1,f
  4440  0E7F  1903               	skipnz
  4441  0E80  0AD5               	incf	___fltol@f1+1,f
  4442  0E81  1903               	skipnz
  4443  0E82  0AD6               	incf	___fltol@f1+2,f
  4444  0E83  1903               	skipnz
  4445  0E84  0AD7               	incf	___fltol@f1+3,f
  4446  0E85                     l568:
  4447  0E85                     l558:
  4448  0E85  0008               	return
  4449  0E86                     __end_of___fltol:
  4450                           
  4451                           	psect	text24
  4452  046A                     __ptext24:	
  4453 ;; *************** function ___flmul *****************
  4454 ;; Defined at:
  4455 ;;		line 8 in file "C:\Program Files\Microchip\xc8\v2.31\pic\sources\c90\common\sprcmul.c"
  4456 ;; Parameters:    Size  Location     Type
  4457 ;;  b               4    0[BANK0 ] long 
  4458 ;;  a               4    4[BANK0 ] long 
  4459 ;; Auto vars:     Size  Location     Type
  4460 ;;  prod            4   20[BANK0 ] struct .
  4461 ;;  grs             4   14[BANK0 ] unsigned long 
  4462 ;;  temp            2   24[BANK0 ] struct .
  4463 ;;  bexp            1   19[BANK0 ] unsigned char 
  4464 ;;  aexp            1   18[BANK0 ] unsigned char 
  4465 ;;  sign            1   13[BANK0 ] unsigned char 
  4466 ;; Return value:  Size  Location     Type
  4467 ;;                  4    0[BANK0 ] unsigned char 
  4468 ;; Registers used:
  4469 ;;		wreg, status,2, status,0, btemp+1, pclath, cstack
  4470 ;; Tracked objects:
  4471 ;;		On entry : 0/0
  4472 ;;		On exit  : 0/0
  4473 ;;		Unchanged: 0/0
  4474 ;; Data sizes:     COMMON   BANK0   BANK1   BANK3   BANK2
  4475 ;;      Params:         0       8       0       0       0
  4476 ;;      Locals:         0      13       0       0       0
  4477 ;;      Temps:          0       5       0       0       0
  4478 ;;      Totals:         0      26       0       0       0
  4479 ;;Total ram usage:       26 bytes
  4480 ;; Hardware stack levels used:    1
  4481 ;; Hardware stack levels required when called:    1
  4482 ;; This function calls:
  4483 ;;		__Umul8_16
  4484 ;; This function is called by:
  4485 ;;		_MapPot
  4486 ;; This function uses a non-reentrant model
  4487 ;;
  4488                           
  4489                           
  4490                           ;psect for function ___flmul
  4491  046A                     ___flmul:
  4492  046A                     l2011:	
  4493                           ;incstack = 0
  4494                           ; Regs used in ___flmul: [wreg+status,2+status,0+btemp+1+pclath+cstack]
  4495                           
  4496  046A  1283               	bcf	3,5	;RP0=0, select bank0
  4497  046B  1303               	bcf	3,6	;RP1=0, select bank0
  4498  046C  0823               	movf	___flmul@b+3,w
  4499  046D  3980               	andlw	128
  4500  046E  00A8               	movwf	??___flmul
  4501  046F  0828               	movf	??___flmul,w
  4502  0470  00AD               	movwf	___flmul@sign
  4503  0471                     l2013:
  4504  0471  0823               	movf	___flmul@b+3,w
  4505  0472  00A8               	movwf	??___flmul
  4506  0473  0728               	addwf	??___flmul,w
  4507  0474  00A9               	movwf	??___flmul+1
  4508  0475  0829               	movf	??___flmul+1,w
  4509  0476  00B3               	movwf	___flmul@bexp
  4510  0477                     l2015:
  4511  0477  1FA2               	btfss	___flmul@b+2,7
  4512  0478  2C7A               	goto	u1911
  4513  0479  2C7B               	goto	u1910
  4514  047A                     u1911:
  4515  047A  2C7C               	goto	l2019
  4516  047B                     u1910:
  4517  047B                     l2017:
  4518  047B  1433               	bsf	___flmul@bexp,0
  4519  047C                     l2019:
  4520  047C  0833               	movf	___flmul@bexp,w
  4521  047D  1903               	btfsc	3,2
  4522  047E  2C80               	goto	u1921
  4523  047F  2C81               	goto	u1920
  4524  0480                     u1921:
  4525  0480  2C90               	goto	l2027
  4526  0481                     u1920:
  4527  0481                     l2021:
  4528  0481  0A33               	incf	___flmul@bexp,w
  4529  0482  1D03               	btfss	3,2
  4530  0483  2C85               	goto	u1931
  4531  0484  2C86               	goto	u1930
  4532  0485                     u1931:
  4533  0485  2C8E               	goto	l2025
  4534  0486                     u1930:
  4535  0486                     l2023:
  4536  0486  3000               	movlw	0
  4537  0487  00A3               	movwf	___flmul@b+3
  4538  0488  3000               	movlw	0
  4539  0489  00A2               	movwf	___flmul@b+2
  4540  048A  3000               	movlw	0
  4541  048B  00A1               	movwf	___flmul@b+1
  4542  048C  3000               	movlw	0
  4543  048D  00A0               	movwf	___flmul@b
  4544  048E                     l2025:
  4545  048E  17A2               	bsf	___flmul@b+2,7
  4546  048F  2C98               	goto	l2029
  4547  0490                     l2027:
  4548  0490  3000               	movlw	0
  4549  0491  00A3               	movwf	___flmul@b+3
  4550  0492  3000               	movlw	0
  4551  0493  00A2               	movwf	___flmul@b+2
  4552  0494  3000               	movlw	0
  4553  0495  00A1               	movwf	___flmul@b+1
  4554  0496  3000               	movlw	0
  4555  0497  00A0               	movwf	___flmul@b
  4556  0498                     l2029:
  4557  0498  0827               	movf	___flmul@a+3,w
  4558  0499  3980               	andlw	128
  4559  049A  00A8               	movwf	??___flmul
  4560  049B  0828               	movf	??___flmul,w
  4561  049C  06AD               	xorwf	___flmul@sign,f
  4562  049D                     l2031:
  4563  049D  0827               	movf	___flmul@a+3,w
  4564  049E  00A8               	movwf	??___flmul
  4565  049F  0728               	addwf	??___flmul,w
  4566  04A0  00A9               	movwf	??___flmul+1
  4567  04A1  0829               	movf	??___flmul+1,w
  4568  04A2  00B2               	movwf	___flmul@aexp
  4569  04A3                     l2033:
  4570  04A3  1FA6               	btfss	___flmul@a+2,7
  4571  04A4  2CA6               	goto	u1941
  4572  04A5  2CA7               	goto	u1940
  4573  04A6                     u1941:
  4574  04A6  2CA8               	goto	l2037
  4575  04A7                     u1940:
  4576  04A7                     l2035:
  4577  04A7  1432               	bsf	___flmul@aexp,0
  4578  04A8                     l2037:
  4579  04A8  0832               	movf	___flmul@aexp,w
  4580  04A9  1903               	btfsc	3,2
  4581  04AA  2CAC               	goto	u1951
  4582  04AB  2CAD               	goto	u1950
  4583  04AC                     u1951:
  4584  04AC  2CBC               	goto	l2045
  4585  04AD                     u1950:
  4586  04AD                     l2039:
  4587  04AD  0A32               	incf	___flmul@aexp,w
  4588  04AE  1D03               	btfss	3,2
  4589  04AF  2CB1               	goto	u1961
  4590  04B0  2CB2               	goto	u1960
  4591  04B1                     u1961:
  4592  04B1  2CBA               	goto	l2043
  4593  04B2                     u1960:
  4594  04B2                     l2041:
  4595  04B2  3000               	movlw	0
  4596  04B3  00A7               	movwf	___flmul@a+3
  4597  04B4  3000               	movlw	0
  4598  04B5  00A6               	movwf	___flmul@a+2
  4599  04B6  3000               	movlw	0
  4600  04B7  00A5               	movwf	___flmul@a+1
  4601  04B8  3000               	movlw	0
  4602  04B9  00A4               	movwf	___flmul@a
  4603  04BA                     l2043:
  4604  04BA  17A6               	bsf	___flmul@a+2,7
  4605  04BB  2CC4               	goto	l2047
  4606  04BC                     l2045:
  4607  04BC  3000               	movlw	0
  4608  04BD  00A7               	movwf	___flmul@a+3
  4609  04BE  3000               	movlw	0
  4610  04BF  00A6               	movwf	___flmul@a+2
  4611  04C0  3000               	movlw	0
  4612  04C1  00A5               	movwf	___flmul@a+1
  4613  04C2  3000               	movlw	0
  4614  04C3  00A4               	movwf	___flmul@a
  4615  04C4                     l2047:
  4616  04C4  0832               	movf	___flmul@aexp,w
  4617  04C5  1903               	btfsc	3,2
  4618  04C6  2CC8               	goto	u1971
  4619  04C7  2CC9               	goto	u1970
  4620  04C8                     u1971:
  4621  04C8  2CCE               	goto	l2051
  4622  04C9                     u1970:
  4623  04C9                     l2049:
  4624  04C9  0833               	movf	___flmul@bexp,w
  4625  04CA  1D03               	btfss	3,2
  4626  04CB  2CCD               	goto	u1981
  4627  04CC  2CCE               	goto	u1980
  4628  04CD                     u1981:
  4629  04CD  2CD7               	goto	l2055
  4630  04CE                     u1980:
  4631  04CE                     l2051:
  4632  04CE  3000               	movlw	0
  4633  04CF  00A3               	movwf	?___flmul+3
  4634  04D0  3000               	movlw	0
  4635  04D1  00A2               	movwf	?___flmul+2
  4636  04D2  3000               	movlw	0
  4637  04D3  00A1               	movwf	?___flmul+1
  4638  04D4  3000               	movlw	0
  4639  04D5  00A0               	movwf	?___flmul
  4640  04D6  2FCA               	goto	l761
  4641  04D7                     l2055:
  4642  04D7  0820               	movf	___flmul@b,w
  4643  04D8  00A8               	movwf	??___flmul
  4644  04D9  0828               	movf	??___flmul,w
  4645  04DA  00F0               	movwf	__Umul8_16@multiplicand
  4646  04DB  0826               	movf	___flmul@a+2,w
  4647  04DC  120A  158A  2480  120A  118A  	fcall	__Umul8_16
  4648  04E1  0871               	movf	?__Umul8_16+1,w
  4649  04E2  1283               	bcf	3,5	;RP0=0, select bank0
  4650  04E3  1303               	bcf	3,6	;RP1=0, select bank0
  4651  04E4  00B9               	movwf	___flmul@temp+1
  4652  04E5  0870               	movf	?__Umul8_16,w
  4653  04E6  00B8               	movwf	___flmul@temp
  4654  04E7                     l2057:
  4655  04E7  0838               	movf	___flmul@temp,w
  4656  04E8  00A8               	movwf	??___flmul
  4657  04E9  01A9               	clrf	??___flmul+1
  4658  04EA  01AA               	clrf	??___flmul+2
  4659  04EB  01AB               	clrf	??___flmul+3
  4660  04EC  082B               	movf	??___flmul+3,w
  4661  04ED  00B1               	movwf	___flmul@grs+3
  4662  04EE  082A               	movf	??___flmul+2,w
  4663  04EF  00B0               	movwf	___flmul@grs+2
  4664  04F0  0829               	movf	??___flmul+1,w
  4665  04F1  00AF               	movwf	___flmul@grs+1
  4666  04F2  0828               	movf	??___flmul,w
  4667  04F3  00AE               	movwf	___flmul@grs
  4668  04F4                     l2059:
  4669  04F4  0839               	movf	___flmul@temp+1,w
  4670  04F5  00A8               	movwf	??___flmul
  4671  04F6  01A9               	clrf	??___flmul+1
  4672  04F7  01AA               	clrf	??___flmul+2
  4673  04F8  01AB               	clrf	??___flmul+3
  4674  04F9  082B               	movf	??___flmul+3,w
  4675  04FA  00B7               	movwf	___flmul@prod+3
  4676  04FB  082A               	movf	??___flmul+2,w
  4677  04FC  00B6               	movwf	___flmul@prod+2
  4678  04FD  0829               	movf	??___flmul+1,w
  4679  04FE  00B5               	movwf	___flmul@prod+1
  4680  04FF  0828               	movf	??___flmul,w
  4681  0500  00B4               	movwf	___flmul@prod
  4682  0501  0821               	movf	___flmul@b+1,w
  4683  0502  00A8               	movwf	??___flmul
  4684  0503  0828               	movf	??___flmul,w
  4685  0504  00F0               	movwf	__Umul8_16@multiplicand
  4686  0505  0825               	movf	___flmul@a+1,w
  4687  0506  120A  158A  2480  120A  118A  	fcall	__Umul8_16
  4688  050B  0871               	movf	?__Umul8_16+1,w
  4689  050C  1283               	bcf	3,5	;RP0=0, select bank0
  4690  050D  1303               	bcf	3,6	;RP1=0, select bank0
  4691  050E  00B9               	movwf	___flmul@temp+1
  4692  050F  0870               	movf	?__Umul8_16,w
  4693  0510  00B8               	movwf	___flmul@temp
  4694  0511                     l2061:
  4695  0511  0838               	movf	___flmul@temp,w
  4696  0512  00A8               	movwf	??___flmul
  4697  0513  01A9               	clrf	??___flmul+1
  4698  0514  01AA               	clrf	??___flmul+2
  4699  0515  01AB               	clrf	??___flmul+3
  4700  0516  0828               	movf	??___flmul,w
  4701  0517  07AE               	addwf	___flmul@grs,f
  4702  0518  0829               	movf	??___flmul+1,w
  4703  0519  1103               	clrz
  4704  051A  1803               	skipnc
  4705  051B  3E01               	addlw	1
  4706  051C  1903               	skipnz
  4707  051D  2D1F               	goto	u1991
  4708  051E  07AF               	addwf	___flmul@grs+1,f
  4709  051F                     u1991:
  4710  051F  082A               	movf	??___flmul+2,w
  4711  0520  1103               	clrz
  4712  0521  1803               	skipnc
  4713  0522  3E01               	addlw	1
  4714  0523  1903               	skipnz
  4715  0524  2D26               	goto	u1992
  4716  0525  07B0               	addwf	___flmul@grs+2,f
  4717  0526                     u1992:
  4718  0526  082B               	movf	??___flmul+3,w
  4719  0527  1103               	clrz
  4720  0528  1803               	skipnc
  4721  0529  3E01               	addlw	1
  4722  052A  1903               	skipnz
  4723  052B  2D2D               	goto	u1993
  4724  052C  07B1               	addwf	___flmul@grs+3,f
  4725  052D                     u1993:
  4726  052D                     l2063:
  4727  052D  0839               	movf	___flmul@temp+1,w
  4728  052E  00A8               	movwf	??___flmul
  4729  052F  01A9               	clrf	??___flmul+1
  4730  0530  01AA               	clrf	??___flmul+2
  4731  0531  01AB               	clrf	??___flmul+3
  4732  0532  0828               	movf	??___flmul,w
  4733  0533  07B4               	addwf	___flmul@prod,f
  4734  0534  0829               	movf	??___flmul+1,w
  4735  0535  1103               	clrz
  4736  0536  1803               	skipnc
  4737  0537  3E01               	addlw	1
  4738  0538  1903               	skipnz
  4739  0539  2D3B               	goto	u2001
  4740  053A  07B5               	addwf	___flmul@prod+1,f
  4741  053B                     u2001:
  4742  053B  082A               	movf	??___flmul+2,w
  4743  053C  1103               	clrz
  4744  053D  1803               	skipnc
  4745  053E  3E01               	addlw	1
  4746  053F  1903               	skipnz
  4747  0540  2D42               	goto	u2002
  4748  0541  07B6               	addwf	___flmul@prod+2,f
  4749  0542                     u2002:
  4750  0542  082B               	movf	??___flmul+3,w
  4751  0543  1103               	clrz
  4752  0544  1803               	skipnc
  4753  0545  3E01               	addlw	1
  4754  0546  1903               	skipnz
  4755  0547  2D49               	goto	u2003
  4756  0548  07B7               	addwf	___flmul@prod+3,f
  4757  0549                     u2003:
  4758  0549  0822               	movf	___flmul@b+2,w
  4759  054A  00A8               	movwf	??___flmul
  4760  054B  0828               	movf	??___flmul,w
  4761  054C  00F0               	movwf	__Umul8_16@multiplicand
  4762  054D  0824               	movf	___flmul@a,w
  4763  054E  120A  158A  2480  120A  118A  	fcall	__Umul8_16
  4764  0553  0871               	movf	?__Umul8_16+1,w
  4765  0554  1283               	bcf	3,5	;RP0=0, select bank0
  4766  0555  1303               	bcf	3,6	;RP1=0, select bank0
  4767  0556  00B9               	movwf	___flmul@temp+1
  4768  0557  0870               	movf	?__Umul8_16,w
  4769  0558  00B8               	movwf	___flmul@temp
  4770  0559                     l2065:
  4771  0559  0838               	movf	___flmul@temp,w
  4772  055A  00A8               	movwf	??___flmul
  4773  055B  01A9               	clrf	??___flmul+1
  4774  055C  01AA               	clrf	??___flmul+2
  4775  055D  01AB               	clrf	??___flmul+3
  4776  055E  0828               	movf	??___flmul,w
  4777  055F  07AE               	addwf	___flmul@grs,f
  4778  0560  0829               	movf	??___flmul+1,w
  4779  0561  1103               	clrz
  4780  0562  1803               	skipnc
  4781  0563  3E01               	addlw	1
  4782  0564  1903               	skipnz
  4783  0565  2D67               	goto	u2011
  4784  0566  07AF               	addwf	___flmul@grs+1,f
  4785  0567                     u2011:
  4786  0567  082A               	movf	??___flmul+2,w
  4787  0568  1103               	clrz
  4788  0569  1803               	skipnc
  4789  056A  3E01               	addlw	1
  4790  056B  1903               	skipnz
  4791  056C  2D6E               	goto	u2012
  4792  056D  07B0               	addwf	___flmul@grs+2,f
  4793  056E                     u2012:
  4794  056E  082B               	movf	??___flmul+3,w
  4795  056F  1103               	clrz
  4796  0570  1803               	skipnc
  4797  0571  3E01               	addlw	1
  4798  0572  1903               	skipnz
  4799  0573  2D75               	goto	u2013
  4800  0574  07B1               	addwf	___flmul@grs+3,f
  4801  0575                     u2013:
  4802  0575                     l2067:
  4803  0575  0839               	movf	___flmul@temp+1,w
  4804  0576  00A8               	movwf	??___flmul
  4805  0577  01A9               	clrf	??___flmul+1
  4806  0578  01AA               	clrf	??___flmul+2
  4807  0579  01AB               	clrf	??___flmul+3
  4808  057A  0828               	movf	??___flmul,w
  4809  057B  07B4               	addwf	___flmul@prod,f
  4810  057C  0829               	movf	??___flmul+1,w
  4811  057D  1103               	clrz
  4812  057E  1803               	skipnc
  4813  057F  3E01               	addlw	1
  4814  0580  1903               	skipnz
  4815  0581  2D83               	goto	u2021
  4816  0582  07B5               	addwf	___flmul@prod+1,f
  4817  0583                     u2021:
  4818  0583  082A               	movf	??___flmul+2,w
  4819  0584  1103               	clrz
  4820  0585  1803               	skipnc
  4821  0586  3E01               	addlw	1
  4822  0587  1903               	skipnz
  4823  0588  2D8A               	goto	u2022
  4824  0589  07B6               	addwf	___flmul@prod+2,f
  4825  058A                     u2022:
  4826  058A  082B               	movf	??___flmul+3,w
  4827  058B  1103               	clrz
  4828  058C  1803               	skipnc
  4829  058D  3E01               	addlw	1
  4830  058E  1903               	skipnz
  4831  058F  2D91               	goto	u2023
  4832  0590  07B7               	addwf	___flmul@prod+3,f
  4833  0591                     u2023:
  4834  0591                     l2069:
  4835  0591  3008               	movlw	8
  4836  0592  00A8               	movwf	??___flmul
  4837  0593                     u2035:
  4838  0593  1003               	clrc
  4839  0594  0DAE               	rlf	___flmul@grs,f
  4840  0595  0DAF               	rlf	___flmul@grs+1,f
  4841  0596  0DB0               	rlf	___flmul@grs+2,f
  4842  0597  0DB1               	rlf	___flmul@grs+3,f
  4843  0598  0BA8               	decfsz	??___flmul,f
  4844  0599  2D93               	goto	u2035
  4845  059A                     l2071:
  4846  059A  0821               	movf	___flmul@b+1,w
  4847  059B  00A8               	movwf	??___flmul
  4848  059C  0828               	movf	??___flmul,w
  4849  059D  00F0               	movwf	__Umul8_16@multiplicand
  4850  059E  0824               	movf	___flmul@a,w
  4851  059F  120A  158A  2480  120A  118A  	fcall	__Umul8_16
  4852  05A4  0871               	movf	?__Umul8_16+1,w
  4853  05A5  1283               	bcf	3,5	;RP0=0, select bank0
  4854  05A6  1303               	bcf	3,6	;RP1=0, select bank0
  4855  05A7  00B9               	movwf	___flmul@temp+1
  4856  05A8  0870               	movf	?__Umul8_16,w
  4857  05A9  00B8               	movwf	___flmul@temp
  4858  05AA                     l2073:
  4859  05AA  0838               	movf	___flmul@temp,w
  4860  05AB  00A8               	movwf	??___flmul
  4861  05AC  0839               	movf	___flmul@temp+1,w
  4862  05AD  00A9               	movwf	??___flmul+1
  4863  05AE  01AA               	clrf	??___flmul+2
  4864  05AF  01AB               	clrf	??___flmul+3
  4865  05B0  0828               	movf	??___flmul,w
  4866  05B1  07AE               	addwf	___flmul@grs,f
  4867  05B2  0829               	movf	??___flmul+1,w
  4868  05B3  1103               	clrz
  4869  05B4  1803               	skipnc
  4870  05B5  3E01               	addlw	1
  4871  05B6  1903               	skipnz
  4872  05B7  2DB9               	goto	u2041
  4873  05B8  07AF               	addwf	___flmul@grs+1,f
  4874  05B9                     u2041:
  4875  05B9  082A               	movf	??___flmul+2,w
  4876  05BA  1103               	clrz
  4877  05BB  1803               	skipnc
  4878  05BC  3E01               	addlw	1
  4879  05BD  1903               	skipnz
  4880  05BE  2DC0               	goto	u2042
  4881  05BF  07B0               	addwf	___flmul@grs+2,f
  4882  05C0                     u2042:
  4883  05C0  082B               	movf	??___flmul+3,w
  4884  05C1  1103               	clrz
  4885  05C2  1803               	skipnc
  4886  05C3  3E01               	addlw	1
  4887  05C4  1903               	skipnz
  4888  05C5  2DC7               	goto	u2043
  4889  05C6  07B1               	addwf	___flmul@grs+3,f
  4890  05C7                     u2043:
  4891  05C7                     l2075:
  4892  05C7  0820               	movf	___flmul@b,w
  4893  05C8  00A8               	movwf	??___flmul
  4894  05C9  0828               	movf	??___flmul,w
  4895  05CA  00F0               	movwf	__Umul8_16@multiplicand
  4896  05CB  0825               	movf	___flmul@a+1,w
  4897  05CC  120A  158A  2480  120A  118A  	fcall	__Umul8_16
  4898  05D1  0871               	movf	?__Umul8_16+1,w
  4899  05D2  1283               	bcf	3,5	;RP0=0, select bank0
  4900  05D3  1303               	bcf	3,6	;RP1=0, select bank0
  4901  05D4  00B9               	movwf	___flmul@temp+1
  4902  05D5  0870               	movf	?__Umul8_16,w
  4903  05D6  00B8               	movwf	___flmul@temp
  4904  05D7                     l2077:
  4905  05D7  0838               	movf	___flmul@temp,w
  4906  05D8  00A8               	movwf	??___flmul
  4907  05D9  0839               	movf	___flmul@temp+1,w
  4908  05DA  00A9               	movwf	??___flmul+1
  4909  05DB  01AA               	clrf	??___flmul+2
  4910  05DC  01AB               	clrf	??___flmul+3
  4911  05DD  0828               	movf	??___flmul,w
  4912  05DE  07AE               	addwf	___flmul@grs,f
  4913  05DF  0829               	movf	??___flmul+1,w
  4914  05E0  1103               	clrz
  4915  05E1  1803               	skipnc
  4916  05E2  3E01               	addlw	1
  4917  05E3  1903               	skipnz
  4918  05E4  2DE6               	goto	u2051
  4919  05E5  07AF               	addwf	___flmul@grs+1,f
  4920  05E6                     u2051:
  4921  05E6  082A               	movf	??___flmul+2,w
  4922  05E7  1103               	clrz
  4923  05E8  1803               	skipnc
  4924  05E9  3E01               	addlw	1
  4925  05EA  1903               	skipnz
  4926  05EB  2DED               	goto	u2052
  4927  05EC  07B0               	addwf	___flmul@grs+2,f
  4928  05ED                     u2052:
  4929  05ED  082B               	movf	??___flmul+3,w
  4930  05EE  1103               	clrz
  4931  05EF  1803               	skipnc
  4932  05F0  3E01               	addlw	1
  4933  05F1  1903               	skipnz
  4934  05F2  2DF4               	goto	u2053
  4935  05F3  07B1               	addwf	___flmul@grs+3,f
  4936  05F4                     u2053:
  4937  05F4                     l2079:
  4938  05F4  3008               	movlw	8
  4939  05F5  00A8               	movwf	??___flmul
  4940  05F6                     u2065:
  4941  05F6  1003               	clrc
  4942  05F7  0DAE               	rlf	___flmul@grs,f
  4943  05F8  0DAF               	rlf	___flmul@grs+1,f
  4944  05F9  0DB0               	rlf	___flmul@grs+2,f
  4945  05FA  0DB1               	rlf	___flmul@grs+3,f
  4946  05FB  0BA8               	decfsz	??___flmul,f
  4947  05FC  2DF6               	goto	u2065
  4948  05FD  0820               	movf	___flmul@b,w
  4949  05FE  00A8               	movwf	??___flmul
  4950  05FF  0828               	movf	??___flmul,w
  4951  0600  00F0               	movwf	__Umul8_16@multiplicand
  4952  0601  0824               	movf	___flmul@a,w
  4953  0602  120A  158A  2480  120A  118A  	fcall	__Umul8_16
  4954  0607  0871               	movf	?__Umul8_16+1,w
  4955  0608  1283               	bcf	3,5	;RP0=0, select bank0
  4956  0609  1303               	bcf	3,6	;RP1=0, select bank0
  4957  060A  00B9               	movwf	___flmul@temp+1
  4958  060B  0870               	movf	?__Umul8_16,w
  4959  060C  00B8               	movwf	___flmul@temp
  4960  060D                     l2081:
  4961  060D  0838               	movf	___flmul@temp,w
  4962  060E  00A8               	movwf	??___flmul
  4963  060F  0839               	movf	___flmul@temp+1,w
  4964  0610  00A9               	movwf	??___flmul+1
  4965  0611  01AA               	clrf	??___flmul+2
  4966  0612  01AB               	clrf	??___flmul+3
  4967  0613  0828               	movf	??___flmul,w
  4968  0614  07AE               	addwf	___flmul@grs,f
  4969  0615  0829               	movf	??___flmul+1,w
  4970  0616  1103               	clrz
  4971  0617  1803               	skipnc
  4972  0618  3E01               	addlw	1
  4973  0619  1903               	skipnz
  4974  061A  2E1C               	goto	u2071
  4975  061B  07AF               	addwf	___flmul@grs+1,f
  4976  061C                     u2071:
  4977  061C  082A               	movf	??___flmul+2,w
  4978  061D  1103               	clrz
  4979  061E  1803               	skipnc
  4980  061F  3E01               	addlw	1
  4981  0620  1903               	skipnz
  4982  0621  2E23               	goto	u2072
  4983  0622  07B0               	addwf	___flmul@grs+2,f
  4984  0623                     u2072:
  4985  0623  082B               	movf	??___flmul+3,w
  4986  0624  1103               	clrz
  4987  0625  1803               	skipnc
  4988  0626  3E01               	addlw	1
  4989  0627  1903               	skipnz
  4990  0628  2E2A               	goto	u2073
  4991  0629  07B1               	addwf	___flmul@grs+3,f
  4992  062A                     u2073:
  4993  062A                     l2083:
  4994  062A  0821               	movf	___flmul@b+1,w
  4995  062B  00A8               	movwf	??___flmul
  4996  062C  0828               	movf	??___flmul,w
  4997  062D  00F0               	movwf	__Umul8_16@multiplicand
  4998  062E  0826               	movf	___flmul@a+2,w
  4999  062F  120A  158A  2480  120A  118A  	fcall	__Umul8_16
  5000  0634  0871               	movf	?__Umul8_16+1,w
  5001  0635  1283               	bcf	3,5	;RP0=0, select bank0
  5002  0636  1303               	bcf	3,6	;RP1=0, select bank0
  5003  0637  00B9               	movwf	___flmul@temp+1
  5004  0638  0870               	movf	?__Umul8_16,w
  5005  0639  00B8               	movwf	___flmul@temp
  5006  063A  0838               	movf	___flmul@temp,w
  5007  063B  00A8               	movwf	??___flmul
  5008  063C  0839               	movf	___flmul@temp+1,w
  5009  063D  00A9               	movwf	??___flmul+1
  5010  063E  01AA               	clrf	??___flmul+2
  5011  063F  01AB               	clrf	??___flmul+3
  5012  0640  0828               	movf	??___flmul,w
  5013  0641  07B4               	addwf	___flmul@prod,f
  5014  0642  0829               	movf	??___flmul+1,w
  5015  0643  1103               	clrz
  5016  0644  1803               	skipnc
  5017  0645  3E01               	addlw	1
  5018  0646  1903               	skipnz
  5019  0647  2E49               	goto	u2081
  5020  0648  07B5               	addwf	___flmul@prod+1,f
  5021  0649                     u2081:
  5022  0649  082A               	movf	??___flmul+2,w
  5023  064A  1103               	clrz
  5024  064B  1803               	skipnc
  5025  064C  3E01               	addlw	1
  5026  064D  1903               	skipnz
  5027  064E  2E50               	goto	u2082
  5028  064F  07B6               	addwf	___flmul@prod+2,f
  5029  0650                     u2082:
  5030  0650  082B               	movf	??___flmul+3,w
  5031  0651  1103               	clrz
  5032  0652  1803               	skipnc
  5033  0653  3E01               	addlw	1
  5034  0654  1903               	skipnz
  5035  0655  2E57               	goto	u2083
  5036  0656  07B7               	addwf	___flmul@prod+3,f
  5037  0657                     u2083:
  5038  0657                     l2085:
  5039  0657  0822               	movf	___flmul@b+2,w
  5040  0658  00A8               	movwf	??___flmul
  5041  0659  0828               	movf	??___flmul,w
  5042  065A  00F0               	movwf	__Umul8_16@multiplicand
  5043  065B  0825               	movf	___flmul@a+1,w
  5044  065C  120A  158A  2480  120A  118A  	fcall	__Umul8_16
  5045  0661  0871               	movf	?__Umul8_16+1,w
  5046  0662  1283               	bcf	3,5	;RP0=0, select bank0
  5047  0663  1303               	bcf	3,6	;RP1=0, select bank0
  5048  0664  00B9               	movwf	___flmul@temp+1
  5049  0665  0870               	movf	?__Umul8_16,w
  5050  0666  00B8               	movwf	___flmul@temp
  5051  0667                     l2087:
  5052  0667  0838               	movf	___flmul@temp,w
  5053  0668  00A8               	movwf	??___flmul
  5054  0669  0839               	movf	___flmul@temp+1,w
  5055  066A  00A9               	movwf	??___flmul+1
  5056  066B  01AA               	clrf	??___flmul+2
  5057  066C  01AB               	clrf	??___flmul+3
  5058  066D  0828               	movf	??___flmul,w
  5059  066E  07B4               	addwf	___flmul@prod,f
  5060  066F  0829               	movf	??___flmul+1,w
  5061  0670  1103               	clrz
  5062  0671  1803               	skipnc
  5063  0672  3E01               	addlw	1
  5064  0673  1903               	skipnz
  5065  0674  2E76               	goto	u2091
  5066  0675  07B5               	addwf	___flmul@prod+1,f
  5067  0676                     u2091:
  5068  0676  082A               	movf	??___flmul+2,w
  5069  0677  1103               	clrz
  5070  0678  1803               	skipnc
  5071  0679  3E01               	addlw	1
  5072  067A  1903               	skipnz
  5073  067B  2E7D               	goto	u2092
  5074  067C  07B6               	addwf	___flmul@prod+2,f
  5075  067D                     u2092:
  5076  067D  082B               	movf	??___flmul+3,w
  5077  067E  1103               	clrz
  5078  067F  1803               	skipnc
  5079  0680  3E01               	addlw	1
  5080  0681  1903               	skipnz
  5081  0682  2E84               	goto	u2093
  5082  0683  07B7               	addwf	___flmul@prod+3,f
  5083  0684                     u2093:
  5084  0684  0822               	movf	___flmul@b+2,w
  5085  0685  00A8               	movwf	??___flmul
  5086  0686  0828               	movf	??___flmul,w
  5087  0687  00F0               	movwf	__Umul8_16@multiplicand
  5088  0688  0826               	movf	___flmul@a+2,w
  5089  0689  120A  158A  2480  120A  118A  	fcall	__Umul8_16
  5090  068E  0871               	movf	?__Umul8_16+1,w
  5091  068F  1283               	bcf	3,5	;RP0=0, select bank0
  5092  0690  1303               	bcf	3,6	;RP1=0, select bank0
  5093  0691  00B9               	movwf	___flmul@temp+1
  5094  0692  0870               	movf	?__Umul8_16,w
  5095  0693  00B8               	movwf	___flmul@temp
  5096  0694                     l2089:
  5097  0694  0838               	movf	___flmul@temp,w
  5098  0695  00A8               	movwf	??___flmul
  5099  0696  0839               	movf	___flmul@temp+1,w
  5100  0697  00A9               	movwf	??___flmul+1
  5101  0698  01AA               	clrf	??___flmul+2
  5102  0699  01AB               	clrf	??___flmul+3
  5103  069A  3008               	movlw	8
  5104  069B                     u2105:
  5105  069B  1003               	clrc
  5106  069C  0DA8               	rlf	??___flmul,f
  5107  069D  0DA9               	rlf	??___flmul+1,f
  5108  069E  0DAA               	rlf	??___flmul+2,f
  5109  069F  0DAB               	rlf	??___flmul+3,f
  5110  06A0                     u2100:
  5111  06A0  3EFF               	addlw	-1
  5112  06A1  1D03               	skipz
  5113  06A2  2E9B               	goto	u2105
  5114  06A3  0828               	movf	??___flmul,w
  5115  06A4  07B4               	addwf	___flmul@prod,f
  5116  06A5  0829               	movf	??___flmul+1,w
  5117  06A6  1103               	clrz
  5118  06A7  1803               	skipnc
  5119  06A8  3E01               	addlw	1
  5120  06A9  1903               	skipnz
  5121  06AA  2EAC               	goto	u2111
  5122  06AB  07B5               	addwf	___flmul@prod+1,f
  5123  06AC                     u2111:
  5124  06AC  082A               	movf	??___flmul+2,w
  5125  06AD  1103               	clrz
  5126  06AE  1803               	skipnc
  5127  06AF  3E01               	addlw	1
  5128  06B0  1903               	skipnz
  5129  06B1  2EB3               	goto	u2112
  5130  06B2  07B6               	addwf	___flmul@prod+2,f
  5131  06B3                     u2112:
  5132  06B3  082B               	movf	??___flmul+3,w
  5133  06B4  1103               	clrz
  5134  06B5  1803               	skipnc
  5135  06B6  3E01               	addlw	1
  5136  06B7  1903               	skipnz
  5137  06B8  2EBA               	goto	u2113
  5138  06B9  07B7               	addwf	___flmul@prod+3,f
  5139  06BA                     u2113:
  5140  06BA                     l2091:
  5141  06BA  082E               	movf	___flmul@grs,w
  5142  06BB  00A8               	movwf	??___flmul
  5143  06BC  082F               	movf	___flmul@grs+1,w
  5144  06BD  00A9               	movwf	??___flmul+1
  5145  06BE  0830               	movf	___flmul@grs+2,w
  5146  06BF  00AA               	movwf	??___flmul+2
  5147  06C0  0831               	movf	___flmul@grs+3,w
  5148  06C1  00AB               	movwf	??___flmul+3
  5149  06C2  3018               	movlw	24
  5150  06C3                     u2125:
  5151  06C3  1003               	clrc
  5152  06C4  0CAB               	rrf	??___flmul+3,f
  5153  06C5  0CAA               	rrf	??___flmul+2,f
  5154  06C6  0CA9               	rrf	??___flmul+1,f
  5155  06C7  0CA8               	rrf	??___flmul,f
  5156  06C8                     u2120:
  5157  06C8  3EFF               	addlw	-1
  5158  06C9  1D03               	skipz
  5159  06CA  2EC3               	goto	u2125
  5160  06CB  0828               	movf	??___flmul,w
  5161  06CC  07B4               	addwf	___flmul@prod,f
  5162  06CD  0829               	movf	??___flmul+1,w
  5163  06CE  1103               	clrz
  5164  06CF  1803               	skipnc
  5165  06D0  3E01               	addlw	1
  5166  06D1  1903               	skipnz
  5167  06D2  2ED4               	goto	u2131
  5168  06D3  07B5               	addwf	___flmul@prod+1,f
  5169  06D4                     u2131:
  5170  06D4  082A               	movf	??___flmul+2,w
  5171  06D5  1103               	clrz
  5172  06D6  1803               	skipnc
  5173  06D7  3E01               	addlw	1
  5174  06D8  1903               	skipnz
  5175  06D9  2EDB               	goto	u2132
  5176  06DA  07B6               	addwf	___flmul@prod+2,f
  5177  06DB                     u2132:
  5178  06DB  082B               	movf	??___flmul+3,w
  5179  06DC  1103               	clrz
  5180  06DD  1803               	skipnc
  5181  06DE  3E01               	addlw	1
  5182  06DF  1903               	skipnz
  5183  06E0  2EE2               	goto	u2133
  5184  06E1  07B7               	addwf	___flmul@prod+3,f
  5185  06E2                     u2133:
  5186  06E2                     l2093:
  5187  06E2  3008               	movlw	8
  5188  06E3  00A8               	movwf	??___flmul
  5189  06E4                     u2145:
  5190  06E4  1003               	clrc
  5191  06E5  0DAE               	rlf	___flmul@grs,f
  5192  06E6  0DAF               	rlf	___flmul@grs+1,f
  5193  06E7  0DB0               	rlf	___flmul@grs+2,f
  5194  06E8  0DB1               	rlf	___flmul@grs+3,f
  5195  06E9  0BA8               	decfsz	??___flmul,f
  5196  06EA  2EE4               	goto	u2145
  5197  06EB                     l2095:
  5198  06EB  0833               	movf	___flmul@bexp,w
  5199  06EC  0732               	addwf	___flmul@aexp,w
  5200  06ED  00A8               	movwf	??___flmul
  5201  06EE  01A9               	clrf	??___flmul+1
  5202  06EF  0DA9               	rlf	??___flmul+1,f
  5203  06F0  0828               	movf	??___flmul,w
  5204  06F1  3E82               	addlw	130
  5205  06F2  00B8               	movwf	___flmul@temp
  5206  06F3  0829               	movf	??___flmul+1,w
  5207  06F4  1803               	skipnc
  5208  06F5  3E01               	addlw	1
  5209  06F6  3EFF               	addlw	255
  5210  06F7  00B9               	movwf	___flmul@temp+1
  5211  06F8  2F16               	goto	l2107
  5212  06F9                     l2097:
  5213  06F9  3001               	movlw	1
  5214  06FA  00A8               	movwf	??___flmul
  5215  06FB                     u2155:
  5216  06FB  1003               	clrc
  5217  06FC  0DB4               	rlf	___flmul@prod,f
  5218  06FD  0DB5               	rlf	___flmul@prod+1,f
  5219  06FE  0DB6               	rlf	___flmul@prod+2,f
  5220  06FF  0DB7               	rlf	___flmul@prod+3,f
  5221  0700  0BA8               	decfsz	??___flmul,f
  5222  0701  2EFB               	goto	u2155
  5223  0702                     l2099:
  5224  0702  1FB1               	btfss	___flmul@grs+3,7
  5225  0703  2F05               	goto	u2161
  5226  0704  2F06               	goto	u2160
  5227  0705                     u2161:
  5228  0705  2F07               	goto	l2103
  5229  0706                     u2160:
  5230  0706                     l2101:
  5231  0706  1434               	bsf	___flmul@prod,0
  5232  0707                     l2103:
  5233  0707  3001               	movlw	1
  5234  0708  00A8               	movwf	??___flmul
  5235  0709                     u2175:
  5236  0709  1003               	clrc
  5237  070A  0DAE               	rlf	___flmul@grs,f
  5238  070B  0DAF               	rlf	___flmul@grs+1,f
  5239  070C  0DB0               	rlf	___flmul@grs+2,f
  5240  070D  0DB1               	rlf	___flmul@grs+3,f
  5241  070E  0BA8               	decfsz	??___flmul,f
  5242  070F  2F09               	goto	u2175
  5243  0710                     l2105:
  5244  0710  30FF               	movlw	255
  5245  0711  07B8               	addwf	___flmul@temp,f
  5246  0712  1803               	skipnc
  5247  0713  0AB9               	incf	___flmul@temp+1,f
  5248  0714  30FF               	movlw	255
  5249  0715  07B9               	addwf	___flmul@temp+1,f
  5250  0716                     l2107:
  5251  0716  1FB6               	btfss	___flmul@prod+2,7
  5252  0717  2F19               	goto	u2181
  5253  0718  2F1A               	goto	u2180
  5254  0719                     u2181:
  5255  0719  2EF9               	goto	l2097
  5256  071A                     u2180:
  5257  071A                     l2109:
  5258  071A  01B2               	clrf	___flmul@aexp
  5259  071B                     l2111:
  5260  071B  1FB1               	btfss	___flmul@grs+3,7
  5261  071C  2F1E               	goto	u2191
  5262  071D  2F1F               	goto	u2190
  5263  071E                     u2191:
  5264  071E  2F3B               	goto	l2119
  5265  071F                     u2190:
  5266  071F                     l2113:
  5267  071F  30FF               	movlw	255
  5268  0720  052E               	andwf	___flmul@grs,w
  5269  0721  00A8               	movwf	??___flmul
  5270  0722  30FF               	movlw	255
  5271  0723  052F               	andwf	___flmul@grs+1,w
  5272  0724  00A9               	movwf	??___flmul+1
  5273  0725  30FF               	movlw	255
  5274  0726  0530               	andwf	___flmul@grs+2,w
  5275  0727  00AA               	movwf	??___flmul+2
  5276  0728  307F               	movlw	127
  5277  0729  0531               	andwf	___flmul@grs+3,w
  5278  072A  00AB               	movwf	??___flmul+3
  5279  072B  082B               	movf	??___flmul+3,w
  5280  072C  042A               	iorwf	??___flmul+2,w
  5281  072D  0429               	iorwf	??___flmul+1,w
  5282  072E  0428               	iorwf	??___flmul,w
  5283  072F  1903               	skipnz
  5284  0730  2F32               	goto	u2201
  5285  0731  2F33               	goto	u2200
  5286  0732                     u2201:
  5287  0732  2F36               	goto	l767
  5288  0733                     u2200:
  5289  0733                     l2115:
  5290  0733  01B2               	clrf	___flmul@aexp
  5291  0734  0AB2               	incf	___flmul@aexp,f
  5292  0735  2F3B               	goto	l2119
  5293  0736                     l767:
  5294  0736  1C34               	btfss	___flmul@prod,0
  5295  0737  2F39               	goto	u2211
  5296  0738  2F3A               	goto	u2210
  5297  0739                     u2211:
  5298  0739  2F3B               	goto	l2119
  5299  073A                     u2210:
  5300  073A  2F33               	goto	l2115
  5301  073B                     l2119:
  5302  073B  0832               	movf	___flmul@aexp,w
  5303  073C  1903               	btfsc	3,2
  5304  073D  2F3F               	goto	u2221
  5305  073E  2F40               	goto	u2220
  5306  073F                     u2221:
  5307  073F  2F71               	goto	l2129
  5308  0740                     u2220:
  5309  0740                     l2121:
  5310  0740  3001               	movlw	1
  5311  0741  07B4               	addwf	___flmul@prod,f
  5312  0742  3000               	movlw	0
  5313  0743  1803               	skipnc
  5314  0744  3001               	movlw	1
  5315  0745  07B5               	addwf	___flmul@prod+1,f
  5316  0746  3000               	movlw	0
  5317  0747  1803               	skipnc
  5318  0748  3001               	movlw	1
  5319  0749  07B6               	addwf	___flmul@prod+2,f
  5320  074A  3000               	movlw	0
  5321  074B  1803               	skipnc
  5322  074C  3001               	movlw	1
  5323  074D  07B7               	addwf	___flmul@prod+3,f
  5324  074E                     l2123:
  5325  074E  1C37               	btfss	___flmul@prod+3,0
  5326  074F  2F51               	goto	u2231
  5327  0750  2F52               	goto	u2230
  5328  0751                     u2231:
  5329  0751  2F71               	goto	l2129
  5330  0752                     u2230:
  5331  0752                     l2125:
  5332  0752  0834               	movf	___flmul@prod,w
  5333  0753  00A8               	movwf	??___flmul
  5334  0754  0835               	movf	___flmul@prod+1,w
  5335  0755  00A9               	movwf	??___flmul+1
  5336  0756  0836               	movf	___flmul@prod+2,w
  5337  0757  00AA               	movwf	??___flmul+2
  5338  0758  0837               	movf	___flmul@prod+3,w
  5339  0759  00AB               	movwf	??___flmul+3
  5340  075A  3001               	movlw	1
  5341  075B  00AC               	movwf	??___flmul+4
  5342  075C                     u2245:
  5343  075C  0D2B               	rlf	??___flmul+3,w
  5344  075D  0CAB               	rrf	??___flmul+3,f
  5345  075E  0CAA               	rrf	??___flmul+2,f
  5346  075F  0CA9               	rrf	??___flmul+1,f
  5347  0760  0CA8               	rrf	??___flmul,f
  5348  0761                     u2240:
  5349  0761  0BAC               	decfsz	??___flmul+4,f
  5350  0762  2F5C               	goto	u2245
  5351  0763  082B               	movf	??___flmul+3,w
  5352  0764  00B7               	movwf	___flmul@prod+3
  5353  0765  082A               	movf	??___flmul+2,w
  5354  0766  00B6               	movwf	___flmul@prod+2
  5355  0767  0829               	movf	??___flmul+1,w
  5356  0768  00B5               	movwf	___flmul@prod+1
  5357  0769  0828               	movf	??___flmul,w
  5358  076A  00B4               	movwf	___flmul@prod
  5359  076B                     l2127:
  5360  076B  3001               	movlw	1
  5361  076C  07B8               	addwf	___flmul@temp,f
  5362  076D  1803               	skipnc
  5363  076E  0AB9               	incf	___flmul@temp+1,f
  5364  076F  3000               	movlw	0
  5365  0770  07B9               	addwf	___flmul@temp+1,f
  5366  0771                     l2129:
  5367  0771  0839               	movf	___flmul@temp+1,w
  5368  0772  3A80               	xorlw	128
  5369  0773  00FF               	movwf	btemp+1
  5370  0774  3080               	movlw	128
  5371  0775  027F               	subwf	btemp+1,w
  5372  0776  1D03               	skipz
  5373  0777  2F7A               	goto	u2255
  5374  0778  30FF               	movlw	255
  5375  0779  0238               	subwf	___flmul@temp,w
  5376  077A                     u2255:
  5377  077A  1C03               	skipc
  5378  077B  2F7D               	goto	u2251
  5379  077C  2F7E               	goto	u2250
  5380  077D                     u2251:
  5381  077D  2F89               	goto	l2133
  5382  077E                     u2250:
  5383  077E                     l2131:
  5384  077E  307F               	movlw	127
  5385  077F  1283               	bcf	3,5	;RP0=0, select bank0
  5386  0780  1303               	bcf	3,6	;RP1=0, select bank0
  5387  0781  00B7               	movwf	___flmul@prod+3
  5388  0782  3080               	movlw	128
  5389  0783  00B6               	movwf	___flmul@prod+2
  5390  0784  3000               	movlw	0
  5391  0785  00B5               	movwf	___flmul@prod+1
  5392  0786  3000               	movlw	0
  5393  0787  00B4               	movwf	___flmul@prod
  5394  0788  2FBE               	goto	l773
  5395  0789                     l2133:
  5396  0789  1283               	bcf	3,5	;RP0=0, select bank0
  5397  078A  1303               	bcf	3,6	;RP1=0, select bank0
  5398  078B  0839               	movf	___flmul@temp+1,w
  5399  078C  3A80               	xorlw	128
  5400  078D  00FF               	movwf	btemp+1
  5401  078E  3080               	movlw	128
  5402  078F  027F               	subwf	btemp+1,w
  5403  0790  1D03               	skipz
  5404  0791  2F94               	goto	u2265
  5405  0792  3001               	movlw	1
  5406  0793  0238               	subwf	___flmul@temp,w
  5407  0794                     u2265:
  5408  0794  1803               	skipnc
  5409  0795  2F97               	goto	u2261
  5410  0796  2F98               	goto	u2260
  5411  0797                     u2261:
  5412  0797  2FA4               	goto	l2139
  5413  0798                     u2260:
  5414  0798                     l2135:
  5415  0798  3000               	movlw	0
  5416  0799  1283               	bcf	3,5	;RP0=0, select bank0
  5417  079A  1303               	bcf	3,6	;RP1=0, select bank0
  5418  079B  00B7               	movwf	___flmul@prod+3
  5419  079C  3000               	movlw	0
  5420  079D  00B6               	movwf	___flmul@prod+2
  5421  079E  3000               	movlw	0
  5422  079F  00B5               	movwf	___flmul@prod+1
  5423  07A0  3000               	movlw	0
  5424  07A1  00B4               	movwf	___flmul@prod
  5425  07A2                     l2137:
  5426  07A2  01AD               	clrf	___flmul@sign
  5427  07A3  2FBE               	goto	l773
  5428  07A4                     l2139:
  5429  07A4  1283               	bcf	3,5	;RP0=0, select bank0
  5430  07A5  1303               	bcf	3,6	;RP1=0, select bank0
  5431  07A6  0838               	movf	___flmul@temp,w
  5432  07A7  00A8               	movwf	??___flmul
  5433  07A8  0828               	movf	??___flmul,w
  5434  07A9  00B3               	movwf	___flmul@bexp
  5435  07AA  30FF               	movlw	255
  5436  07AB  05B4               	andwf	___flmul@prod,f
  5437  07AC  30FF               	movlw	255
  5438  07AD  05B5               	andwf	___flmul@prod+1,f
  5439  07AE  307F               	movlw	127
  5440  07AF  05B6               	andwf	___flmul@prod+2,f
  5441  07B0  3000               	movlw	0
  5442  07B1  05B7               	andwf	___flmul@prod+3,f
  5443  07B2                     l2141:
  5444  07B2  1C33               	btfss	___flmul@bexp,0
  5445  07B3  2FB5               	goto	u2271
  5446  07B4  2FB6               	goto	u2270
  5447  07B5                     u2271:
  5448  07B5  2FB7               	goto	l2145
  5449  07B6                     u2270:
  5450  07B6                     l2143:
  5451  07B6  17B6               	bsf	___flmul@prod+2,7
  5452  07B7                     l2145:
  5453  07B7  0833               	movf	___flmul@bexp,w
  5454  07B8  00A8               	movwf	??___flmul
  5455  07B9  1003               	clrc
  5456  07BA  0C28               	rrf	??___flmul,w
  5457  07BB  00A9               	movwf	??___flmul+1
  5458  07BC  0829               	movf	??___flmul+1,w
  5459  07BD  00B7               	movwf	___flmul@prod+3
  5460  07BE                     l773:
  5461  07BE  082D               	movf	___flmul@sign,w
  5462  07BF  00A8               	movwf	??___flmul
  5463  07C0  0828               	movf	??___flmul,w
  5464  07C1  04B7               	iorwf	___flmul@prod+3,f
  5465  07C2                     l2147:
  5466  07C2  0837               	movf	___flmul@prod+3,w
  5467  07C3  00A3               	movwf	?___flmul+3
  5468  07C4  0836               	movf	___flmul@prod+2,w
  5469  07C5  00A2               	movwf	?___flmul+2
  5470  07C6  0835               	movf	___flmul@prod+1,w
  5471  07C7  00A1               	movwf	?___flmul+1
  5472  07C8  0834               	movf	___flmul@prod,w
  5473  07C9  00A0               	movwf	?___flmul
  5474  07CA                     l761:
  5475  07CA  0008               	return
  5476  07CB                     __end_of___flmul:
  5477                           
  5478                           	psect	text25
  5479  0C80                     __ptext25:	
  5480 ;; *************** function __Umul8_16 *****************
  5481 ;; Defined at:
  5482 ;;		line 4 in file "C:\Program Files\Microchip\xc8\v2.31\pic\sources\c90\common\Umul8_16.c"
  5483 ;; Parameters:    Size  Location     Type
  5484 ;;  multiplier      1    wreg     unsigned char 
  5485 ;;  multiplicand    1    0[COMMON] unsigned char 
  5486 ;; Auto vars:     Size  Location     Type
  5487 ;;  multiplier      1    8[COMMON] unsigned char 
  5488 ;;  word_mpld       2    6[COMMON] unsigned int 
  5489 ;;  product         2    4[COMMON] unsigned int 
  5490 ;; Return value:  Size  Location     Type
  5491 ;;                  2    0[COMMON] unsigned int 
  5492 ;; Registers used:
  5493 ;;		wreg, status,2, status,0
  5494 ;; Tracked objects:
  5495 ;;		On entry : 0/0
  5496 ;;		On exit  : 0/0
  5497 ;;		Unchanged: 0/0
  5498 ;; Data sizes:     COMMON   BANK0   BANK1   BANK3   BANK2
  5499 ;;      Params:         2       0       0       0       0
  5500 ;;      Locals:         5       0       0       0       0
  5501 ;;      Temps:          2       0       0       0       0
  5502 ;;      Totals:         9       0       0       0       0
  5503 ;;Total ram usage:        9 bytes
  5504 ;; Hardware stack levels used:    1
  5505 ;; This function calls:
  5506 ;;		Nothing
  5507 ;; This function is called by:
  5508 ;;		___flmul
  5509 ;; This function uses a non-reentrant model
  5510 ;;
  5511                           
  5512                           
  5513                           ;psect for function __Umul8_16
  5514  0C80                     __Umul8_16:
  5515                           
  5516                           ;incstack = 0
  5517                           ; Regs used in __Umul8_16: [wreg+status,2+status,0]
  5518                           ;__Umul8_16@multiplier stored from wreg
  5519  0C80  00F8               	movwf	__Umul8_16@multiplier
  5520  0C81                     l1793:
  5521  0C81  01F4               	clrf	__Umul8_16@product
  5522  0C82  01F5               	clrf	__Umul8_16@product+1
  5523  0C83                     l1795:
  5524  0C83  0870               	movf	__Umul8_16@multiplicand,w
  5525  0C84  00F2               	movwf	??__Umul8_16
  5526  0C85  01F3               	clrf	??__Umul8_16+1
  5527  0C86  0872               	movf	??__Umul8_16,w
  5528  0C87  00F6               	movwf	__Umul8_16@word_mpld
  5529  0C88  0873               	movf	??__Umul8_16+1,w
  5530  0C89  00F7               	movwf	__Umul8_16@word_mpld+1
  5531  0C8A                     l1797:
  5532  0C8A  1C78               	btfss	__Umul8_16@multiplier,0
  5533  0C8B  2C8D               	goto	u1481
  5534  0C8C  2C8E               	goto	u1480
  5535  0C8D                     u1481:
  5536  0C8D  2C94               	goto	l780
  5537  0C8E                     u1480:
  5538  0C8E                     l1799:
  5539  0C8E  0876               	movf	__Umul8_16@word_mpld,w
  5540  0C8F  07F4               	addwf	__Umul8_16@product,f
  5541  0C90  1803               	skipnc
  5542  0C91  0AF5               	incf	__Umul8_16@product+1,f
  5543  0C92  0877               	movf	__Umul8_16@word_mpld+1,w
  5544  0C93  07F5               	addwf	__Umul8_16@product+1,f
  5545  0C94                     l780:
  5546  0C94  3001               	movlw	1
  5547  0C95                     u1495:
  5548  0C95  1003               	clrc
  5549  0C96  0DF6               	rlf	__Umul8_16@word_mpld,f
  5550  0C97  0DF7               	rlf	__Umul8_16@word_mpld+1,f
  5551  0C98  3EFF               	addlw	-1
  5552  0C99  1D03               	skipz
  5553  0C9A  2C95               	goto	u1495
  5554  0C9B  1003               	clrc
  5555  0C9C  0CF8               	rrf	__Umul8_16@multiplier,f
  5556  0C9D                     l1801:
  5557  0C9D  0878               	movf	__Umul8_16@multiplier,w
  5558  0C9E  1D03               	btfss	3,2
  5559  0C9F  2CA1               	goto	u1501
  5560  0CA0  2CA2               	goto	u1500
  5561  0CA1                     u1501:
  5562  0CA1  2C8A               	goto	l1797
  5563  0CA2                     u1500:
  5564  0CA2                     l1803:
  5565  0CA2  0875               	movf	__Umul8_16@product+1,w
  5566  0CA3  00F1               	movwf	?__Umul8_16+1
  5567  0CA4  0874               	movf	__Umul8_16@product,w
  5568  0CA5  00F0               	movwf	?__Umul8_16
  5569  0CA6                     l782:
  5570  0CA6  0008               	return
  5571  0CA7                     __end_of__Umul8_16:
  5572                           
  5573                           	psect	text26
  5574  028D                     __ptext26:	
  5575 ;; *************** function ___fldiv *****************
  5576 ;; Defined at:
  5577 ;;		line 8 in file "C:\Program Files\Microchip\xc8\v2.31\pic\sources\c90\common\sprcdiv.c"
  5578 ;; Parameters:    Size  Location     Type
  5579 ;;  a               4   26[BANK0 ] unsigned int 
  5580 ;;  b               4   30[BANK0 ] unsigned int 
  5581 ;; Auto vars:     Size  Location     Type
  5582 ;;  grs             4   46[BANK0 ] unsigned long 
  5583 ;;  rem             4   39[BANK0 ] unsigned long 
  5584 ;;  new_exp         2   44[BANK0 ] int 
  5585 ;;  aexp            1   51[BANK0 ] unsigned char 
  5586 ;;  bexp            1   50[BANK0 ] unsigned char 
  5587 ;;  sign            1   43[BANK0 ] unsigned char 
  5588 ;; Return value:  Size  Location     Type
  5589 ;;                  4   26[BANK0 ] unsigned char 
  5590 ;; Registers used:
  5591 ;;		wreg, status,2, status,0, btemp+1
  5592 ;; Tracked objects:
  5593 ;;		On entry : 0/0
  5594 ;;		On exit  : 0/0
  5595 ;;		Unchanged: 0/0
  5596 ;; Data sizes:     COMMON   BANK0   BANK1   BANK3   BANK2
  5597 ;;      Params:         0       8       0       0       0
  5598 ;;      Locals:         0      13       0       0       0
  5599 ;;      Temps:          0       5       0       0       0
  5600 ;;      Totals:         0      26       0       0       0
  5601 ;;Total ram usage:       26 bytes
  5602 ;; Hardware stack levels used:    1
  5603 ;; This function calls:
  5604 ;;		Nothing
  5605 ;; This function is called by:
  5606 ;;		_MapPot
  5607 ;; This function uses a non-reentrant model
  5608 ;;
  5609                           
  5610                           
  5611                           ;psect for function ___fldiv
  5612  028D                     ___fldiv:
  5613  028D                     l1869:	
  5614                           ;incstack = 0
  5615                           ; Regs used in ___fldiv: [wreg+status,2+status,0+btemp+1]
  5616                           
  5617  028D  1283               	bcf	3,5	;RP0=0, select bank0
  5618  028E  1303               	bcf	3,6	;RP1=0, select bank0
  5619  028F  0841               	movf	___fldiv@b+3,w
  5620  0290  3980               	andlw	128
  5621  0291  00C2               	movwf	??___fldiv
  5622  0292  0842               	movf	??___fldiv,w
  5623  0293  00CB               	movwf	___fldiv@sign
  5624  0294                     l1871:
  5625  0294  0841               	movf	___fldiv@b+3,w
  5626  0295  00C2               	movwf	??___fldiv
  5627  0296  0742               	addwf	??___fldiv,w
  5628  0297  00C3               	movwf	??___fldiv+1
  5629  0298  0843               	movf	??___fldiv+1,w
  5630  0299  00D2               	movwf	___fldiv@bexp
  5631  029A                     l1873:
  5632  029A  1FC0               	btfss	___fldiv@b+2,7
  5633  029B  2A9D               	goto	u1621
  5634  029C  2A9E               	goto	u1620
  5635  029D                     u1621:
  5636  029D  2A9F               	goto	l1877
  5637  029E                     u1620:
  5638  029E                     l1875:
  5639  029E  1452               	bsf	___fldiv@bexp,0
  5640  029F                     l1877:
  5641  029F  0852               	movf	___fldiv@bexp,w
  5642  02A0  1903               	btfsc	3,2
  5643  02A1  2AA3               	goto	u1631
  5644  02A2  2AA4               	goto	u1630
  5645  02A3                     u1631:
  5646  02A3  2AB4               	goto	l1887
  5647  02A4                     u1630:
  5648  02A4                     l1879:
  5649  02A4  0A52               	incf	___fldiv@bexp,w
  5650  02A5  1D03               	btfss	3,2
  5651  02A6  2AA8               	goto	u1641
  5652  02A7  2AA9               	goto	u1640
  5653  02A8                     u1641:
  5654  02A8  2AB1               	goto	l1883
  5655  02A9                     u1640:
  5656  02A9                     l1881:
  5657  02A9  3000               	movlw	0
  5658  02AA  00C1               	movwf	___fldiv@b+3
  5659  02AB  3000               	movlw	0
  5660  02AC  00C0               	movwf	___fldiv@b+2
  5661  02AD  3000               	movlw	0
  5662  02AE  00BF               	movwf	___fldiv@b+1
  5663  02AF  3000               	movlw	0
  5664  02B0  00BE               	movwf	___fldiv@b
  5665  02B1                     l1883:
  5666  02B1  17C0               	bsf	___fldiv@b+2,7
  5667  02B2                     l1885:
  5668  02B2  01C1               	clrf	___fldiv@b+3
  5669  02B3  2ABC               	goto	l1889
  5670  02B4                     l1887:
  5671  02B4  3000               	movlw	0
  5672  02B5  00C1               	movwf	___fldiv@b+3
  5673  02B6  3000               	movlw	0
  5674  02B7  00C0               	movwf	___fldiv@b+2
  5675  02B8  3000               	movlw	0
  5676  02B9  00BF               	movwf	___fldiv@b+1
  5677  02BA  3000               	movlw	0
  5678  02BB  00BE               	movwf	___fldiv@b
  5679  02BC                     l1889:
  5680  02BC  083D               	movf	___fldiv@a+3,w
  5681  02BD  3980               	andlw	128
  5682  02BE  00C2               	movwf	??___fldiv
  5683  02BF  0842               	movf	??___fldiv,w
  5684  02C0  06CB               	xorwf	___fldiv@sign,f
  5685  02C1                     l1891:
  5686  02C1  083D               	movf	___fldiv@a+3,w
  5687  02C2  00C2               	movwf	??___fldiv
  5688  02C3  0742               	addwf	??___fldiv,w
  5689  02C4  00C3               	movwf	??___fldiv+1
  5690  02C5  0843               	movf	??___fldiv+1,w
  5691  02C6  00D3               	movwf	___fldiv@aexp
  5692  02C7                     l1893:
  5693  02C7  1FBC               	btfss	___fldiv@a+2,7
  5694  02C8  2ACA               	goto	u1651
  5695  02C9  2ACB               	goto	u1650
  5696  02CA                     u1651:
  5697  02CA  2ACC               	goto	l1897
  5698  02CB                     u1650:
  5699  02CB                     l1895:
  5700  02CB  1453               	bsf	___fldiv@aexp,0
  5701  02CC                     l1897:
  5702  02CC  0853               	movf	___fldiv@aexp,w
  5703  02CD  1903               	btfsc	3,2
  5704  02CE  2AD0               	goto	u1661
  5705  02CF  2AD1               	goto	u1660
  5706  02D0                     u1661:
  5707  02D0  2AE1               	goto	l1907
  5708  02D1                     u1660:
  5709  02D1                     l1899:
  5710  02D1  0A53               	incf	___fldiv@aexp,w
  5711  02D2  1D03               	btfss	3,2
  5712  02D3  2AD5               	goto	u1671
  5713  02D4  2AD6               	goto	u1670
  5714  02D5                     u1671:
  5715  02D5  2ADE               	goto	l1903
  5716  02D6                     u1670:
  5717  02D6                     l1901:
  5718  02D6  3000               	movlw	0
  5719  02D7  00BD               	movwf	___fldiv@a+3
  5720  02D8  3000               	movlw	0
  5721  02D9  00BC               	movwf	___fldiv@a+2
  5722  02DA  3000               	movlw	0
  5723  02DB  00BB               	movwf	___fldiv@a+1
  5724  02DC  3000               	movlw	0
  5725  02DD  00BA               	movwf	___fldiv@a
  5726  02DE                     l1903:
  5727  02DE  17BC               	bsf	___fldiv@a+2,7
  5728  02DF                     l1905:
  5729  02DF  01BD               	clrf	___fldiv@a+3
  5730  02E0  2AE9               	goto	l721
  5731  02E1                     l1907:
  5732  02E1  3000               	movlw	0
  5733  02E2  00BD               	movwf	___fldiv@a+3
  5734  02E3  3000               	movlw	0
  5735  02E4  00BC               	movwf	___fldiv@a+2
  5736  02E5  3000               	movlw	0
  5737  02E6  00BB               	movwf	___fldiv@a+1
  5738  02E7  3000               	movlw	0
  5739  02E8  00BA               	movwf	___fldiv@a
  5740  02E9                     l721:
  5741  02E9  083D               	movf	___fldiv@a+3,w
  5742  02EA  043C               	iorwf	___fldiv@a+2,w
  5743  02EB  043B               	iorwf	___fldiv@a+1,w
  5744  02EC  043A               	iorwf	___fldiv@a,w
  5745  02ED  1D03               	skipz
  5746  02EE  2AF0               	goto	u1681
  5747  02EF  2AF1               	goto	u1680
  5748  02F0                     u1681:
  5749  02F0  2B0A               	goto	l1917
  5750  02F1                     u1680:
  5751  02F1                     l1909:
  5752  02F1  3000               	movlw	0
  5753  02F2  00C1               	movwf	___fldiv@b+3
  5754  02F3  3000               	movlw	0
  5755  02F4  00C0               	movwf	___fldiv@b+2
  5756  02F5  3000               	movlw	0
  5757  02F6  00BF               	movwf	___fldiv@b+1
  5758  02F7  3000               	movlw	0
  5759  02F8  00BE               	movwf	___fldiv@b
  5760  02F9  3080               	movlw	128
  5761  02FA  04C0               	iorwf	___fldiv@b+2,f
  5762  02FB  307F               	movlw	127
  5763  02FC  04C1               	iorwf	___fldiv@b+3,f
  5764  02FD                     l1911:
  5765  02FD  084B               	movf	___fldiv@sign,w
  5766  02FE  00C2               	movwf	??___fldiv
  5767  02FF  0842               	movf	??___fldiv,w
  5768  0300  04C1               	iorwf	___fldiv@b+3,f
  5769  0301                     l1913:
  5770  0301  0841               	movf	___fldiv@b+3,w
  5771  0302  00BD               	movwf	?___fldiv+3
  5772  0303  0840               	movf	___fldiv@b+2,w
  5773  0304  00BC               	movwf	?___fldiv+2
  5774  0305  083F               	movf	___fldiv@b+1,w
  5775  0306  00BB               	movwf	?___fldiv+1
  5776  0307  083E               	movf	___fldiv@b,w
  5777  0308  00BA               	movwf	?___fldiv
  5778  0309  2C69               	goto	l723
  5779  030A                     l1917:
  5780  030A  0852               	movf	___fldiv@bexp,w
  5781  030B  1D03               	btfss	3,2
  5782  030C  2B0E               	goto	u1691
  5783  030D  2B0F               	goto	u1690
  5784  030E                     u1691:
  5785  030E  2B18               	goto	l1923
  5786  030F                     u1690:
  5787  030F                     l1919:
  5788  030F  3000               	movlw	0
  5789  0310  00BD               	movwf	?___fldiv+3
  5790  0311  3000               	movlw	0
  5791  0312  00BC               	movwf	?___fldiv+2
  5792  0313  3000               	movlw	0
  5793  0314  00BB               	movwf	?___fldiv+1
  5794  0315  3000               	movlw	0
  5795  0316  00BA               	movwf	?___fldiv
  5796  0317  2C69               	goto	l723
  5797  0318                     l1923:
  5798  0318  0852               	movf	___fldiv@bexp,w
  5799  0319  00C2               	movwf	??___fldiv
  5800  031A  01C3               	clrf	??___fldiv+1
  5801  031B  0843               	movf	??___fldiv+1,w
  5802  031C  00C5               	movwf	??___fldiv+3
  5803  031D  0853               	movf	___fldiv@aexp,w
  5804  031E  0242               	subwf	??___fldiv,w
  5805  031F  00C4               	movwf	??___fldiv+2
  5806  0320  1C03               	skipc
  5807  0321  03C5               	decf	??___fldiv+3,f
  5808  0322  0844               	movf	??___fldiv+2,w
  5809  0323  3E7F               	addlw	127
  5810  0324  00CC               	movwf	___fldiv@new_exp
  5811  0325  0845               	movf	??___fldiv+3,w
  5812  0326  1803               	skipnc
  5813  0327  3E01               	addlw	1
  5814  0328  3E00               	addlw	0
  5815  0329  00CD               	movwf	___fldiv@new_exp+1
  5816  032A                     l1925:
  5817  032A  0841               	movf	___fldiv@b+3,w
  5818  032B  00CA               	movwf	___fldiv@rem+3
  5819  032C  0840               	movf	___fldiv@b+2,w
  5820  032D  00C9               	movwf	___fldiv@rem+2
  5821  032E  083F               	movf	___fldiv@b+1,w
  5822  032F  00C8               	movwf	___fldiv@rem+1
  5823  0330  083E               	movf	___fldiv@b,w
  5824  0331  00C7               	movwf	___fldiv@rem
  5825  0332                     l1927:
  5826  0332  3000               	movlw	0
  5827  0333  00C1               	movwf	___fldiv@b+3
  5828  0334  3000               	movlw	0
  5829  0335  00C0               	movwf	___fldiv@b+2
  5830  0336  3000               	movlw	0
  5831  0337  00BF               	movwf	___fldiv@b+1
  5832  0338  3000               	movlw	0
  5833  0339  00BE               	movwf	___fldiv@b
  5834  033A                     l1929:
  5835  033A  3000               	movlw	0
  5836  033B  00D1               	movwf	___fldiv@grs+3
  5837  033C  3000               	movlw	0
  5838  033D  00D0               	movwf	___fldiv@grs+2
  5839  033E  3000               	movlw	0
  5840  033F  00CF               	movwf	___fldiv@grs+1
  5841  0340  3000               	movlw	0
  5842  0341  00CE               	movwf	___fldiv@grs
  5843  0342                     l1931:
  5844  0342  01D3               	clrf	___fldiv@aexp
  5845  0343  2B8E               	goto	l1951
  5846  0344                     l1933:
  5847  0344  0853               	movf	___fldiv@aexp,w
  5848  0345  1903               	btfsc	3,2
  5849  0346  2B48               	goto	u1701
  5850  0347  2B49               	goto	u1700
  5851  0348                     u1701:
  5852  0348  2B69               	goto	l1943
  5853  0349                     u1700:
  5854  0349                     l1935:
  5855  0349  3001               	movlw	1
  5856  034A  00C2               	movwf	??___fldiv
  5857  034B                     u1715:
  5858  034B  1003               	clrc
  5859  034C  0DC7               	rlf	___fldiv@rem,f
  5860  034D  0DC8               	rlf	___fldiv@rem+1,f
  5861  034E  0DC9               	rlf	___fldiv@rem+2,f
  5862  034F  0DCA               	rlf	___fldiv@rem+3,f
  5863  0350  0BC2               	decfsz	??___fldiv,f
  5864  0351  2B4B               	goto	u1715
  5865  0352  3001               	movlw	1
  5866  0353  00C2               	movwf	??___fldiv
  5867  0354                     u1725:
  5868  0354  1003               	clrc
  5869  0355  0DBE               	rlf	___fldiv@b,f
  5870  0356  0DBF               	rlf	___fldiv@b+1,f
  5871  0357  0DC0               	rlf	___fldiv@b+2,f
  5872  0358  0DC1               	rlf	___fldiv@b+3,f
  5873  0359  0BC2               	decfsz	??___fldiv,f
  5874  035A  2B54               	goto	u1725
  5875  035B                     l1937:
  5876  035B  1FD1               	btfss	___fldiv@grs+3,7
  5877  035C  2B5E               	goto	u1731
  5878  035D  2B5F               	goto	u1730
  5879  035E                     u1731:
  5880  035E  2B60               	goto	l1941
  5881  035F                     u1730:
  5882  035F                     l1939:
  5883  035F  143E               	bsf	___fldiv@b,0
  5884  0360                     l1941:
  5885  0360  3001               	movlw	1
  5886  0361  00C2               	movwf	??___fldiv
  5887  0362                     u1745:
  5888  0362  1003               	clrc
  5889  0363  0DCE               	rlf	___fldiv@grs,f
  5890  0364  0DCF               	rlf	___fldiv@grs+1,f
  5891  0365  0DD0               	rlf	___fldiv@grs+2,f
  5892  0366  0DD1               	rlf	___fldiv@grs+3,f
  5893  0367  0BC2               	decfsz	??___fldiv,f
  5894  0368  2B62               	goto	u1745
  5895  0369                     l1943:
  5896  0369  083D               	movf	___fldiv@a+3,w
  5897  036A  024A               	subwf	___fldiv@rem+3,w
  5898  036B  1D03               	skipz
  5899  036C  2B77               	goto	u1755
  5900  036D  083C               	movf	___fldiv@a+2,w
  5901  036E  0249               	subwf	___fldiv@rem+2,w
  5902  036F  1D03               	skipz
  5903  0370  2B77               	goto	u1755
  5904  0371  083B               	movf	___fldiv@a+1,w
  5905  0372  0248               	subwf	___fldiv@rem+1,w
  5906  0373  1D03               	skipz
  5907  0374  2B77               	goto	u1755
  5908  0375  083A               	movf	___fldiv@a,w
  5909  0376  0247               	subwf	___fldiv@rem,w
  5910  0377                     u1755:
  5911  0377  1C03               	skipc
  5912  0378  2B7A               	goto	u1751
  5913  0379  2B7B               	goto	u1750
  5914  037A                     u1751:
  5915  037A  2B8A               	goto	l1949
  5916  037B                     u1750:
  5917  037B                     l1945:
  5918  037B  1751               	bsf	___fldiv@grs+3,6
  5919  037C                     l1947:
  5920  037C  083A               	movf	___fldiv@a,w
  5921  037D  02C7               	subwf	___fldiv@rem,f
  5922  037E  083B               	movf	___fldiv@a+1,w
  5923  037F  1C03               	skipc
  5924  0380  0F3B               	incfsz	___fldiv@a+1,w
  5925  0381  02C8               	subwf	___fldiv@rem+1,f
  5926  0382  083C               	movf	___fldiv@a+2,w
  5927  0383  1C03               	skipc
  5928  0384  0F3C               	incfsz	___fldiv@a+2,w
  5929  0385  02C9               	subwf	___fldiv@rem+2,f
  5930  0386  083D               	movf	___fldiv@a+3,w
  5931  0387  1C03               	skipc
  5932  0388  0F3D               	incfsz	___fldiv@a+3,w
  5933  0389  02CA               	subwf	___fldiv@rem+3,f
  5934  038A                     l1949:
  5935  038A  3001               	movlw	1
  5936  038B  00C2               	movwf	??___fldiv
  5937  038C  0842               	movf	??___fldiv,w
  5938  038D  07D3               	addwf	___fldiv@aexp,f
  5939  038E                     l1951:
  5940  038E  301A               	movlw	26
  5941  038F  0253               	subwf	___fldiv@aexp,w
  5942  0390  1C03               	skipc
  5943  0391  2B93               	goto	u1761
  5944  0392  2B94               	goto	u1760
  5945  0393                     u1761:
  5946  0393  2B44               	goto	l1933
  5947  0394                     u1760:
  5948  0394                     l1953:
  5949  0394  084A               	movf	___fldiv@rem+3,w
  5950  0395  0449               	iorwf	___fldiv@rem+2,w
  5951  0396  0448               	iorwf	___fldiv@rem+1,w
  5952  0397  0447               	iorwf	___fldiv@rem,w
  5953  0398  1903               	skipnz
  5954  0399  2B9B               	goto	u1771
  5955  039A  2B9C               	goto	u1770
  5956  039B                     u1771:
  5957  039B  2BBB               	goto	l1967
  5958  039C                     u1770:
  5959  039C                     l1955:
  5960  039C  144E               	bsf	___fldiv@grs,0
  5961  039D  2BBB               	goto	l1967
  5962  039E                     l1957:
  5963  039E  3001               	movlw	1
  5964  039F  00C2               	movwf	??___fldiv
  5965  03A0                     u1785:
  5966  03A0  1003               	clrc
  5967  03A1  0DBE               	rlf	___fldiv@b,f
  5968  03A2  0DBF               	rlf	___fldiv@b+1,f
  5969  03A3  0DC0               	rlf	___fldiv@b+2,f
  5970  03A4  0DC1               	rlf	___fldiv@b+3,f
  5971  03A5  0BC2               	decfsz	??___fldiv,f
  5972  03A6  2BA0               	goto	u1785
  5973  03A7                     l1959:
  5974  03A7  1FD1               	btfss	___fldiv@grs+3,7
  5975  03A8  2BAA               	goto	u1791
  5976  03A9  2BAB               	goto	u1790
  5977  03AA                     u1791:
  5978  03AA  2BAC               	goto	l1963
  5979  03AB                     u1790:
  5980  03AB                     l1961:
  5981  03AB  143E               	bsf	___fldiv@b,0
  5982  03AC                     l1963:
  5983  03AC  3001               	movlw	1
  5984  03AD  00C2               	movwf	??___fldiv
  5985  03AE                     u1805:
  5986  03AE  1003               	clrc
  5987  03AF  0DCE               	rlf	___fldiv@grs,f
  5988  03B0  0DCF               	rlf	___fldiv@grs+1,f
  5989  03B1  0DD0               	rlf	___fldiv@grs+2,f
  5990  03B2  0DD1               	rlf	___fldiv@grs+3,f
  5991  03B3  0BC2               	decfsz	??___fldiv,f
  5992  03B4  2BAE               	goto	u1805
  5993  03B5                     l1965:
  5994  03B5  30FF               	movlw	255
  5995  03B6  07CC               	addwf	___fldiv@new_exp,f
  5996  03B7  1803               	skipnc
  5997  03B8  0ACD               	incf	___fldiv@new_exp+1,f
  5998  03B9  30FF               	movlw	255
  5999  03BA  07CD               	addwf	___fldiv@new_exp+1,f
  6000  03BB                     l1967:
  6001  03BB  1FC0               	btfss	___fldiv@b+2,7
  6002  03BC  2BBE               	goto	u1811
  6003  03BD  2BBF               	goto	u1810
  6004  03BE                     u1811:
  6005  03BE  2B9E               	goto	l1957
  6006  03BF                     u1810:
  6007  03BF                     l1969:
  6008  03BF  01D3               	clrf	___fldiv@aexp
  6009  03C0                     l1971:
  6010  03C0  1FD1               	btfss	___fldiv@grs+3,7
  6011  03C1  2BC3               	goto	u1821
  6012  03C2  2BC4               	goto	u1820
  6013  03C3                     u1821:
  6014  03C3  2BE0               	goto	l1979
  6015  03C4                     u1820:
  6016  03C4                     l1973:
  6017  03C4  30FF               	movlw	255
  6018  03C5  054E               	andwf	___fldiv@grs,w
  6019  03C6  00C2               	movwf	??___fldiv
  6020  03C7  30FF               	movlw	255
  6021  03C8  054F               	andwf	___fldiv@grs+1,w
  6022  03C9  00C3               	movwf	??___fldiv+1
  6023  03CA  30FF               	movlw	255
  6024  03CB  0550               	andwf	___fldiv@grs+2,w
  6025  03CC  00C4               	movwf	??___fldiv+2
  6026  03CD  307F               	movlw	127
  6027  03CE  0551               	andwf	___fldiv@grs+3,w
  6028  03CF  00C5               	movwf	??___fldiv+3
  6029  03D0  0845               	movf	??___fldiv+3,w
  6030  03D1  0444               	iorwf	??___fldiv+2,w
  6031  03D2  0443               	iorwf	??___fldiv+1,w
  6032  03D3  0442               	iorwf	??___fldiv,w
  6033  03D4  1903               	skipnz
  6034  03D5  2BD7               	goto	u1831
  6035  03D6  2BD8               	goto	u1830
  6036  03D7                     u1831:
  6037  03D7  2BDB               	goto	l737
  6038  03D8                     u1830:
  6039  03D8                     l1975:
  6040  03D8  01D3               	clrf	___fldiv@aexp
  6041  03D9  0AD3               	incf	___fldiv@aexp,f
  6042  03DA  2BE0               	goto	l1979
  6043  03DB                     l737:
  6044  03DB  1C3E               	btfss	___fldiv@b,0
  6045  03DC  2BDE               	goto	u1841
  6046  03DD  2BDF               	goto	u1840
  6047  03DE                     u1841:
  6048  03DE  2BE0               	goto	l1979
  6049  03DF                     u1840:
  6050  03DF  2BD8               	goto	l1975
  6051  03E0                     l1979:
  6052  03E0  0853               	movf	___fldiv@aexp,w
  6053  03E1  1903               	btfsc	3,2
  6054  03E2  2BE4               	goto	u1851
  6055  03E3  2BE5               	goto	u1850
  6056  03E4                     u1851:
  6057  03E4  2C16               	goto	l1989
  6058  03E5                     u1850:
  6059  03E5                     l1981:
  6060  03E5  3001               	movlw	1
  6061  03E6  07BE               	addwf	___fldiv@b,f
  6062  03E7  3000               	movlw	0
  6063  03E8  1803               	skipnc
  6064  03E9  3001               	movlw	1
  6065  03EA  07BF               	addwf	___fldiv@b+1,f
  6066  03EB  3000               	movlw	0
  6067  03EC  1803               	skipnc
  6068  03ED  3001               	movlw	1
  6069  03EE  07C0               	addwf	___fldiv@b+2,f
  6070  03EF  3000               	movlw	0
  6071  03F0  1803               	skipnc
  6072  03F1  3001               	movlw	1
  6073  03F2  07C1               	addwf	___fldiv@b+3,f
  6074  03F3                     l1983:
  6075  03F3  1C41               	btfss	___fldiv@b+3,0
  6076  03F4  2BF6               	goto	u1861
  6077  03F5  2BF7               	goto	u1860
  6078  03F6                     u1861:
  6079  03F6  2C16               	goto	l1989
  6080  03F7                     u1860:
  6081  03F7                     l1985:
  6082  03F7  083E               	movf	___fldiv@b,w
  6083  03F8  00C2               	movwf	??___fldiv
  6084  03F9  083F               	movf	___fldiv@b+1,w
  6085  03FA  00C3               	movwf	??___fldiv+1
  6086  03FB  0840               	movf	___fldiv@b+2,w
  6087  03FC  00C4               	movwf	??___fldiv+2
  6088  03FD  0841               	movf	___fldiv@b+3,w
  6089  03FE  00C5               	movwf	??___fldiv+3
  6090  03FF  3001               	movlw	1
  6091  0400  00C6               	movwf	??___fldiv+4
  6092  0401                     u1875:
  6093  0401  0D45               	rlf	??___fldiv+3,w
  6094  0402  0CC5               	rrf	??___fldiv+3,f
  6095  0403  0CC4               	rrf	??___fldiv+2,f
  6096  0404  0CC3               	rrf	??___fldiv+1,f
  6097  0405  0CC2               	rrf	??___fldiv,f
  6098  0406                     u1870:
  6099  0406  0BC6               	decfsz	??___fldiv+4,f
  6100  0407  2C01               	goto	u1875
  6101  0408  0845               	movf	??___fldiv+3,w
  6102  0409  00C1               	movwf	___fldiv@b+3
  6103  040A  0844               	movf	??___fldiv+2,w
  6104  040B  00C0               	movwf	___fldiv@b+2
  6105  040C  0843               	movf	??___fldiv+1,w
  6106  040D  00BF               	movwf	___fldiv@b+1
  6107  040E  0842               	movf	??___fldiv,w
  6108  040F  00BE               	movwf	___fldiv@b
  6109  0410                     l1987:
  6110  0410  3001               	movlw	1
  6111  0411  07CC               	addwf	___fldiv@new_exp,f
  6112  0412  1803               	skipnc
  6113  0413  0ACD               	incf	___fldiv@new_exp+1,f
  6114  0414  3000               	movlw	0
  6115  0415  07CD               	addwf	___fldiv@new_exp+1,f
  6116  0416                     l1989:
  6117  0416  084D               	movf	___fldiv@new_exp+1,w
  6118  0417  3A80               	xorlw	128
  6119  0418  00FF               	movwf	btemp+1
  6120  0419  3080               	movlw	128
  6121  041A  027F               	subwf	btemp+1,w
  6122  041B  1D03               	skipz
  6123  041C  2C1F               	goto	u1885
  6124  041D  30FF               	movlw	255
  6125  041E  024C               	subwf	___fldiv@new_exp,w
  6126  041F                     u1885:
  6127  041F  1C03               	skipc
  6128  0420  2C22               	goto	u1881
  6129  0421  2C23               	goto	u1880
  6130  0422                     u1881:
  6131  0422  2C31               	goto	l1993
  6132  0423                     u1880:
  6133  0423                     l1991:
  6134  0423  30FF               	movlw	255
  6135  0424  1283               	bcf	3,5	;RP0=0, select bank0
  6136  0425  1303               	bcf	3,6	;RP1=0, select bank0
  6137  0426  00CC               	movwf	___fldiv@new_exp
  6138  0427  3000               	movlw	0
  6139  0428  00CD               	movwf	___fldiv@new_exp+1
  6140  0429  3000               	movlw	0
  6141  042A  00C1               	movwf	___fldiv@b+3
  6142  042B  3000               	movlw	0
  6143  042C  00C0               	movwf	___fldiv@b+2
  6144  042D  3000               	movlw	0
  6145  042E  00BF               	movwf	___fldiv@b+1
  6146  042F  3000               	movlw	0
  6147  0430  00BE               	movwf	___fldiv@b
  6148  0431                     l1993:
  6149  0431  1283               	bcf	3,5	;RP0=0, select bank0
  6150  0432  1303               	bcf	3,6	;RP1=0, select bank0
  6151  0433  084D               	movf	___fldiv@new_exp+1,w
  6152  0434  3A80               	xorlw	128
  6153  0435  00FF               	movwf	btemp+1
  6154  0436  3080               	movlw	128
  6155  0437  027F               	subwf	btemp+1,w
  6156  0438  1D03               	skipz
  6157  0439  2C3C               	goto	u1895
  6158  043A  3001               	movlw	1
  6159  043B  024C               	subwf	___fldiv@new_exp,w
  6160  043C                     u1895:
  6161  043C  1803               	skipnc
  6162  043D  2C3F               	goto	u1891
  6163  043E  2C40               	goto	u1890
  6164  043F                     u1891:
  6165  043F  2C4D               	goto	l743
  6166  0440                     u1890:
  6167  0440                     l1995:
  6168  0440  1283               	bcf	3,5	;RP0=0, select bank0
  6169  0441  1303               	bcf	3,6	;RP1=0, select bank0
  6170  0442  01CC               	clrf	___fldiv@new_exp
  6171  0443  01CD               	clrf	___fldiv@new_exp+1
  6172  0444                     l1997:
  6173  0444  3000               	movlw	0
  6174  0445  00C1               	movwf	___fldiv@b+3
  6175  0446  3000               	movlw	0
  6176  0447  00C0               	movwf	___fldiv@b+2
  6177  0448  3000               	movlw	0
  6178  0449  00BF               	movwf	___fldiv@b+1
  6179  044A  3000               	movlw	0
  6180  044B  00BE               	movwf	___fldiv@b
  6181  044C                     l1999:
  6182  044C  01CB               	clrf	___fldiv@sign
  6183  044D                     l743:
  6184  044D  1283               	bcf	3,5	;RP0=0, select bank0
  6185  044E  1303               	bcf	3,6	;RP1=0, select bank0
  6186  044F  084C               	movf	___fldiv@new_exp,w
  6187  0450  00C2               	movwf	??___fldiv
  6188  0451  0842               	movf	??___fldiv,w
  6189  0452  00D2               	movwf	___fldiv@bexp
  6190  0453                     l2001:
  6191  0453  1C52               	btfss	___fldiv@bexp,0
  6192  0454  2C56               	goto	u1901
  6193  0455  2C57               	goto	u1900
  6194  0456                     u1901:
  6195  0456  2C59               	goto	l2005
  6196  0457                     u1900:
  6197  0457                     l2003:
  6198  0457  17C0               	bsf	___fldiv@b+2,7
  6199  0458  2C5D               	goto	l745
  6200  0459                     l2005:
  6201  0459  307F               	movlw	127
  6202  045A  00C2               	movwf	??___fldiv
  6203  045B  0842               	movf	??___fldiv,w
  6204  045C  05C0               	andwf	___fldiv@b+2,f
  6205  045D                     l745:
  6206  045D  0852               	movf	___fldiv@bexp,w
  6207  045E  00C2               	movwf	??___fldiv
  6208  045F  1003               	clrc
  6209  0460  0C42               	rrf	??___fldiv,w
  6210  0461  00C3               	movwf	??___fldiv+1
  6211  0462  0843               	movf	??___fldiv+1,w
  6212  0463  00C1               	movwf	___fldiv@b+3
  6213  0464  084B               	movf	___fldiv@sign,w
  6214  0465  00C2               	movwf	??___fldiv
  6215  0466  0842               	movf	??___fldiv,w
  6216  0467  04C1               	iorwf	___fldiv@b+3,f
  6217  0468  2B01               	goto	l1913
  6218  0469                     l723:
  6219  0469  0008               	return
  6220  046A                     __end_of___fldiv:
  6221  007E                     btemp	set	126	;btemp
  6222  007E                     wtemp0	set	126
  6223                           
  6224                           	psect	config
  6225                           
  6226                           ;Config register CONFIG1 @ 0x2007
  6227                           ;	Oscillator Selection bits
  6228                           ;	FOSC = INTRC_NOCLKOUT, INTOSCIO oscillator: I/O function on RA6/OSC2/CLKOUT pin, I/O f
      +                          unction on RA7/OSC1/CLKIN
  6229                           ;	Watchdog Timer Enable bit
  6230                           ;	WDTE = OFF, WDT disabled and can be enabled by SWDTEN bit of the WDTCON register
  6231                           ;	Power-up Timer Enable bit
  6232                           ;	PWRTE = OFF, PWRT disabled
  6233                           ;	RE3/MCLR pin function select bit
  6234                           ;	MCLRE = OFF, RE3/MCLR pin function is digital input, MCLR internally tied to VDD
  6235                           ;	Code Protection bit
  6236                           ;	CP = OFF, Program memory code protection is disabled
  6237                           ;	Data Code Protection bit
  6238                           ;	CPD = OFF, Data memory code protection is disabled
  6239                           ;	Brown Out Reset Selection bits
  6240                           ;	BOREN = OFF, BOR disabled
  6241                           ;	Internal External Switchover bit
  6242                           ;	IESO = OFF, Internal/External Switchover mode is disabled
  6243                           ;	Fail-Safe Clock Monitor Enabled bit
  6244                           ;	FCMEN = OFF, Fail-Safe Clock Monitor is disabled
  6245                           ;	Low Voltage Programming Enable bit
  6246                           ;	LVP = OFF, RB3 pin has digital I/O, HV on MCLR must be used for programming
  6247                           ;	In-Circuit Debugger Mode bit
  6248                           ;	DEBUG = 0x1, unprogrammed default
  6249  2007                     	org	8199
  6250  2007  20D4               	dw	8404
  6251                           
  6252                           ;Config register CONFIG2 @ 0x2008
  6253                           ;	Brown-out Reset Selection bit
  6254                           ;	BOR4V = BOR40V, Brown-out Reset set to 4.0V
  6255                           ;	Flash Program Memory Self Write Enable bits
  6256                           ;	WRT = OFF, Write protection off
  6257  2008                     	org	8200
  6258  2008  3FFF               	dw	16383

Data Sizes:
    Strings     34
    Constant    10
    Data        5
    BSS         47
    Persistent  1
    Stack       0

Auto Spaces:
    Space          Size  Autos    Used
    COMMON           14     14      14
    BANK0            80     69      79
    BANK1            80      0      43
    BANK3            96      0       0
    BANK2            96      0       0

Pointer List with Targets:

    sprintf@f	PTR const unsigned char  size(1) Largest target is 5
		 -> STR_4(CODE[5]), STR_3(CODE[5]), STR_2(CODE[5]), 

    sprintf@sp	PTR unsigned char  size(1) Largest target is 5
		 -> TemperaturaSend(BANK1[5]), PotenciometroSend(BANK1[5]), ContadorSend(BANK1[5]), 

    sprintf@ap	PTR void [1] size(1) Largest target is 2
		 -> ?_sprintf(BANK0[2]), 

    UART_Write_Text@text	PTR unsigned char  size(1) Largest target is 5
		 -> ContadorSend(BANK1[5]), 

    lcd_msg@c	PTR unsigned char  size(2) Largest target is 17
		 -> STR_7(CODE[3]), STR_6(CODE[2]), STR_5(CODE[4]), TemperaturaSend(BANK1[5]), 
		 -> PotenciometroSend(BANK1[5]), ContadorSend(BANK1[5]), STR_1(CODE[17]), 


Critical Paths under _main in COMMON

    _sprintf->___lwmod
    ___lwmod->___lwdiv
    _lcd_msg->_lcd_dwr
    _lcd_dwr->_lcd_lat
    _lcd_dwr->_lcd_ready
    _inicializacion->_lcd_cmd
    _lcd_cmd->_lcd_lat
    _lcd_cmd->_lcd_ready
    _UART_Write_Text->_UART_WRITE
    ___awdiv->___wmul
    _MapPot->___xxtofl
    ___fltol->___xxtofl
    ___flmul->___xxtofl
    ___fldiv->___xxtofl

Critical Paths under _main in BANK0

    _main->_ComSPI
    _MapPot->___fltol
    ___fltol->___fldiv
    ___fldiv->___flmul

Critical Paths under _main in BANK1

    None.

Critical Paths under _main in BANK3

    None.

Critical Paths under _main in BANK2

    None.

Call Graph Tables:

 ---------------------------------------------------------------------------------
 (Depth) Function   	        Calls       Base Space   Used Autos Params    Refs
 ---------------------------------------------------------------------------------
 (0) _main                                                 3     3      0    7890
                                             66 BANK0      3     3      0
                             _ComSPI
                          _SPIMaster
                          _UART_INIT
                    _UART_Write_Text
                     _inicializacion
                            _lcd_cmd
                            _lcd_msg
                            _sprintf
 ---------------------------------------------------------------------------------
 (1) _sprintf                                             21    18      3    1915
                                              0 BANK0     13    10      3
                             ___bmul
                            ___lwdiv
                            ___lwmod
                            _isdigit
 ---------------------------------------------------------------------------------
 (2) _isdigit                                              2     2      0      68
                                              0 COMMON     2     2      0
 ---------------------------------------------------------------------------------
 (2) ___lwmod                                              6     2      4     311
                                              8 COMMON     6     2      4
                            ___lwdiv (ARG)
 ---------------------------------------------------------------------------------
 (2) ___lwdiv                                              8     4      4     314
                                              0 COMMON     8     4      4
 ---------------------------------------------------------------------------------
 (2) ___bmul                                               4     3      1     168
                                              0 COMMON     4     3      1
 ---------------------------------------------------------------------------------
 (1) _lcd_msg                                              2     0      2     599
                                              3 COMMON     2     0      2
                            _lcd_dwr
 ---------------------------------------------------------------------------------
 (2) _lcd_dwr                                              1     1      0      22
                                              2 COMMON     1     1      0
                            _lcd_lat
                          _lcd_ready
 ---------------------------------------------------------------------------------
 (1) _inicializacion                                       0     0      0      22
                            _lcd_cmd
 ---------------------------------------------------------------------------------
 (1) _lcd_cmd                                              1     1      0      22
                                              2 COMMON     1     1      0
                            _lcd_lat
                          _lcd_ready
 ---------------------------------------------------------------------------------
 (3) _lcd_ready                                            2     2      0       0
                                              0 COMMON     2     2      0
 ---------------------------------------------------------------------------------
 (3) _lcd_lat                                              2     2      0       0
                                              0 COMMON     2     2      0
 ---------------------------------------------------------------------------------
 (1) _UART_Write_Text                                      6     6      0     221
                                              2 COMMON     6     6      0
                         _UART_WRITE
 ---------------------------------------------------------------------------------
 (2) _UART_WRITE                                           2     0      2      98
                                              0 COMMON     2     0      2
 ---------------------------------------------------------------------------------
 (1) _UART_INIT                                            0     0      0       0
 ---------------------------------------------------------------------------------
 (1) _SPIMaster                                            0     0      0       0
 ---------------------------------------------------------------------------------
 (1) _ComSPI                                               3     3      0    5111
                                             63 BANK0      3     3      0
                             _MapPot
                            ___awdiv
                             ___wmul
                            _spiRead
                           _spiWrite
 ---------------------------------------------------------------------------------
 (2) _spiWrite                                             1     1      0      22
                                              0 COMMON     1     1      0
 ---------------------------------------------------------------------------------
 (2) _spiRead                                              0     0      0       0
 ---------------------------------------------------------------------------------
 (2) ___wmul                                               6     2      4     244
                                              0 COMMON     6     2      4
 ---------------------------------------------------------------------------------
 (2) ___awdiv                                              9     5      4     452
                                              6 COMMON     5     1      4
                                              0 BANK0      4     4      0
                             ___wmul (ARG)
 ---------------------------------------------------------------------------------
 (2) _MapPot                                               0     0      0    4393
                            ___fldiv
                            ___flmul
                            ___fltol
                           ___xxtofl
 ---------------------------------------------------------------------------------
 (3) ___xxtofl                                            14    10      4     398
                                              0 COMMON    14    10      4
 ---------------------------------------------------------------------------------
 (3) ___fltol                                             11     7      4     305
                                             52 BANK0     11     7      4
                            ___fldiv (ARG)
                            ___flmul (ARG)
                           ___xxtofl (ARG)
 ---------------------------------------------------------------------------------
 (3) ___flmul                                             26    18      8    2417
                                              0 BANK0     26    18      8
                          __Umul8_16
                           ___xxtofl (ARG)
 ---------------------------------------------------------------------------------
 (4) __Umul8_16                                            9     7      2     799
                                              0 COMMON     9     7      2
 ---------------------------------------------------------------------------------
 (3) ___fldiv                                             26    18      8    1273
                                             26 BANK0     26    18      8
                            ___flmul (ARG)
                           ___xxtofl (ARG)
 ---------------------------------------------------------------------------------
 Estimated maximum stack depth 4
 ---------------------------------------------------------------------------------

 Call Graph Graphs:

 _main (ROOT)
   _ComSPI
     _MapPot
       ___fldiv
         ___flmul (ARG)
           __Umul8_16
           ___xxtofl (ARG)
         ___xxtofl (ARG)
       ___flmul
         __Umul8_16
         ___xxtofl (ARG)
       ___fltol
         ___fldiv (ARG)
           ___flmul (ARG)
             __Umul8_16
             ___xxtofl (ARG)
           ___xxtofl (ARG)
         ___flmul (ARG)
           __Umul8_16
           ___xxtofl (ARG)
         ___xxtofl (ARG)
       ___xxtofl
     ___awdiv
       ___wmul (ARG)
     ___wmul
     _spiRead
     _spiWrite
   _SPIMaster
   _UART_INIT
   _UART_Write_Text
     _UART_WRITE
   _inicializacion
     _lcd_cmd
       _lcd_lat
       _lcd_ready
   _lcd_cmd
     _lcd_lat
     _lcd_ready
   _lcd_msg
     _lcd_dwr
       _lcd_lat
       _lcd_ready
   _sprintf
     ___bmul
     ___lwdiv
     ___lwmod
       ___lwdiv (ARG)
     _isdigit

 Address spaces:
Name               Size   Autos  Total    Cost      Usage
BANK3               60      0       0       9        0.0%
BITBANK3            60      0       0       8        0.0%
SFR3                 0      0       0       4        0.0%
BITSFR3              0      0       0       4        0.0%
BANK2               60      0       0      11        0.0%
BITBANK2            60      0       0      10        0.0%
SFR2                 0      0       0       5        0.0%
BITSFR2              0      0       0       5        0.0%
BANK1               50      0      2B       7       53.8%
BITBANK1            50      0       0       6        0.0%
SFR1                 0      0       0       2        0.0%
BITSFR1              0      0       0       2        0.0%
BANK0               50     45      4F       5       98.8%
BITBANK0            50      0       0       4        0.0%
SFR0                 0      0       0       1        0.0%
BITSFR0              0      0       0       1        0.0%
COMMON               E      E       E       1      100.0%
BITCOMMON            E      0       0       0        0.0%
CODE                 0      0       0       0        0.0%
DATA                 0      0      88      12        0.0%
ABS                  0      0      88       3        0.0%
NULL                 0      0       0       0        0.0%
STACK                0      0       0       2        0.0%
EEDATA             100      0       0       0        0.0%


Microchip Technology PIC Macro Assembler V2.31 build 20201012212115 
Symbol Table                                                                                   Wed Feb 24 23:03:09 2021

            ___fldiv@aexp 0053              ___fldiv@bexp 0052                         pc 0002  
            ___fldiv@sign 004B            ___bmul@product 0072               _SSPSTATbits 0094  
                      l20 0B99                        l25 002F                        l17 0BAB  
                      l34 0C7F                        l28 0BBD                        l37 0C34  
            ___awdiv@sign 0021                        fsr 0004       ___wmul@multiplicand 0072  
     __Umul8_16@word_mpld 0076                       l150 0DA0                       l241 0B76  
                     l147 0129                       l235 0BFC                       l244 0B7F  
                     l182 0B80                       l247 0B6D                       l175 0C15  
                     l185 0B8A                       l372 0C41                       l525 0E09  
                     l197 0CCD                       l374 0C59                       l368 028C  
                     l721 02E9                       l723 0469                       l811 0EED  
                     l644 0D4B                       l565 0E70                       l805 0EA8  
                     l558 0E85                       l398 0BE4                       l654 0D07  
                     l743 044D                       l807 0F3F                       l568 0E85  
                     l745 045D                       l737 03DB                       l761 07CA  
                     l825 0BCF                       l818 0F09                       l819 0F15  
                     l780 0C94                       l773 07BE                       l782 0CA6  
                     l767 0736                       _RE0 0048                       _RE1 0049  
                     _RE2 004A                       fsr0 0004                       indf 0000  
            ___flmul@aexp 0032              ___flmul@bexp 0033              ___flmul@sign 002D  
            ___flmul@temp 0038              ___flmul@prod 0034              ___fltol@exp1 005E  
                    l2001 0453                      l2003 0457                      l2011 046A  
                    l2005 0459                      l2101 0706                      l2021 0481  
                    l2013 0471                      l2111 071B                      l2103 0707  
                    l2031 049D                      l2023 0486                      l2015 0477  
                    l2121 0740                      l2113 071F                      l2105 0710  
                    l2041 04B2                      l2033 04A3                      l2025 048E  
                    l2017 047B                      l2201 0BA5                      l2131 077E  
                    l2123 074E                      l2115 0733                      l2107 0716  
                    l2051 04CE                      l2043 04BA                      l2035 04A7  
                    l2027 0490                      l2019 047C                      l2203 0BA6  
                    l2211 0BB7                      l2141 07B2                      l2133 0789  
                    l2125 0752                      l2109 071A                      l2061 0511  
                    l2045 04BC                      l2037 04A8                      l2029 0498  
                    l2301 0DED                      l2213 0BB8                      l2205 0BAD  
                    l2143 07B6                      l2135 0798                      l2127 076B  
                    l2119 073B                      l2071 059A                      l2063 052D  
                    l2055 04D7                      l2047 04C4                      l2039 04AD  
                    l2151 0E87                      l2223 0D4C                      l2311 0E05  
                    l2303 0DEE                      l2215 0B69                      l2207 0BB2  
                    l2231 0BBF                      l2145 07B7                      l2137 07A2  
                    l2129 0771                      l2081 060D                      l2073 05AA  
                    l2065 0559                      l2057 04E7                      l2049 04C9  
                    l2153 0E8C                      l2305 0DF5                      l2217 0B76  
                    l2401 0C12                      l2209 0BB6                      l2321 0D13  
                    l2233 0BC0                      l2147 07C2                      l2139 07A4  
                    l2091 06BA                      l2083 062A                      l2075 05C7  
                    l2067 0575                      l2059 04F4                      l2171 0ED6  
                    l2163 0EB9                      l2155 0E90                      l2307 0DFB  
                    l2251 0C4F                      l2243 0C35                      l2219 0B7C  
                    l2411 004A                      l2403 0030                      l2227 0B80  
                    l2331 0D39                      l2323 0D1A                      l2315 0D08  
                    l2235 0BC6                      l2093 06E2                      l2085 0657  
                    l2077 05D7                      l2069 0591                      l2181 0F0D  
                    l2173 0EE4                      l2165 0EBE                      l2157 0EA0  
                    l2309 0E00                      l2253 0C55                      l2245 0C37  
                    l2421 0078                      l2413 0057                      l2405 0037  
                    l2229 0B86                      l2261 0BD6                      l2333 0D3A  
                    l2325 0D1E                      l2317 0D0A                      l2341 0CCE  
                    l2237 0BCC                      l2501 01BC                      l2095 06EB  
                    l2087 0667                      l2079 05F4                      l2191 0F37  
                    l2183 0F17                      l2175 0EF4                      l2167 0ECB  
                    l2159 0EB0                      l2271 0DA1                      l2247 0C3B  
                    l2431 0097                      l2415 005C                      l2407 003A  
                    l2423 007E                      l2263 0BDA                      l2335 0D41  
                    l2327 0D22                      l2319 0D10                      l2351 0CE6  
                    l2343 0CD4                      l2239 0BCE                      l2503 01C1  
                    l1801 0C9D                      l2097 06F9                      l2089 0694  
                    l2185 0F2D                      l2177 0EFF                      l2169 0ED2  
                    l2281 0DB3                      l2273 0DA4                      l2249 0C48  
                    l2433 00A1                      l2425 0084                      l2441 00C3  
                    l2417 0066                      l2409 0044                      l2265 0BDC  
                    l2257 0BD1                      l2329 0D33                      l2337 0D47  
                    l2353 0CF0                      l2345 0CD7                      l2521 0208  
                    l2513 01D2                      l2505 01C6                      l2601 0F60  
                    l1803 0CA2                      l2099 0702                      l2187 0F32  
                    l2179 0F03                      l2291 0DC7                      l2283 0DB8  
                    l2275 0DA8                      l2451 00E6                      l2443 00C9  
                    l2435 00AB                      l2427 0087                      l2419 0069  
                    l1811 000F                      l2195 0B9B                      l2371 0C16  
                    l2363 0C5A                      l2267 0BE3                      l2259 0BD2  
                    l2355 0CF6                      l2347 0CDE                      l2531 0232  
                    l2523 0209                      l2507 01CC                      l2611 0F76  
                    l2603 0F63                      l1901 02D6                      l2189 0F36  
                    l2293 0DCE                      l2285 0DBC                      l2277 0DAD  
                    l2453 0109                      l2445 00CC                      l2437 00AE  
                    l2429 0091                      l2381 0BF5                      l2373 0BE5  
                    l1821 0023                      l1813 0010                      l2197 0BA0  
                    l2365 0C5B                      l2357 0CFD                      l2349 0CE2  
                    l2533 0237                      l2525 021D                      l2517 01EE  
                    l2509 01D0                      l2541 0276                      l2621 0FBA  
                    l2613 0F7F                      l2605 0F68                      l1911 02FD  
                    l1903 02DE                      l2295 0DD2                      l2287 0DBE  
                    l2279 0DAF                      l2455 0113                      l2447 00D6  
                    l2439 00BD                      l2383 0BF6                      l2375 0BED  
                    l2391 0BFD                      l1831 0B96                      l1823 0024  
                    l1815 0011                      l1807 0007                      l2199 0BA4  
                    l2367 0C69                      l2359 0D03                      l2535 0265  
                    l2527 0223                      l2519 01F8                      l2543 0288  
                    l2471 0144                      l2463 012D                      l2631 0FE4  
                    l2623 0FC0                      l2615 0F84                      l2607 0F6C  
                    l1913 0301                      l1905 02DF                      l1841 0E35  
                    l1833 0E0A                      l2297 0DD6                      l2289 0DC4  
                    l2457 0116                      l2449 00DC                      l2385 0BF7  
                    l2377 0BF1                      l2393 0C07                      l2553 0CA8  
                    l1825 002C                      l1817 0012                      l1809 000B  
                    l2369 0C6F                      l2529 022B                      l2481 0168  
                    l2473 0145                      l2465 0132                      l2633 0FED  
                    l2625 0FC9                      l2617 0F97                      l2609 0F71  
                    l2561 0F40                      l1931 0342                      l1923 0318  
                    l1907 02E1                      l1843 0E36                      l1835 0E17  
                    l2299 0DE7                      l2459 0125                      l2387 0BF8  
                    l2379 0BF4                      l2395 0C0A                      l2555 0CAB  
                    l1827 0B8B                      l1819 001A                      l2539 026D  
                    l2491 0189                      l2483 0173                      l2475 0151  
                    l2467 0138                      l2635 0FF6                      l2627 0FD2  
                    l2619 0FA7                      l2571 0F48                      l2563 0F44  
                    l1941 0360                      l1933 0344                      l1925 032A  
                    l1909 02F1                      l1917 030A                      l1845 0E3E  
                    l2389 0BF9                      l2397 0C0C                      l2557 0CBC  
                    l1829 0B8E                      l2493 01A8                      l2485 0177  
                    l2477 0155                      l2469 013F                      l2629 0FDB  
                    l2581 0F51                      l2573 0F4B                      l2565 0F45  
                    l1935 0349                      l1943 0369                      l1951 038E  
                    l1927 0332                      l1919 030F                      l1871 0294  
                    l1863 0E65                      l1855 0E4C                      l1847 0E40  
                    l1839 0E20                      l2399 0C0E                      l2559 0CC2  
                    l2495 01B0                      l2479 0157                      l2487 0188  
                    l2591 0F59                      l2583 0F53                      l2575 0F4C  
                    l2567 0F46                      l1961 03AB                      l1953 0394  
                    l1945 037B                      l1937 035B                      l1929 033A  
                    l1881 02A9                      l1873 029A                      l1793 0C81  
                    l1865 0E75                      l1849 0E44                      l1857 0E5E  
                    l2497 01B4                      l2593 0F5A                      l2585 0F54  
                    l2577 0F4F                      l2569 0F47                      l1971 03C0  
                    l1963 03AC                      l1955 039C                      l1947 037C  
                    l1939 035F                      l1891 02C1                      l1883 02B1  
                    l1875 029E                      l1795 0C83                      l1867 0E7A  
                    l2499 01B8                      l2667 019D                      l2595 0F5B  
                    l2587 0F57                      l2579 0F50                      l1981 03E5  
                    l1973 03C4                      l1965 03B5                      l1957 039E  
                    l1949 038A                      l1893 02C7                      l1885 02B2  
                    l1877 029F                      l1869 028D                      l1797 0C8A  
                    l2597 0F5E                      l2589 0F58                      l1991 0423  
                    l1983 03F3                      l1975 03D8                      l1959 03A7  
                    l1967 03BB                      l1895 02CB                      l1879 02A4  
                    l1887 02B4                      l1799 0C8E                      l2599 0F5F  
                    l1993 0431                      l1985 03F7                      l1969 03BF  
                    l1897 02CC                      l1889 02BC                      l1995 0440  
                    l1987 0410                      l1979 03E0                      l1899 02D1  
                    l1997 0444                      l1989 0416                      l1999 044C  
                    STR_1 081A                      STR_2 082B                      STR_3 0830  
                    STR_4 082B                      STR_5 0835                      STR_6 083A  
                    STR_7 0839                      u2001 053B                      u2002 0542  
                    u2011 0567                      u2003 0549                      u2100 06A0  
                    u2012 056E                      u2021 0583                      u2013 0575  
                    u2022 058A                      u2111 06AC                      u2023 0591  
                    u2200 0733                      u2120 06C8                      u2112 06B3  
                    u2201 0732                      u2113 06BA                      u2105 069B  
                    u2041 05B9                      u2210 073A                      u2042 05C0  
                    u2211 0739                      u2131 06D4                      u2051 05E6  
                    u2043 05C7                      u2035 0593                      u1500 0CA2  
                    u2220 0740                      u2132 06DB                      u2052 05ED  
                    u2300 0EB0                      u1501 0CA1                      u2221 073F  
                    u2133 06E2                      u2125 06C3                      u2053 05F4  
                    u2301 0EAF                      u2230 0752                      u1510 0023  
                    u2231 0751                      u2071 061C                      u3007 00A7  
                    u1511 0022                      u2240 0761                      u2160 0706  
                    u2072 0623                      u1600 0E75                      u1520 0E17  
                    u2400 0F32                      u2320 0ED1                      u2161 0705  
                    u2145 06E4                      u2081 0649                      u2073 062A  
                    u2065 05F6                      u1601 0E74                      u1521 0E16  
                    u2401 0F31                      u2321 0ED0                      u3017 00B6  
                    u2250 077E                      u2082 0650                      u1610 0E7A  
                    u1530 0E2E                      u2410 0F36                      u2251 077D  
                    u2155 06FB                      u2091 0676                      u2083 0657  
                    u1611 0E79                      u2411 0F35                      u2315 0EC3  
                    u3027 00D2                      u1700 0349                      u1620 029E  
                    u2260 0798                      u2180 071A                      u2092 067D  
                    u1540 0E44                      u2340 0EF3                      u2420 0B7C  
                    u2500 0BD6                      u1701 0348                      u1621 029D  
                    u2261 0797                      u2245 075C                      u2181 0719  
                    u2093 0684                      u1541 0E43                      u2341 0EF2  
                    u2421 0B7B                      u3037 010F                      u2501 0BD5  
                    u1630 02A4                      u2270 07B6                      u2190 071F  
                    u1550 0E4B                      u2430 0B86                      u2510 0BE3  
                    u1631 02A3                      u2271 07B5                      u2255 077A  
                    u2191 071E                      u2175 0709                      u1551 0E4A  
                    u1535 0E29                      u2335 0EE5                      u3047 011E  
                    u2431 0B85                      u2511 0BE2                      u1640 02A9  
                    u1480 0C8E                      u2360 0F03                      u2280 0E8C  
                    u2600 0DFB                      u2520 0DA8                      u2440 0BC6  
                    u1641 02A8                      u1481 0C8D                      u2265 0794  
                    u2361 0F02                      u2281 0E8B                      u2601 0DFA  
                    u2521 0DA7                      u2441 0BC5                      u1810 03BF  
                    u1730 035F                      u1650 02CB                      u1570 0E5D  
                    u2370 0F09                      u2290 0E90                      u2610 0E00  
                    u2530 0DB3                      u2450 0BCC                      u1811 03BE  
                    u1731 035E                      u1715 034B                      u1651 02CA  
                    u1571 0E5C                      u2371 0F08                      u2355 0EF8  
                    u2291 0E8F                      u2611 0DFF                      u2531 0DB2  
                    u2451 0BCB                      u1900 0457                      u1820 03C4  
                    u1660 02D1                      u1580 0E64                      u2380 0F0D  
                    u2540 0DC4                      u2460 0C3B                      u2620 0D10  
                    u1901 0456                      u1821 03C3                      u1805 03AE  
                    u1725 0354                      u1661 02D0                      u1581 0E63  
                    u1565 0E4D                      u2381 0F0C                      u2541 0DC3  
                    u2461 0C3A                      u2621 0D0F                      u1830 03D8  
                    u1750 037B                      u1670 02D6                      u1910 047B  
                    u2390 0F22                      u2710 0CE6                      u1831 03D7  
                    u1751 037A                      u1671 02D5                      u1495 0C95  
                    u1911 047A                      u2711 0CE5                      u1840 03DF  
                    u1760 0394                      u1680 02F1                      u1920 0481  
                    u2560 0DD6                      u2640 0D22                      u2720 0CF0  
                    u2800 0151                      u1841 03DE                      u1761 0393  
                    u1745 0362                      u1681 02F0                      u1921 0480  
                    u2561 0DD5                      u2641 0D21                      u2721 0CEF  
                    u2705 0CD8                      u2801 0150                      u1850 03E5  
                    u1770 039C                      u1690 030F                      u1930 0486  
                    u2490 0C55                      u2810 0187                      u1851 03E4  
                    u1771 039B                      u1755 0377                      u1691 030E  
                    u1931 0485                      u1595 0E67                      u2395 0F1D  
                    u2555 0DC8                      u2491 0C54                      u2475 0C42  
                    u2635 0D14                      u2811 0186                      u1860 03F7  
                    u1940 04A7                      u2580 0DE7                      u2660 0D33  
                    u2740 0D03                      u2900 0276                      u2820 01B8  
                    u1861 03F6                      u1941 04A6                      u2581 0DE6  
                    u2485 0C49                      u2661 0D32                      u2741 0D02  
                    u2725 0CEC                      u2901 0275                      u2821 01B7  
                    u1870 0406                      u1790 03AB                      u1950 04AD  
                    u2750 0C7F                      u2910 0288                      u2830 01C6  
                    u1791 03AA                      u1951 04AC                      u2575 0DD7  
                    u2751 0C7E                      u2655 0D23                      u2735 0CF7  
                    u2911 0287                      u2831 01C5                      u1880 0423  
                    u1960 04B2                      u2760 0037                      u2920 0CCD  
                    u2680 0D47                      u2840 01CC                      u1881 0422  
                    u1785 03A0                      u1961 04B1                      u2585 0DE3  
                    u2761 0036                      u2921 0CCC                      u2681 0D46  
                    u2665 0D2F                      u2841 01CB                      u1890 0440  
                    u1970 04C9                      u2770 0084                      u2690 0CD4  
                    u2850 01ED                      u1891 043F                      u1875 0401  
                    u1971 04C8                      u2595 0DEF                      u2771 0083  
                    u2675 0D3B                      u2691 0CD3                      u2851 01EC  
                    u1980 04CE                      u2780 00C9                      u2860 01F8  
                    u1885 041F                      u1981 04CD                      u2781 00C8  
                    u2861 01F7                      u2870 0208                      u2790 0138  
                    u1895 043C                      u1991 051F                      u2871 0207  
                    u2855 01E9                      u2791 0137                      u1992 0526  
                    u2880 021D                      u1993 052D                      u2937 0016  
                    u2881 021C                      u2890 022B                      u2947 0028  
                    u2891 022A                      u2875 0204                      u2957 0B92  
                    u2885 0219                      u2967 0040                      u2977 0062  
                    u2987 0071                      u2997 008D                      _main 0F40  
                    btemp 007E                      start 0000           ___fldiv@new_exp 004C  
       ___bmul@multiplier 0073   __end_of_UART_Write_Text 0CCE             ___fltol@sign1 005D  
                   ?_main 0070           __end_of___fldiv 046A           __end_of___awdiv 0E0A  
         __end_of___flmul 07CB           __end_of___fltol 0E86                     _ANSEL 0188  
         ___awdiv@divisor 0076           __end_of___lwdiv 0D4C           __end_of___lwmod 0D08  
         ___awdiv@counter 0020                     _RCREG 001A                     _RCSTA 0018  
                   _POINT 00AF               ?_UART_WRITE 0070                     _SPBRG 0099  
                   _PORTA 0005                     _PORTB 0006                     _PORTC 0007  
                   _PORTD 0008                     _PORTE 0009                     _TRISA 0085  
                   _TRISB 0086                     _TRISC 0087                     _TRISD 0088  
                   _TRISE 0089                     _TXREG 0019                     _TXSTA 0098  
      __size_of_UART_INIT 0019                     _Pot1A 00B5                     _Pot1B 00B3  
                   _Pot1C 00B1           __end_of_lcd_cmd 0BAC           __end_of_lcd_lat 0B9A  
         __end_of_lcd_dwr 0BBE           __end_of_lcd_msg 0C80           __end_of_dpowers 081A  
         __end_of_isdigit 0BD0                     pclath 000A           __end_of_spiRead 0B80  
      __size_of_SPIMaster 0018                     status 0003                     wtemp0 007E  
         __end_of_sprintf 028D           __initialization 07CB              __end_of_main 1000  
                  ??_main 0062         _PotenciometroSend 00BC          ___awdiv@dividend 0078  
                  _ANSELH 0189                    _SPBRGH 009A   __size_of_inicializacion 001F  
                  _SSPBUF 0013          __end_of___xxtofl 0F40                    _ComSPI 0030  
                  _SSbit1 006E                    _MapPot 0D4C       __size_of_UART_WRITE 000B  
       __end_of_UART_INIT 0C16                    _Titlea 00C6                    ___bmul 0BD0  
                  ___wmul 0C35                 ??___fldiv 0042                 ??___awdiv 007A  
               ??___flmul 0028          ?_UART_Write_Text 0070                 ??___fltol 0058  
               ??___lwdiv 0074                 ??___lwmod 007C          ___awdiv@quotient 0022  
       __end_of_SPIMaster 0BFD                 ??_lcd_cmd 0072                 ??_lcd_lat 0070  
               ??_lcd_dwr 0072                 ??_lcd_msg 0075                 ??_isdigit 0070  
      __size_of__Umul8_16 0027          __end_of_spiWrite 0B6E                 ??_spiRead 0070  
          UART_WRITE@data 0070                 ??_sprintf 0023              ___xxtofl@arg 007A  
            ___xxtofl@exp 0079              ___xxtofl@val 0070   __end_of__initialization 07FC  
              ___fltol@f1 0054       ___bmul@multiplicand 0070      _PotenciometroLectura 0067  
          __pcstackCOMMON 0070              __pidataBANK1 0B63        __size_of_lcd_ready 0029  
              __pbssBANK0 0065                __pbssBANK1 00A0                   ?_ComSPI 0070  
                 ?_MapPot 0070         __end_of__Umul8_16 0CA7                __pmaintext 0F40  
                 ?___bmul 0070                   ?___wmul 0070              ??_UART_WRITE 0072  
               ?___xxtofl 0070                __stringtab 0800            _inicializacion 0C16  
         __size_of_ComSPI 00FA           __size_of_MapPot 0055        __end_of_UART_WRITE 0B8B  
         _ContadorLectura 006C         __end_of_lcd_ready 0030                 ?_spiWrite 0070  
         __size_of___bmul 0015                   ___fldiv 028D                   ___awdiv 0DA1  
                 ___flmul 046A                   ___fltol 0E0A           __size_of___wmul 0025  
                 ___lwdiv 0D08                   ___lwmod 0CCE               _Temperatura 0069  
                 __ptext1 012A                   __ptext2 0BBE                   __ptext3 0CCE  
                 __ptext4 0D08                   __ptext5 0BD0                   __ptext6 0C5A  
                 __ptext7 0BAC                   __ptext8 0C16                   __ptext9 0B9A  
                 _lcd_cmd 0B9A                   _lcd_lat 0B8B                   _lcd_dwr 0BAC  
                 _lcd_msg 0C5A                   _dpowers 0810              _ContadorSend 00C1  
                 _isdigit 0BBE                ??___xxtofl 0074                   _spiRead 0B76  
                 _sprintf 012A                   clrloop0 0B6F    __end_of_inicializacion 0C35  
    end_of_initialization 07FC                ??_spiWrite 0070                 _UART_INIT 0BFD  
               _PORTBbits 0006             ___xxtofl@sign 0078                 _SPIMaster 0BE5  
               _TRISAbits 0085                 _TRISCbits 0087                 _POTchar1A 00AA  
               _POTchar1B 00A5                 _POTchar1C 00A0               ___fldiv@grs 004E  
             ___fldiv@rem 0047               spiWrite@dat 0070           ?_inicializacion 0070  
             ___flmul@grs 002E                 _TXSTAbits 0098            __end_of_ComSPI 012A  
          __end_of_MapPot 0DA1            __end_of___bmul 0BE5                ?_UART_INIT 0070  
          __end_of___wmul 0C5A               _BAUDCTLbits 0187  __size_of_UART_Write_Text 0027  
     start_initialization 07CB                ?_SPIMaster 0070                  ??_ComSPI 005F  
                ??_MapPot 007E                  ??___bmul 0071                  ??___wmul 0074  
               __Umul8_16 0C80               __pdataBANK1 00C6           _TemperaturaSend 00B7  
               ___fldiv@a 003A                 ___fldiv@b 003E                 ___flmul@a 0024  
               ___flmul@b 0020                 ___latbits 0002             __pcstackBANK0 0020  
       __size_of___xxtofl 00BA              _isdigit$1224 0070               sprintf@flag 0027  
             sprintf@prec 002B                 __pnvBANK0 006E          ___lwdiv@dividend 0072  
                ?___fldiv 003A                  ?___awdiv 0076                  ?___flmul 0020  
                ?___fltol 0054                ?__Umul8_16 0070                  ?___lwdiv 0070  
                ?___lwmod 0078               ??_UART_INIT 0070         __size_of_spiWrite 0006  
               _lcd_ready 0007                 __pstrings 0800                  ?_lcd_cmd 0070  
                ?_lcd_lat 0070                  ?_lcd_dwr 0070                  ?_lcd_msg 0073  
                ?_isdigit 0070               ??_SPIMaster 0070                  ?_spiRead 0070  
        ___lwdiv@quotient 0075                  ?_sprintf 0020         ??_UART_Write_Text 0072  
              _ADC1ADRESH 006D            ___wmul@product 0074                 clear_ram0 0B6E  
                _PIE1bits 008C                  _PIR1bits 000C                ?_lcd_ready 0070  
              _ADCON0bits 001F               __stringbase 080F                _ADCON1bits 009F  
       ___wmul@multiplier 0070             _Potenciometro 0065          ??_inicializacion 0073  
                _Contador 006B               ??__Umul8_16 0072          __size_of___fldiv 01DD  
        __size_of___awdiv 0069          __size_of___flmul 0361          __size_of___fltol 007C  
        __size_of___lwdiv 0044          __size_of___lwmod 003A        __end_of__stringtab 0810  
        __size_of_lcd_cmd 0012          __size_of_lcd_lat 000F          __size_of_lcd_dwr 0012  
        __size_of_lcd_msg 0026                sprintf@val 0028                  ___xxtofl 0E86  
        __size_of_isdigit 0012           ___lwdiv@divisor 0070           ___lwdiv@counter 0077  
                __ptext10 0007                  __ptext11 0B8B                  __ptext20 0DA1  
                __ptext12 0CA7                  __ptext21 0D4C                  __ptext13 0B80  
                __ptext22 0E86                  __ptext14 0BFD                  __ptext23 0E0A  
                __ptext15 0BE5                  __ptext24 046A                  __ptext16 0030  
                __ptext25 0C80                  __ptext17 0B68                  __ptext26 028D  
                __ptext18 0B76                  __ptext19 0C35          __size_of_spiRead 000A  
        __size_of_sprintf 0163       UART_Write_Text@text 0077             __size_of_main 00C0  
                _spiWrite 0B68                  lcd_cmd@x 0072                  lcd_dwr@x 0072  
                lcd_msg@c 0073               ??_lcd_ready 0070                _INTCONbits 000B  
                isdigit@c 0071                 sprintf@ap 0026                 sprintf@sp 002A  
        ___lwmod@dividend 007A                 stringcode 080A                _OSCCONbits 008F  
  __Umul8_16@multiplicand 0070           _UART_Write_Text 0CA7                  sprintf@c 002C  
                sprintf@f 0020                _UART_WRITE 0B80           ___lwmod@divisor 0078  
         ___lwmod@counter 007D                  stringdir 080A                  stringtab 0800  
        UART_Write_Text@i 0075      __Umul8_16@multiplier 0078                _SSPCONbits 0014  
      _TemperaturaLectura 006A         __Umul8_16@product 0074  
