

Microchip MPLAB XC8 Assembler V2.31 build 20201012212115 
                                                                                               Fri Feb 12 03:49:47 2021

Microchip MPLAB XC8 C Compiler v2.31 (Free license) build 20201012212115 Og1 
     1                           	processor	16F887
     2                           	pagewidth 120
     3                           	opt	flic
     4                           	psect	strings,global,class=STRING,delta=2,noexec
     5                           	psect	cinit,global,class=CODE,merge=1,delta=2
     6                           	psect	bssCOMMON,global,class=COMMON,space=1,delta=1,noexec
     7                           	psect	bssBANK0,global,class=BANK0,space=1,delta=1,noexec
     8                           	psect	bssBANK1,global,class=BANK1,space=1,delta=1,noexec
     9                           	psect	clrtext,global,class=CODE,delta=2
    10                           	psect	cstackBANK1,global,class=BANK1,space=1,delta=1,noexec
    11                           	psect	cstackCOMMON,global,class=COMMON,space=1,delta=1,noexec
    12                           	psect	cstackBANK0,global,class=BANK0,space=1,delta=1,noexec
    13                           	psect	maintext,global,class=CODE,split=1,delta=2
    14                           	psect	text1,local,class=CODE,merge=1,delta=2
    15                           	psect	text2,local,class=CODE,merge=1,delta=2
    16                           	psect	text3,local,class=CODE,merge=1,delta=2
    17                           	psect	text4,local,class=CODE,merge=1,delta=2,group=2
    18                           	psect	text5,local,class=CODE,merge=1,delta=2,group=2
    19                           	psect	text6,local,class=CODE,merge=1,delta=2
    20                           	psect	text7,local,class=CODE,merge=1,delta=2
    21                           	psect	text8,local,class=CODE,merge=1,delta=2
    22                           	psect	text9,local,class=CODE,merge=1,delta=2
    23                           	psect	text10,local,class=CODE,merge=1,delta=2
    24                           	psect	text11,local,class=CODE,merge=1,delta=2,group=2
    25                           	psect	text12,local,class=CODE,merge=1,delta=2,group=2
    26                           	psect	text13,local,class=CODE,merge=1,delta=2,group=1
    27                           	psect	text14,local,class=CODE,merge=1,delta=2,group=1
    28                           	psect	text15,local,class=CODE,merge=1,delta=2,group=1
    29                           	psect	text16,local,class=CODE,merge=1,delta=2,group=1
    30                           	psect	text17,local,class=CODE,merge=1,delta=2,group=1
    31                           	psect	text18,local,class=CODE,merge=1,delta=2,group=1
    32                           	psect	text19,local,class=CODE,merge=1,delta=2,group=1
    33                           	psect	text20,local,class=CODE,merge=1,delta=2,group=1
    34                           	psect	text21,local,class=CODE,merge=1,delta=2,group=1
    35                           	psect	text22,local,class=CODE,merge=1,delta=2
    36                           	psect	intentry,global,class=CODE,delta=2
    37                           	psect	text23,local,class=CODE,merge=1,delta=2
    38                           	psect	config,global,abs,ovrld,class=CONFIG,space=4,delta=2,noexec
    39                           	dabs	1,0x7E,2
    40  0000                     
    41                           ; Version 2.20
    42                           ; Generated 12/02/2020 GMT
    43                           ; 
    44                           ; Copyright © 2020, Microchip Technology Inc. and its subsidiaries ("Microchip")
    45                           ; All rights reserved.
    46                           ; 
    47                           ; This software is developed by Microchip Technology Inc. and its subsidiaries ("Microch
      +                          ip").
    48                           ; 
    49                           ; Redistribution and use in source and binary forms, with or without modification, are
    50                           ; permitted provided that the following conditions are met:
    51                           ; 
    52                           ;     1. Redistributions of source code must retain the above copyright notice, this lis
      +                          t of
    53                           ;        conditions and the following disclaimer.
    54                           ; 
    55                           ;     2. Redistributions in binary form must reproduce the above copyright notice, this 
      +                          list
    56                           ;        of conditions and the following disclaimer in the documentation and/or other
    57                           ;        materials provided with the distribution.
    58                           ; 
    59                           ;     3. Microchip's name may not be used to endorse or promote products derived from th
      +                          is
    60                           ;        software without specific prior written permission.
    61                           ; 
    62                           ; THIS SOFTWARE IS PROVIDED BY MICROCHIP "AS IS" AND ANY EXPRESS OR IMPLIED WARRANTIES,
    63                           ; INCLUDING, BUT NOT LIMITED TO, THE IMPLIED WARRANTIES OF MERCHANTABILITY AND FITNESS F
      +                          OR
    64                           ; PURPOSE ARE DISCLAIMED.  IN NO EVENT SHALL MICROCHIP BE LIABLE FOR ANY DIRECT, INDIREC
      +                          T,
    65                           ; INCIDENTAL, SPECIAL, EXEMPLARY, OR CONSEQUENTIAL DAMAGES (INCLUDING BUT NOT LIMITED TO
    66                           ; PROCUREMENT OF SUBSTITUTE GOODS OR SERVICES; LOSS OF USE, DATA OR PROFITS; OR BUSINESS
    67                           ; INTERRUPTION) HOWSOEVER CAUSED AND ON ANY THEORY OF LIABILITY, WHETHER IN CONTRACT, ST
      +                          RICT
    68                           ; LIABILITY, OR TORT (INCLUDING NEGLIGENCE OR OTHERWISE) ARISING IN ANY WAY OUT OF THE U
      +                          SE OF
    69                           ; THIS SOFTWARE, EVEN IF ADVISED OF THE POSSIBILITY OF SUCH DAMAGE.
    70                           ; 
    71                           ; 
    72                           ; Code-generator required, PIC16F887 Definitions
    73                           ; 
    74                           ; SFR Addresses
    75  0000                     	;# 
    76  0001                     	;# 
    77  0002                     	;# 
    78  0003                     	;# 
    79  0004                     	;# 
    80  0005                     	;# 
    81  0006                     	;# 
    82  0007                     	;# 
    83  0008                     	;# 
    84  0009                     	;# 
    85  000A                     	;# 
    86  000B                     	;# 
    87  000C                     	;# 
    88  000D                     	;# 
    89  000E                     	;# 
    90  000E                     	;# 
    91  000F                     	;# 
    92  0010                     	;# 
    93  0011                     	;# 
    94  0012                     	;# 
    95  0013                     	;# 
    96  0014                     	;# 
    97  0015                     	;# 
    98  0015                     	;# 
    99  0016                     	;# 
   100  0017                     	;# 
   101  0018                     	;# 
   102  0019                     	;# 
   103  001A                     	;# 
   104  001B                     	;# 
   105  001B                     	;# 
   106  001C                     	;# 
   107  001D                     	;# 
   108  001E                     	;# 
   109  001F                     	;# 
   110  0081                     	;# 
   111  0085                     	;# 
   112  0086                     	;# 
   113  0087                     	;# 
   114  0088                     	;# 
   115  0089                     	;# 
   116  008C                     	;# 
   117  008D                     	;# 
   118  008E                     	;# 
   119  008F                     	;# 
   120  0090                     	;# 
   121  0091                     	;# 
   122  0092                     	;# 
   123  0093                     	;# 
   124  0093                     	;# 
   125  0093                     	;# 
   126  0094                     	;# 
   127  0095                     	;# 
   128  0096                     	;# 
   129  0097                     	;# 
   130  0098                     	;# 
   131  0099                     	;# 
   132  009A                     	;# 
   133  009B                     	;# 
   134  009C                     	;# 
   135  009D                     	;# 
   136  009E                     	;# 
   137  009F                     	;# 
   138  0105                     	;# 
   139  0107                     	;# 
   140  0108                     	;# 
   141  0109                     	;# 
   142  010C                     	;# 
   143  010C                     	;# 
   144  010D                     	;# 
   145  010E                     	;# 
   146  010F                     	;# 
   147  0185                     	;# 
   148  0187                     	;# 
   149  0188                     	;# 
   150  0189                     	;# 
   151  018C                     	;# 
   152  018D                     	;# 
   153  0000                     	;# 
   154  0001                     	;# 
   155  0002                     	;# 
   156  0003                     	;# 
   157  0004                     	;# 
   158  0005                     	;# 
   159  0006                     	;# 
   160  0007                     	;# 
   161  0008                     	;# 
   162  0009                     	;# 
   163  000A                     	;# 
   164  000B                     	;# 
   165  000C                     	;# 
   166  000D                     	;# 
   167  000E                     	;# 
   168  000E                     	;# 
   169  000F                     	;# 
   170  0010                     	;# 
   171  0011                     	;# 
   172  0012                     	;# 
   173  0013                     	;# 
   174  0014                     	;# 
   175  0015                     	;# 
   176  0015                     	;# 
   177  0016                     	;# 
   178  0017                     	;# 
   179  0018                     	;# 
   180  0019                     	;# 
   181  001A                     	;# 
   182  001B                     	;# 
   183  001B                     	;# 
   184  001C                     	;# 
   185  001D                     	;# 
   186  001E                     	;# 
   187  001F                     	;# 
   188  0081                     	;# 
   189  0085                     	;# 
   190  0086                     	;# 
   191  0087                     	;# 
   192  0088                     	;# 
   193  0089                     	;# 
   194  008C                     	;# 
   195  008D                     	;# 
   196  008E                     	;# 
   197  008F                     	;# 
   198  0090                     	;# 
   199  0091                     	;# 
   200  0092                     	;# 
   201  0093                     	;# 
   202  0093                     	;# 
   203  0093                     	;# 
   204  0094                     	;# 
   205  0095                     	;# 
   206  0096                     	;# 
   207  0097                     	;# 
   208  0098                     	;# 
   209  0099                     	;# 
   210  009A                     	;# 
   211  009B                     	;# 
   212  009C                     	;# 
   213  009D                     	;# 
   214  009E                     	;# 
   215  009F                     	;# 
   216  0105                     	;# 
   217  0107                     	;# 
   218  0108                     	;# 
   219  0109                     	;# 
   220  010C                     	;# 
   221  010C                     	;# 
   222  010D                     	;# 
   223  010E                     	;# 
   224  010F                     	;# 
   225  0185                     	;# 
   226  0187                     	;# 
   227  0188                     	;# 
   228  0189                     	;# 
   229  018C                     	;# 
   230  018D                     	;# 
   231  0000                     	;# 
   232  0001                     	;# 
   233  0002                     	;# 
   234  0003                     	;# 
   235  0004                     	;# 
   236  0005                     	;# 
   237  0006                     	;# 
   238  0007                     	;# 
   239  0008                     	;# 
   240  0009                     	;# 
   241  000A                     	;# 
   242  000B                     	;# 
   243  000C                     	;# 
   244  000D                     	;# 
   245  000E                     	;# 
   246  000E                     	;# 
   247  000F                     	;# 
   248  0010                     	;# 
   249  0011                     	;# 
   250  0012                     	;# 
   251  0013                     	;# 
   252  0014                     	;# 
   253  0015                     	;# 
   254  0015                     	;# 
   255  0016                     	;# 
   256  0017                     	;# 
   257  0018                     	;# 
   258  0019                     	;# 
   259  001A                     	;# 
   260  001B                     	;# 
   261  001B                     	;# 
   262  001C                     	;# 
   263  001D                     	;# 
   264  001E                     	;# 
   265  001F                     	;# 
   266  0081                     	;# 
   267  0085                     	;# 
   268  0086                     	;# 
   269  0087                     	;# 
   270  0088                     	;# 
   271  0089                     	;# 
   272  008C                     	;# 
   273  008D                     	;# 
   274  008E                     	;# 
   275  008F                     	;# 
   276  0090                     	;# 
   277  0091                     	;# 
   278  0092                     	;# 
   279  0093                     	;# 
   280  0093                     	;# 
   281  0093                     	;# 
   282  0094                     	;# 
   283  0095                     	;# 
   284  0096                     	;# 
   285  0097                     	;# 
   286  0098                     	;# 
   287  0099                     	;# 
   288  009A                     	;# 
   289  009B                     	;# 
   290  009C                     	;# 
   291  009D                     	;# 
   292  009E                     	;# 
   293  009F                     	;# 
   294  0105                     	;# 
   295  0107                     	;# 
   296  0108                     	;# 
   297  0109                     	;# 
   298  010C                     	;# 
   299  010C                     	;# 
   300  010D                     	;# 
   301  010E                     	;# 
   302  010F                     	;# 
   303  0185                     	;# 
   304  0187                     	;# 
   305  0188                     	;# 
   306  0189                     	;# 
   307  018C                     	;# 
   308  018D                     	;# 
   309  0000                     	;# 
   310  0001                     	;# 
   311  0002                     	;# 
   312  0003                     	;# 
   313  0004                     	;# 
   314  0005                     	;# 
   315  0006                     	;# 
   316  0007                     	;# 
   317  0008                     	;# 
   318  0009                     	;# 
   319  000A                     	;# 
   320  000B                     	;# 
   321  000C                     	;# 
   322  000D                     	;# 
   323  000E                     	;# 
   324  000E                     	;# 
   325  000F                     	;# 
   326  0010                     	;# 
   327  0011                     	;# 
   328  0012                     	;# 
   329  0013                     	;# 
   330  0014                     	;# 
   331  0015                     	;# 
   332  0015                     	;# 
   333  0016                     	;# 
   334  0017                     	;# 
   335  0018                     	;# 
   336  0019                     	;# 
   337  001A                     	;# 
   338  001B                     	;# 
   339  001B                     	;# 
   340  001C                     	;# 
   341  001D                     	;# 
   342  001E                     	;# 
   343  001F                     	;# 
   344  0081                     	;# 
   345  0085                     	;# 
   346  0086                     	;# 
   347  0087                     	;# 
   348  0088                     	;# 
   349  0089                     	;# 
   350  008C                     	;# 
   351  008D                     	;# 
   352  008E                     	;# 
   353  008F                     	;# 
   354  0090                     	;# 
   355  0091                     	;# 
   356  0092                     	;# 
   357  0093                     	;# 
   358  0093                     	;# 
   359  0093                     	;# 
   360  0094                     	;# 
   361  0095                     	;# 
   362  0096                     	;# 
   363  0097                     	;# 
   364  0098                     	;# 
   365  0099                     	;# 
   366  009A                     	;# 
   367  009B                     	;# 
   368  009C                     	;# 
   369  009D                     	;# 
   370  009E                     	;# 
   371  009F                     	;# 
   372  0105                     	;# 
   373  0107                     	;# 
   374  0108                     	;# 
   375  0109                     	;# 
   376  010C                     	;# 
   377  010C                     	;# 
   378  010D                     	;# 
   379  010E                     	;# 
   380  010F                     	;# 
   381  0185                     	;# 
   382  0187                     	;# 
   383  0188                     	;# 
   384  0189                     	;# 
   385  018C                     	;# 
   386  018D                     	;# 
   387  001E                     _ADRESH	set	30
   388  001F                     _ADCON0bits	set	31
   389  001A                     _RCREG	set	26
   390  0018                     _RCSTA	set	24
   391  000C                     _PIR1bits	set	12
   392  000B                     _INTCONbits	set	11
   393  0009                     _PORTE	set	9
   394  0008                     _PORTD	set	8
   395  0007                     _PORTC	set	7
   396  0006                     _PORTB	set	6
   397  0005                     _PORTA	set	5
   398  004A                     _RE2	set	74
   399  0049                     _RE1	set	73
   400  0048                     _RE0	set	72
   401  009F                     _ADCON1bits	set	159
   402  0098                     _TXSTA	set	152
   403  0099                     _SPBRG	set	153
   404  008C                     _PIE1bits	set	140
   405  0089                     _TRISE	set	137
   406  0087                     _TRISC	set	135
   407  0088                     _TRISD	set	136
   408  0086                     _TRISB	set	134
   409  0085                     _TRISA	set	133
   410  008F                     _OSCCONbits	set	143
   411  0189                     _ANSELH	set	393
   412  0188                     _ANSEL	set	392
   413                           
   414                           	psect	strings
   415  0800                     __pstrings:
   416  0800                     stringtab:
   417  0800                     __stringtab:
   418                           
   419                           ;	String table - string pointers are 1 byte each
   420  0800  1BFF               	btfsc	btemp+1,7
   421  0801  280A               	ljmp	stringcode
   422  0802  1383               	bcf	3,7
   423  0803  187F               	btfsc	btemp+1,0
   424  0804  1783               	bsf	3,7
   425  0805  0800               	movf	0,w
   426  0806  0A84               	incf	4,f
   427  0807  1903               	skipnz
   428  0808  0AFF               	incf	btemp+1,f
   429  0809  0008               	return
   430  080A                     stringcode:
   431  080A                     stringdir:
   432  080A  3008               	movlw	high stringdir
   433  080B  008A               	movwf	10
   434  080C  0804               	movf	4,w
   435  080D  0A84               	incf	4,f
   436  080E  0782               	addwf	2,f
   437  080F                     __stringbase:
   438  080F  3400               	retlw	0
   439  0810                     __end_of__stringtab:
   440  0810                     STR_1:
   441  0810  3453               	retlw	83	;'S'
   442  0811  3431               	retlw	49	;'1'
   443  0812  3420               	retlw	32	;' '
   444  0813  3420               	retlw	32	;' '
   445  0814  3420               	retlw	32	;' '
   446  0815  3420               	retlw	32	;' '
   447  0816  3453               	retlw	83	;'S'
   448  0817  3432               	retlw	50	;'2'
   449  0818  3420               	retlw	32	;' '
   450  0819  3420               	retlw	32	;' '
   451  081A  3420               	retlw	32	;' '
   452  081B  3453               	retlw	83	;'S'
   453  081C  3433               	retlw	51	;'3'
   454  081D  3400               	retlw	0
   455  081E                     STR_5:
   456  081E  3456               	retlw	86	;'V'
   457  081F  3420               	retlw	32	;' '
   458  0820  3400               	retlw	0
   459  0821                     STR_2:
   460  0821  342E               	retlw	46	;'.'
   461  0822  3400               	retlw	0
   462  081E                     
   463                           	psect	cinit
   464  000F                     start_initialization:	
   465                           ; #config settings
   466                           
   467  000F                     __initialization:
   468                           
   469                           ; Clear objects allocated to COMMON
   470  000F  01F8               	clrf	__pbssCOMMON& (0+127)
   471  0010  01F9               	clrf	(__pbssCOMMON+1)& (0+127)
   472  0011  01FA               	clrf	(__pbssCOMMON+2)& (0+127)
   473                           
   474                           ; Clear objects allocated to BANK0
   475  0012  1383               	bcf	3,7	;select IRP bank0
   476  0013  305E               	movlw	low __pbssBANK0
   477  0014  0084               	movwf	4
   478  0015  3070               	movlw	low (__pbssBANK0+18)
   479  0016  120A  158A  22A1  120A  118A  	fcall	clear_ram0
   480                           
   481                           ; Clear objects allocated to BANK1
   482  001B  30A0               	movlw	low __pbssBANK1
   483  001C  0084               	movwf	4
   484  001D  30D9               	movlw	low (__pbssBANK1+57)
   485  001E  120A  158A  22A1  120A  118A  	fcall	clear_ram0
   486  0023                     end_of_initialization:	
   487                           ;End of C runtime variable initialization code
   488                           
   489  0023                     __end_of__initialization:
   490  0023  0183               	clrf	3
   491  0024  120A  158A  2C06   	ljmp	_main	;jump to C main() function
   492                           
   493                           	psect	bssCOMMON
   494  0078                     __pbssCOMMON:
   495  0078                     _Contador:
   496  0078                     	ds	2
   497  007A                     _Lectura:
   498  007A                     	ds	1
   499                           
   500                           	psect	bssBANK0
   501  005E                     __pbssBANK0:
   502  005E                     _ADC2C:
   503  005E                     	ds	2
   504  0060                     _ADC2B:
   505  0060                     	ds	2
   506  0062                     _ADC2A:
   507  0062                     	ds	2
   508  0064                     _DCADC2:
   509  0064                     	ds	2
   510  0066                     _ADC1C:
   511  0066                     	ds	2
   512  0068                     _ADC1B:
   513  0068                     	ds	2
   514  006A                     _ADC1A:
   515  006A                     	ds	2
   516  006C                     _DCADC1:
   517  006C                     	ds	2
   518  006E                     _ADC2ADRESH:
   519  006E                     	ds	1
   520  006F                     _ADC1ADRESH:
   521  006F                     	ds	1
   522                           
   523                           	psect	bssBANK1
   524  00A0                     __pbssBANK1:
   525  00A0                     _ADCLB:
   526  00A0                     	ds	4
   527  00A4                     _ADCLA:
   528  00A4                     	ds	4
   529  00A8                     _plc:
   530  00A8                     	ds	2
   531  00AA                     _PI:
   532  00AA                     	ds	2
   533  00AC                     _PUNTO2A:
   534  00AC                     	ds	5
   535  00B1                     _ADCchar2C:
   536  00B1                     	ds	5
   537  00B6                     _ADCchar2B:
   538  00B6                     	ds	5
   539  00BB                     _ADCchar2A:
   540  00BB                     	ds	5
   541  00C0                     _test:
   542  00C0                     	ds	5
   543  00C5                     _PUNTO1A:
   544  00C5                     	ds	5
   545  00CA                     _ADCchar1C:
   546  00CA                     	ds	5
   547  00CF                     _ADCchar1B:
   548  00CF                     	ds	5
   549  00D4                     _ADCchar1A:
   550  00D4                     	ds	5
   551                           
   552                           	psect	clrtext
   553  0AA1                     clear_ram0:	
   554                           ;	Called with FSR containing the base address, and
   555                           ;	W with the last address+1
   556                           
   557  0AA1  0064               	clrwdt	;clear the watchdog before getting into this loop
   558  0AA2                     clrloop0:
   559  0AA2  0180               	clrf	0	;clear RAM location pointed to by FSR
   560  0AA3  0A84               	incf	4,f	;increment pointer
   561  0AA4  0604               	xorwf	4,w	;XOR with final address
   562  0AA5  1903               	btfsc	3,2	;have we reached the end yet?
   563  0AA6  3400               	retlw	0	;all done for this memory range, return
   564  0AA7  0604               	xorwf	4,w	;XOR again to restore value
   565  0AA8  2AA2               	goto	clrloop0	;do the next byte
   566                           
   567                           	psect	cstackBANK1
   568  00D9                     __pcstackBANK1:
   569  00D9                     ??_ADC:
   570                           
   571                           ; 1 bytes @ 0x0
   572  00D9                     	ds	4
   573                           
   574                           	psect	cstackCOMMON
   575  0070                     __pcstackCOMMON:
   576  0070                     ?_inicializacion:
   577  0070                     ?_ADC:	
   578                           ; 1 bytes @ 0x0
   579                           
   580  0070                     ?_SerialCom:	
   581                           ; 1 bytes @ 0x0
   582                           
   583  0070                     ?_lcd_ready:	
   584                           ; 1 bytes @ 0x0
   585                           
   586  0070                     ?_lcd_lat:	
   587                           ; 1 bytes @ 0x0
   588                           
   589  0070                     ?_main:	
   590                           ; 1 bytes @ 0x0
   591                           
   592  0070                     ?_lcd_cmd:	
   593                           ; 1 bytes @ 0x0
   594                           
   595  0070                     ?_lcd_dwr:	
   596                           ; 1 bytes @ 0x0
   597                           
   598  0070                     ?_Counter:	
   599                           ; 1 bytes @ 0x0
   600                           
   601  0070                     ??_Counter:	
   602                           ; 1 bytes @ 0x0
   603                           
   604  0070                     ?_ISR:	
   605                           ; 1 bytes @ 0x0
   606                           
   607  0070                     ??_ISR:	
   608                           ; 1 bytes @ 0x0
   609                           
   610                           
   611                           ; 1 bytes @ 0x0
   612  0070                     	ds	3
   613  0073                     ??_SerialCom:
   614  0073                     ??_lcd_ready:	
   615                           ; 1 bytes @ 0x3
   616                           
   617  0073                     ??_lcd_lat:	
   618                           ; 1 bytes @ 0x3
   619                           
   620  0073                     ?_strcpy:	
   621                           ; 1 bytes @ 0x3
   622                           
   623  0073                     ?_strcat:	
   624                           ; 1 bytes @ 0x3
   625                           
   626  0073                     ?__Umul8_16:	
   627                           ; 2 bytes @ 0x3
   628                           
   629  0073                     ?___awdiv:	
   630                           ; 2 bytes @ 0x3
   631                           
   632  0073                     ?___lwdiv:	
   633                           ; 2 bytes @ 0x3
   634                           
   635  0073                     ?___lwmod:	
   636                           ; 2 bytes @ 0x3
   637                           
   638  0073                     ?___xxtofl:	
   639                           ; 2 bytes @ 0x3
   640                           
   641  0073                     __Umul8_16@multiplicand:	
   642                           ; 4 bytes @ 0x3
   643                           
   644  0073                     strcpy@from:	
   645                           ; 1 bytes @ 0x3
   646                           
   647  0073                     ___awdiv@divisor:	
   648                           ; 1 bytes @ 0x3
   649                           
   650  0073                     ___lwdiv@divisor:	
   651                           ; 2 bytes @ 0x3
   652                           
   653  0073                     ___lwmod@divisor:	
   654                           ; 2 bytes @ 0x3
   655                           
   656  0073                     strcat@to:	
   657                           ; 2 bytes @ 0x3
   658                           
   659  0073                     ___xxtofl@val:	
   660                           ; 2 bytes @ 0x3
   661                           
   662                           
   663                           ; 4 bytes @ 0x3
   664  0073                     	ds	1
   665  0074                     ??_strcpy:
   666                           
   667                           ; 1 bytes @ 0x4
   668  0074                     	ds	1
   669  0075                     ??__Umul8_16:
   670  0075                     ??_lcd_cmd:	
   671                           ; 1 bytes @ 0x5
   672                           
   673  0075                     ??_lcd_dwr:	
   674                           ; 1 bytes @ 0x5
   675                           
   676  0075                     lcd_cmd@x:	
   677                           ; 1 bytes @ 0x5
   678                           
   679  0075                     lcd_dwr@x:	
   680                           ; 1 bytes @ 0x5
   681                           
   682  0075                     strcat@from:	
   683                           ; 1 bytes @ 0x5
   684                           
   685  0075                     strcpy@cp:	
   686                           ; 1 bytes @ 0x5
   687                           
   688  0075                     ___awdiv@dividend:	
   689                           ; 1 bytes @ 0x5
   690                           
   691  0075                     ___lwdiv@dividend:	
   692                           ; 2 bytes @ 0x5
   693                           
   694  0075                     ___lwmod@dividend:	
   695                           ; 2 bytes @ 0x5
   696                           
   697                           
   698                           ; 2 bytes @ 0x5
   699  0075                     	ds	1
   700  0076                     ??_inicializacion:
   701  0076                     ??_strcat:	
   702                           ; 1 bytes @ 0x6
   703                           
   704  0076                     ?_lcd_msg:	
   705                           ; 1 bytes @ 0x6
   706                           
   707  0076                     strcpy@to:	
   708                           ; 1 bytes @ 0x6
   709                           
   710  0076                     lcd_msg@c:	
   711                           ; 1 bytes @ 0x6
   712                           
   713                           
   714                           ; 2 bytes @ 0x6
   715  0076                     	ds	1
   716  0077                     ??___awdiv:
   717  0077                     ??___lwdiv:	
   718                           ; 1 bytes @ 0x7
   719                           
   720  0077                     ??___lwmod:	
   721                           ; 1 bytes @ 0x7
   722                           
   723                           
   724                           ; 1 bytes @ 0x7
   725  0077                     	ds	1
   726  0078                     ??_main:
   727  0078                     ??_lcd_msg:	
   728                           ; 1 bytes @ 0x8
   729                           
   730                           
   731                           	psect	cstackBANK0
   732  0020                     __pcstackBANK0:	
   733                           ; 1 bytes @ 0x8
   734                           
   735  0020                     ??___xxtofl:
   736  0020                     ___awdiv@counter:	
   737                           ; 1 bytes @ 0x0
   738                           
   739  0020                     ___lwdiv@counter:	
   740                           ; 1 bytes @ 0x0
   741                           
   742  0020                     ___lwmod@counter:	
   743                           ; 1 bytes @ 0x0
   744                           
   745  0020                     __Umul8_16@product:	
   746                           ; 1 bytes @ 0x0
   747                           
   748  0020                     strcat@cp:	
   749                           ; 2 bytes @ 0x0
   750                           
   751                           
   752                           ; 2 bytes @ 0x0
   753  0020                     	ds	1
   754  0021                     ___awdiv@sign:
   755  0021                     ___lwdiv@quotient:	
   756                           ; 1 bytes @ 0x1
   757                           
   758                           
   759                           ; 2 bytes @ 0x1
   760  0021                     	ds	1
   761  0022                     ___awdiv@quotient:
   762  0022                     __Umul8_16@word_mpld:	
   763                           ; 2 bytes @ 0x2
   764                           
   765                           
   766                           ; 2 bytes @ 0x2
   767  0022                     	ds	1
   768  0023                     ?_utoa:
   769  0023                     utoa@val:	
   770                           ; 1 bytes @ 0x3
   771                           
   772                           
   773                           ; 2 bytes @ 0x3
   774  0023                     	ds	1
   775  0024                     ?___awmod:
   776  0024                     __Umul8_16@multiplier:	
   777                           ; 2 bytes @ 0x4
   778                           
   779  0024                     ___xxtofl@sign:	
   780                           ; 1 bytes @ 0x4
   781                           
   782  0024                     ___awmod@divisor:	
   783                           ; 1 bytes @ 0x4
   784                           
   785                           
   786                           ; 2 bytes @ 0x4
   787  0024                     	ds	1
   788  0025                     ___xxtofl@exp:
   789  0025                     utoa@base:	
   790                           ; 1 bytes @ 0x5
   791                           
   792                           
   793                           ; 2 bytes @ 0x5
   794  0025                     	ds	1
   795  0026                     ___awmod@dividend:
   796  0026                     ___xxtofl@arg:	
   797                           ; 2 bytes @ 0x6
   798                           
   799                           
   800                           ; 4 bytes @ 0x6
   801  0026                     	ds	1
   802  0027                     ??_utoa:
   803                           
   804                           ; 1 bytes @ 0x7
   805  0027                     	ds	1
   806  0028                     ??___awmod:
   807  0028                     utoa@v:	
   808                           ; 1 bytes @ 0x8
   809                           
   810                           
   811                           ; 2 bytes @ 0x8
   812  0028                     	ds	1
   813  0029                     ___awmod@counter:
   814                           
   815                           ; 1 bytes @ 0x9
   816  0029                     	ds	1
   817  002A                     ?___flmul:
   818  002A                     ___awmod@sign:	
   819                           ; 4 bytes @ 0xA
   820                           
   821  002A                     utoa@c:	
   822                           ; 1 bytes @ 0xA
   823                           
   824  002A                     ___flmul@b:	
   825                           ; 1 bytes @ 0xA
   826                           
   827                           
   828                           ; 4 bytes @ 0xA
   829  002A                     	ds	1
   830  002B                     utoa@buf:
   831                           
   832                           ; 1 bytes @ 0xB
   833  002B                     	ds	1
   834  002C                     ?_itoa:
   835  002C                     itoa@val:	
   836                           ; 1 bytes @ 0xC
   837                           
   838                           
   839                           ; 2 bytes @ 0xC
   840  002C                     	ds	2
   841  002E                     itoa@base:
   842  002E                     ___flmul@a:	
   843                           ; 2 bytes @ 0xE
   844                           
   845                           
   846                           ; 4 bytes @ 0xE
   847  002E                     	ds	2
   848  0030                     ??_itoa:
   849                           
   850                           ; 1 bytes @ 0x10
   851  0030                     	ds	2
   852  0032                     ??___flmul:
   853  0032                     itoa@buf:	
   854                           ; 1 bytes @ 0x12
   855                           
   856                           
   857                           ; 1 bytes @ 0x12
   858  0032                     	ds	5
   859  0037                     ___flmul@sign:
   860                           
   861                           ; 1 bytes @ 0x17
   862  0037                     	ds	1
   863  0038                     ___flmul@grs:
   864                           
   865                           ; 4 bytes @ 0x18
   866  0038                     	ds	4
   867  003C                     ___flmul@aexp:
   868                           
   869                           ; 1 bytes @ 0x1C
   870  003C                     	ds	1
   871  003D                     ___flmul@bexp:
   872                           
   873                           ; 1 bytes @ 0x1D
   874  003D                     	ds	1
   875  003E                     ___flmul@prod:
   876                           
   877                           ; 4 bytes @ 0x1E
   878  003E                     	ds	4
   879  0042                     ___flmul@temp:
   880                           
   881                           ; 2 bytes @ 0x22
   882  0042                     	ds	2
   883  0044                     ?___fltol:
   884  0044                     ?___fldiv:	
   885                           ; 4 bytes @ 0x24
   886                           
   887  0044                     ___fltol@f1:	
   888                           ; 4 bytes @ 0x24
   889                           
   890  0044                     ___fldiv@a:	
   891                           ; 4 bytes @ 0x24
   892                           
   893                           
   894                           ; 4 bytes @ 0x24
   895  0044                     	ds	4
   896  0048                     ??___fltol:
   897  0048                     ___fldiv@b:	
   898                           ; 1 bytes @ 0x28
   899                           
   900                           
   901                           ; 4 bytes @ 0x28
   902  0048                     	ds	4
   903  004C                     ??___fldiv:
   904                           
   905                           ; 1 bytes @ 0x2C
   906  004C                     	ds	1
   907  004D                     ___fltol@sign1:
   908                           
   909                           ; 1 bytes @ 0x2D
   910  004D                     	ds	1
   911  004E                     ___fltol@exp1:
   912                           
   913                           ; 1 bytes @ 0x2E
   914  004E                     	ds	3
   915  0051                     ___fldiv@rem:
   916                           
   917                           ; 4 bytes @ 0x31
   918  0051                     	ds	4
   919  0055                     ___fldiv@sign:
   920                           
   921                           ; 1 bytes @ 0x35
   922  0055                     	ds	1
   923  0056                     ___fldiv@new_exp:
   924                           
   925                           ; 2 bytes @ 0x36
   926  0056                     	ds	2
   927  0058                     ___fldiv@grs:
   928                           
   929                           ; 4 bytes @ 0x38
   930  0058                     	ds	4
   931  005C                     ___fldiv@bexp:
   932                           
   933                           ; 1 bytes @ 0x3C
   934  005C                     	ds	1
   935  005D                     ___fldiv@aexp:
   936                           
   937                           ; 1 bytes @ 0x3D
   938  005D                     	ds	1
   939                           
   940                           	psect	maintext
   941  0C06                     __pmaintext:	
   942 ;;
   943 ;;Main: autosize = 0, tempsize = 0, incstack = 0, save=0
   944 ;;
   945 ;; *************** function _main *****************
   946 ;; Defined at:
   947 ;;		line 45 in file "main.c"
   948 ;; Parameters:    Size  Location     Type
   949 ;;		None
   950 ;; Auto vars:     Size  Location     Type
   951 ;;		None
   952 ;; Return value:  Size  Location     Type
   953 ;;                  1    wreg      void 
   954 ;; Registers used:
   955 ;;		wreg, fsr0l, fsr0h, status,2, status,0, btemp+1, pclath, cstack
   956 ;; Tracked objects:
   957 ;;		On entry : B00/0
   958 ;;		On exit  : 0/0
   959 ;;		Unchanged: 0/0
   960 ;; Data sizes:     COMMON   BANK0   BANK1   BANK3   BANK2
   961 ;;      Params:         0       0       0       0       0
   962 ;;      Locals:         0       0       0       0       0
   963 ;;      Temps:          0       0       0       0       0
   964 ;;      Totals:         0       0       0       0       0
   965 ;;Total ram usage:        0 bytes
   966 ;; Hardware stack levels required when called:    6
   967 ;; This function calls:
   968 ;;		_ADC
   969 ;;		_SerialCom
   970 ;;		_inicializacion
   971 ;; This function is called by:
   972 ;;		Startup code after reset
   973 ;; This function uses a non-reentrant model
   974 ;;
   975                           
   976                           
   977                           ;psect for function _main
   978  0C06                     _main:
   979  0C06                     l2637:	
   980                           ;incstack = 0
   981                           ; Regs used in _main: [wreg-fsr0h+status,2+status,0+btemp+1+pclath+cstack]
   982                           
   983  0C06  1683               	bsf	3,5	;RP0=1, select bank1
   984  0C07  1303               	bcf	3,6	;RP1=0, select bank1
   985  0C08  080F               	movf	15,w	;volatile
   986  0C09  398F               	andlw	-113
   987  0C0A  3860               	iorlw	96
   988  0C0B  008F               	movwf	15	;volatile
   989  0C0C                     l2639:
   990  0C0C  118F               	bcf	15,3	;volatile
   991  0C0D                     l2641:
   992  0C0D  110F               	bcf	15,2	;volatile
   993  0C0E                     l2643:
   994  0C0E  108F               	bcf	15,1	;volatile
   995  0C0F                     l2645:
   996  0C0F  140F               	bsf	15,0	;volatile
   997  0C10                     l2647:
   998  0C10  3003               	movlw	3
   999  0C11  1683               	bsf	3,5	;RP0=1, select bank3
  1000  0C12  1703               	bsf	3,6	;RP1=1, select bank3
  1001  0C13  0088               	movwf	8	;volatile
  1002  0C14                     l2649:
  1003  0C14  0189               	clrf	9	;volatile
  1004  0C15                     l2651:
  1005  0C15  3003               	movlw	3
  1006  0C16  1683               	bsf	3,5	;RP0=1, select bank1
  1007  0C17  1303               	bcf	3,6	;RP1=0, select bank1
  1008  0C18  0085               	movwf	5	;volatile
  1009  0C19                     l2653:
  1010  0C19  0186               	clrf	6	;volatile
  1011  0C1A                     l2655:
  1012  0C1A  0188               	clrf	8	;volatile
  1013  0C1B                     l2657:
  1014  0C1B  0187               	clrf	7	;volatile
  1015  0C1C                     l2659:
  1016  0C1C  0189               	clrf	9	;volatile
  1017  0C1D                     l2661:
  1018  0C1D  1283               	bcf	3,5	;RP0=0, select bank0
  1019  0C1E  1303               	bcf	3,6	;RP1=0, select bank0
  1020  0C1F  0185               	clrf	5	;volatile
  1021  0C20                     l2663:
  1022  0C20  0186               	clrf	6	;volatile
  1023  0C21                     l2665:
  1024  0C21  0187               	clrf	7	;volatile
  1025  0C22                     l2667:
  1026  0C22  0188               	clrf	8	;volatile
  1027  0C23                     l2669:
  1028  0C23  0189               	clrf	9	;volatile
  1029  0C24                     l2671:
  1030  0C24  120A  158A  2308  120A  158A  	fcall	_inicializacion
  1031  0C29                     l2673:
  1032  0C29  120A  118A  2388  120A  158A  	fcall	_ADC
  1033  0C2E                     l2675:
  1034  0C2E  120A  158A  22DC  120A  158A  	fcall	_SerialCom
  1035  0C33  2C24               	goto	l2671
  1036  0C34  120A  118A  280C   	ljmp	start
  1037  0C37                     __end_of_main:
  1038                           
  1039                           	psect	text1
  1040  0B08                     __ptext1:	
  1041 ;; *************** function _inicializacion *****************
  1042 ;; Defined at:
  1043 ;;		line 55 in file "LCD.c"
  1044 ;; Parameters:    Size  Location     Type
  1045 ;;		None
  1046 ;; Auto vars:     Size  Location     Type
  1047 ;;		None
  1048 ;; Return value:  Size  Location     Type
  1049 ;;                  1    wreg      void 
  1050 ;; Registers used:
  1051 ;;		wreg, status,2, status,0, pclath, cstack
  1052 ;; Tracked objects:
  1053 ;;		On entry : 0/0
  1054 ;;		On exit  : 0/0
  1055 ;;		Unchanged: 0/0
  1056 ;; Data sizes:     COMMON   BANK0   BANK1   BANK3   BANK2
  1057 ;;      Params:         0       0       0       0       0
  1058 ;;      Locals:         0       0       0       0       0
  1059 ;;      Temps:          0       0       0       0       0
  1060 ;;      Totals:         0       0       0       0       0
  1061 ;;Total ram usage:        0 bytes
  1062 ;; Hardware stack levels used:    1
  1063 ;; Hardware stack levels required when called:    4
  1064 ;; This function calls:
  1065 ;;		_lcd_cmd
  1066 ;; This function is called by:
  1067 ;;		_main
  1068 ;; This function uses a non-reentrant model
  1069 ;;
  1070                           
  1071                           
  1072                           ;psect for function _inicializacion
  1073  0B08                     _inicializacion:
  1074  0B08                     l2217:	
  1075                           ;incstack = 0
  1076                           ; Regs used in _inicializacion: [wreg+status,2+status,0+pclath+cstack]
  1077                           
  1078                           
  1079                           ;LCD.c: 56:     lcd_cmd(0x38);
  1080  0B08  3038               	movlw	56
  1081  0B09  120A  158A  22B8  120A  158A  	fcall	_lcd_cmd
  1082                           
  1083                           ;LCD.c: 57:     lcd_cmd(0x0C);
  1084  0B0E  300C               	movlw	12
  1085  0B0F  120A  158A  22B8  120A  158A  	fcall	_lcd_cmd
  1086                           
  1087                           ;LCD.c: 58:     lcd_cmd(0x01);
  1088  0B14  3001               	movlw	1
  1089  0B15  120A  158A  22B8  120A  158A  	fcall	_lcd_cmd
  1090                           
  1091                           ;LCD.c: 59:     lcd_cmd(0x06);
  1092  0B1A  3006               	movlw	6
  1093  0B1B  120A  158A  22B8  120A  158A  	fcall	_lcd_cmd
  1094                           
  1095                           ;LCD.c: 60:     lcd_cmd(0x80);
  1096  0B20  3080               	movlw	128
  1097  0B21  120A  158A  22B8  120A  158A  	fcall	_lcd_cmd
  1098  0B26                     l77:
  1099  0B26  0008               	return
  1100  0B27                     __end_of_inicializacion:
  1101                           
  1102                           	psect	text2
  1103  0ADC                     __ptext2:	
  1104 ;; *************** function _SerialCom *****************
  1105 ;; Defined at:
  1106 ;;		line 54 in file "adc.c"
  1107 ;; Parameters:    Size  Location     Type
  1108 ;;		None
  1109 ;; Auto vars:     Size  Location     Type
  1110 ;;		None
  1111 ;; Return value:  Size  Location     Type
  1112 ;;                  1    wreg      void 
  1113 ;; Registers used:
  1114 ;;		wreg
  1115 ;; Tracked objects:
  1116 ;;		On entry : 0/0
  1117 ;;		On exit  : 0/0
  1118 ;;		Unchanged: 0/0
  1119 ;; Data sizes:     COMMON   BANK0   BANK1   BANK3   BANK2
  1120 ;;      Params:         0       0       0       0       0
  1121 ;;      Locals:         0       0       0       0       0
  1122 ;;      Temps:          0       0       0       0       0
  1123 ;;      Totals:         0       0       0       0       0
  1124 ;;Total ram usage:        0 bytes
  1125 ;; Hardware stack levels used:    1
  1126 ;; Hardware stack levels required when called:    2
  1127 ;; This function calls:
  1128 ;;		Nothing
  1129 ;; This function is called by:
  1130 ;;		_main
  1131 ;; This function uses a non-reentrant model
  1132 ;;
  1133                           
  1134                           
  1135                           ;psect for function _SerialCom
  1136  0ADC                     _SerialCom:
  1137  0ADC                     l1529:	
  1138                           ;incstack = 0
  1139                           ; Regs used in _SerialCom: [wreg]
  1140                           
  1141                           
  1142                           ;adc.c: 56:     INTCONbits.GIE = 1;
  1143  0ADC  178B               	bsf	11,7	;volatile
  1144                           
  1145                           ;adc.c: 57:     INTCONbits.PEIE = 1;
  1146  0ADD  170B               	bsf	11,6	;volatile
  1147                           
  1148                           ;adc.c: 58:     PIE1bits.RCIE = 1;
  1149  0ADE  1683               	bsf	3,5	;RP0=1, select bank1
  1150  0ADF  1303               	bcf	3,6	;RP1=0, select bank1
  1151  0AE0  168C               	bsf	12,5	;volatile
  1152                           
  1153                           ;adc.c: 59:     PIE1bits.TXIE = 1;
  1154  0AE1  160C               	bsf	12,4	;volatile
  1155                           
  1156                           ;adc.c: 61:     PIR1bits.RCIF = 0;
  1157  0AE2  1283               	bcf	3,5	;RP0=0, select bank0
  1158  0AE3  1303               	bcf	3,6	;RP1=0, select bank0
  1159  0AE4  128C               	bcf	12,5	;volatile
  1160                           
  1161                           ;adc.c: 62:     PIR1bits.TXIF = 0;
  1162  0AE5  120C               	bcf	12,4	;volatile
  1163  0AE6                     l1531:
  1164                           
  1165                           ;adc.c: 63:     SPBRG = 23;
  1166  0AE6  3017               	movlw	23
  1167  0AE7  1683               	bsf	3,5	;RP0=1, select bank1
  1168  0AE8  1303               	bcf	3,6	;RP1=0, select bank1
  1169  0AE9  0099               	movwf	25	;volatile
  1170                           
  1171                           ;adc.c: 64:     TXSTA = 0b00100100;
  1172  0AEA  3024               	movlw	36
  1173  0AEB  0098               	movwf	24	;volatile
  1174                           
  1175                           ;adc.c: 65:     RCSTA = 0b10010000;
  1176  0AEC  3090               	movlw	144
  1177  0AED  1283               	bcf	3,5	;RP0=0, select bank0
  1178  0AEE  1303               	bcf	3,6	;RP1=0, select bank0
  1179  0AEF  0098               	movwf	24	;volatile
  1180  0AF0                     l162:
  1181  0AF0  0008               	return
  1182  0AF1                     __end_of_SerialCom:
  1183                           
  1184                           	psect	text3
  1185  0388                     __ptext3:	
  1186 ;; *************** function _ADC *****************
  1187 ;; Defined at:
  1188 ;;		line 89 in file "adc.c"
  1189 ;; Parameters:    Size  Location     Type
  1190 ;;		None
  1191 ;; Auto vars:     Size  Location     Type
  1192 ;;		None
  1193 ;; Return value:  Size  Location     Type
  1194 ;;                  1    wreg      void 
  1195 ;; Registers used:
  1196 ;;		wreg, fsr0l, fsr0h, status,2, status,0, btemp+1, pclath, cstack
  1197 ;; Tracked objects:
  1198 ;;		On entry : 0/0
  1199 ;;		On exit  : 0/0
  1200 ;;		Unchanged: 0/0
  1201 ;; Data sizes:     COMMON   BANK0   BANK1   BANK3   BANK2
  1202 ;;      Params:         0       0       0       0       0
  1203 ;;      Locals:         0       0       0       0       0
  1204 ;;      Temps:          0       0       4       0       0
  1205 ;;      Totals:         0       0       4       0       0
  1206 ;;Total ram usage:        4 bytes
  1207 ;; Hardware stack levels used:    1
  1208 ;; Hardware stack levels required when called:    5
  1209 ;; This function calls:
  1210 ;;		___awdiv
  1211 ;;		___awmod
  1212 ;;		___fldiv
  1213 ;;		___flmul
  1214 ;;		___fltol
  1215 ;;		___xxtofl
  1216 ;;		_itoa
  1217 ;;		_lcd_cmd
  1218 ;;		_lcd_msg
  1219 ;;		_strcat
  1220 ;;		_strcpy
  1221 ;; This function is called by:
  1222 ;;		_main
  1223 ;; This function uses a non-reentrant model
  1224 ;;
  1225                           
  1226                           
  1227                           ;psect for function _ADC
  1228  0388                     _ADC:
  1229  0388                     l176:	
  1230                           ;incstack = 0
  1231                           ; Regs used in _ADC: [wreg-fsr0h+status,2+status,0+btemp+1+pclath+cstack]
  1232                           ;adc.c: 90:     while (1) {
  1233                           
  1234  0388                     l2541:
  1235                           
  1236                           ;adc.c: 92:         ADCON0bits.ADCS = 01;
  1237  0388  1283               	bcf	3,5	;RP0=0, select bank0
  1238  0389  1303               	bcf	3,6	;RP1=0, select bank0
  1239  038A  081F               	movf	31,w	;volatile
  1240  038B  393F               	andlw	-193
  1241  038C  3840               	iorlw	64
  1242  038D  009F               	movwf	31	;volatile
  1243  038E                     l2543:
  1244                           
  1245                           ;adc.c: 93:         ADCON0bits.ADON = 1;
  1246  038E  141F               	bsf	31,0	;volatile
  1247  038F                     l2545:
  1248                           
  1249                           ;adc.c: 94:         ADCON1bits.ADFM = 0;
  1250  038F  1683               	bsf	3,5	;RP0=1, select bank1
  1251  0390  1303               	bcf	3,6	;RP1=0, select bank1
  1252  0391  139F               	bcf	31,7	;volatile
  1253  0392                     l2547:
  1254                           
  1255                           ;adc.c: 95:         ADCON1bits.VCFG0 = 0;
  1256  0392  121F               	bcf	31,4	;volatile
  1257  0393                     l2549:
  1258                           
  1259                           ;adc.c: 96:         ADCON1bits.VCFG1 = 0;
  1260  0393  129F               	bcf	31,5	;volatile
  1261  0394                     l2551:
  1262                           
  1263                           ;adc.c: 98:         lcd_msg("S1    S2   S3");
  1264  0394  3001               	movlw	(low ((STR_1-__stringbase)| (0+32768)))& (0+255)
  1265  0395  00F6               	movwf	lcd_msg@c
  1266  0396  3080               	movlw	128
  1267  0397  00F7               	movwf	lcd_msg@c+1
  1268  0398  120A  158A  238E  120A  118A  	fcall	_lcd_msg
  1269  039D                     l2553:
  1270                           
  1271                           ;adc.c: 102:             _delay((unsigned long)((1)*(4000000/4000.0)));
  1272  039D  30C7               	movlw	199
  1273  039E  1683               	bsf	3,5	;RP0=1, select bank1
  1274  039F  1303               	bcf	3,6	;RP1=0, select bank1
  1275  03A0  00D9               	movwf	??_ADC^(0+128)
  1276  03A1                     u3207:
  1277  03A1  2BA2               	nop2
  1278  03A2  0BD9               	decfsz	??_ADC^(0+128),f
  1279  03A3  2BA1               	goto	u3207
  1280  03A4  2BA5               	nop2
  1281  03A5                     l2555:
  1282                           
  1283                           ;adc.c: 103:             ADCON0bits.CHS = 0000;
  1284  03A5  30C3               	movlw	-61
  1285  03A6  1283               	bcf	3,5	;RP0=0, select bank0
  1286  03A7  1303               	bcf	3,6	;RP1=0, select bank0
  1287  03A8  059F               	andwf	31,f	;volatile
  1288  03A9                     l2557:
  1289                           
  1290                           ;adc.c: 104:             ADCON0bits.ADON = 1;
  1291  03A9  141F               	bsf	31,0	;volatile
  1292  03AA                     l2559:
  1293                           
  1294                           ;adc.c: 105:             ADCON0bits.GO = 1;
  1295  03AA  149F               	bsf	31,1	;volatile
  1296  03AB                     l178:	
  1297                           ;adc.c: 106:             while (ADCON0bits.GO);
  1298                           
  1299  03AB  189F               	btfsc	31,1	;volatile
  1300  03AC  2BAE               	goto	u3181
  1301  03AD  2BAF               	goto	u3180
  1302  03AE                     u3181:
  1303  03AE  2BAB               	goto	l178
  1304  03AF                     u3180:
  1305  03AF                     l2561:
  1306                           
  1307                           ;adc.c: 108:             ADC1ADRESH = ADRESH;
  1308  03AF  081E               	movf	30,w	;volatile
  1309  03B0  1683               	bsf	3,5	;RP0=1, select bank1
  1310  03B1  1303               	bcf	3,6	;RP1=0, select bank1
  1311  03B2  00D9               	movwf	??_ADC^(0+128)
  1312  03B3  0859               	movf	??_ADC^(0+128),w
  1313  03B4  1283               	bcf	3,5	;RP0=0, select bank0
  1314  03B5  1303               	bcf	3,6	;RP1=0, select bank0
  1315  03B6  00EF               	movwf	_ADC1ADRESH
  1316  03B7                     l2563:
  1317                           
  1318                           ;adc.c: 110:             ADCLA = (ADC1ADRESH * 5.0) / 255.0;
  1319  03B7  3043               	movlw	67
  1320  03B8  00C7               	movwf	___fldiv@a+3
  1321  03B9  307F               	movlw	127
  1322  03BA  00C6               	movwf	___fldiv@a+2
  1323  03BB  3000               	movlw	0
  1324  03BC  00C5               	movwf	___fldiv@a+1
  1325  03BD  3000               	movlw	0
  1326  03BE  00C4               	movwf	___fldiv@a
  1327  03BF  3040               	movlw	64
  1328  03C0  00AD               	movwf	___flmul@b+3
  1329  03C1  30A0               	movlw	160
  1330  03C2  00AC               	movwf	___flmul@b+2
  1331  03C3  3000               	movlw	0
  1332  03C4  00AB               	movwf	___flmul@b+1
  1333  03C5  3000               	movlw	0
  1334  03C6  00AA               	movwf	___flmul@b
  1335  03C7  086F               	movf	_ADC1ADRESH,w
  1336  03C8  1683               	bsf	3,5	;RP0=1, select bank1
  1337  03C9  1303               	bcf	3,6	;RP1=0, select bank1
  1338  03CA  00D9               	movwf	??_ADC^(0+128)
  1339  03CB  01DA               	clrf	(??_ADC^(0+128)+1)
  1340  03CC  01DB               	clrf	(??_ADC^(0+128)+2)
  1341  03CD  01DC               	clrf	(??_ADC^(0+128)+3)
  1342  03CE  085C               	movf	(??_ADC+3)^(0+128),w
  1343  03CF  00F6               	movwf	___xxtofl@val+3
  1344  03D0  085B               	movf	(??_ADC+2)^(0+128),w
  1345  03D1  00F5               	movwf	___xxtofl@val+2
  1346  03D2  085A               	movf	(??_ADC+1)^(0+128),w
  1347  03D3  00F4               	movwf	___xxtofl@val+1
  1348  03D4  0859               	movf	??_ADC^(0+128),w
  1349  03D5  00F3               	movwf	___xxtofl@val
  1350  03D6  3001               	movlw	1
  1351  03D7  120A  118A  26C3  120A  118A  	fcall	___xxtofl
  1352  03DC  0876               	movf	?___xxtofl+3,w
  1353  03DD  1283               	bcf	3,5	;RP0=0, select bank0
  1354  03DE  1303               	bcf	3,6	;RP1=0, select bank0
  1355  03DF  00B1               	movwf	___flmul@a+3
  1356  03E0  0875               	movf	?___xxtofl+2,w
  1357  03E1  00B0               	movwf	___flmul@a+2
  1358  03E2  0874               	movf	?___xxtofl+1,w
  1359  03E3  00AF               	movwf	___flmul@a+1
  1360  03E4  0873               	movf	?___xxtofl,w
  1361  03E5  00AE               	movwf	___flmul@a
  1362  03E6  120A  118A  2027  120A  118A  	fcall	___flmul
  1363  03EB  1283               	bcf	3,5	;RP0=0, select bank0
  1364  03EC  1303               	bcf	3,6	;RP1=0, select bank0
  1365  03ED  082D               	movf	?___flmul+3,w
  1366  03EE  00CB               	movwf	___fldiv@b+3
  1367  03EF  082C               	movf	?___flmul+2,w
  1368  03F0  00CA               	movwf	___fldiv@b+2
  1369  03F1  082B               	movf	?___flmul+1,w
  1370  03F2  00C9               	movwf	___fldiv@b+1
  1371  03F3  082A               	movf	?___flmul,w
  1372  03F4  00C8               	movwf	___fldiv@b
  1373  03F5  120A  158A  2623  120A  118A  	fcall	___fldiv
  1374  03FA  1283               	bcf	3,5	;RP0=0, select bank0
  1375  03FB  1303               	bcf	3,6	;RP1=0, select bank0
  1376  03FC  0847               	movf	?___fldiv+3,w
  1377  03FD  1683               	bsf	3,5	;RP0=1, select bank1
  1378  03FE  1303               	bcf	3,6	;RP1=0, select bank1
  1379  03FF  00A7               	movwf	(_ADCLA+3)^(0+128)
  1380  0400  1283               	bcf	3,5	;RP0=0, select bank0
  1381  0401  1303               	bcf	3,6	;RP1=0, select bank0
  1382  0402  0846               	movf	?___fldiv+2,w
  1383  0403  1683               	bsf	3,5	;RP0=1, select bank1
  1384  0404  1303               	bcf	3,6	;RP1=0, select bank1
  1385  0405  00A6               	movwf	(_ADCLA+2)^(0+128)
  1386  0406  1283               	bcf	3,5	;RP0=0, select bank0
  1387  0407  1303               	bcf	3,6	;RP1=0, select bank0
  1388  0408  0845               	movf	?___fldiv+1,w
  1389  0409  1683               	bsf	3,5	;RP0=1, select bank1
  1390  040A  1303               	bcf	3,6	;RP1=0, select bank1
  1391  040B  00A5               	movwf	(_ADCLA+1)^(0+128)
  1392  040C  1283               	bcf	3,5	;RP0=0, select bank0
  1393  040D  1303               	bcf	3,6	;RP1=0, select bank0
  1394  040E  0844               	movf	?___fldiv,w
  1395  040F  1683               	bsf	3,5	;RP0=1, select bank1
  1396  0410  1303               	bcf	3,6	;RP1=0, select bank1
  1397  0411  00A4               	movwf	_ADCLA^(0+128)
  1398  0412                     l2565:
  1399                           
  1400                           ;adc.c: 111:             DCADC1 = (ADCLA)*100;
  1401  0412  0827               	movf	(_ADCLA+3)^(0+128),w
  1402  0413  1283               	bcf	3,5	;RP0=0, select bank0
  1403  0414  1303               	bcf	3,6	;RP1=0, select bank0
  1404  0415  00B1               	movwf	___flmul@a+3
  1405  0416  1683               	bsf	3,5	;RP0=1, select bank1
  1406  0417  1303               	bcf	3,6	;RP1=0, select bank1
  1407  0418  0826               	movf	(_ADCLA+2)^(0+128),w
  1408  0419  1283               	bcf	3,5	;RP0=0, select bank0
  1409  041A  1303               	bcf	3,6	;RP1=0, select bank0
  1410  041B  00B0               	movwf	___flmul@a+2
  1411  041C  1683               	bsf	3,5	;RP0=1, select bank1
  1412  041D  1303               	bcf	3,6	;RP1=0, select bank1
  1413  041E  0825               	movf	(_ADCLA+1)^(0+128),w
  1414  041F  1283               	bcf	3,5	;RP0=0, select bank0
  1415  0420  1303               	bcf	3,6	;RP1=0, select bank0
  1416  0421  00AF               	movwf	___flmul@a+1
  1417  0422  1683               	bsf	3,5	;RP0=1, select bank1
  1418  0423  1303               	bcf	3,6	;RP1=0, select bank1
  1419  0424  0824               	movf	_ADCLA^(0+128),w
  1420  0425  1283               	bcf	3,5	;RP0=0, select bank0
  1421  0426  1303               	bcf	3,6	;RP1=0, select bank0
  1422  0427  00AE               	movwf	___flmul@a
  1423  0428  3042               	movlw	66
  1424  0429  00AD               	movwf	___flmul@b+3
  1425  042A  30C8               	movlw	200
  1426  042B  00AC               	movwf	___flmul@b+2
  1427  042C  3000               	movlw	0
  1428  042D  00AB               	movwf	___flmul@b+1
  1429  042E  3000               	movlw	0
  1430  042F  00AA               	movwf	___flmul@b
  1431  0430  120A  118A  2027  120A  118A  	fcall	___flmul
  1432  0435  1283               	bcf	3,5	;RP0=0, select bank0
  1433  0436  1303               	bcf	3,6	;RP1=0, select bank0
  1434  0437  082D               	movf	?___flmul+3,w
  1435  0438  00C7               	movwf	___fltol@f1+3
  1436  0439  082C               	movf	?___flmul+2,w
  1437  043A  00C6               	movwf	___fltol@f1+2
  1438  043B  082B               	movf	?___flmul+1,w
  1439  043C  00C5               	movwf	___fltol@f1+1
  1440  043D  082A               	movf	?___flmul,w
  1441  043E  00C4               	movwf	___fltol@f1
  1442  043F  120A  118A  277F  120A  118A  	fcall	___fltol
  1443  0444  1283               	bcf	3,5	;RP0=0, select bank0
  1444  0445  1303               	bcf	3,6	;RP1=0, select bank0
  1445  0446  0845               	movf	?___fltol+1,w
  1446  0447  00ED               	movwf	_DCADC1+1
  1447  0448  0844               	movf	?___fltol,w
  1448  0449  00EC               	movwf	_DCADC1
  1449  044A                     l2567:
  1450                           
  1451                           ;adc.c: 113:             ADC1A = DCADC1 % 10;
  1452  044A  300A               	movlw	10
  1453  044B  00A4               	movwf	___awmod@divisor
  1454  044C  3000               	movlw	0
  1455  044D  00A5               	movwf	___awmod@divisor+1
  1456  044E  086D               	movf	_DCADC1+1,w
  1457  044F  00A7               	movwf	___awmod@dividend+1
  1458  0450  086C               	movf	_DCADC1,w
  1459  0451  00A6               	movwf	___awmod@dividend
  1460  0452  120A  158A  24ED  120A  118A  	fcall	___awmod
  1461  0457  1283               	bcf	3,5	;RP0=0, select bank0
  1462  0458  1303               	bcf	3,6	;RP1=0, select bank0
  1463  0459  0825               	movf	?___awmod+1,w
  1464  045A  00EB               	movwf	_ADC1A+1
  1465  045B  0824               	movf	?___awmod,w
  1466  045C  00EA               	movwf	_ADC1A
  1467  045D                     l2569:
  1468                           
  1469                           ;adc.c: 114:             itoa(ADCchar1A, ADC1A, 10);
  1470  045D  086B               	movf	_ADC1A+1,w
  1471  045E  00AD               	movwf	itoa@val+1
  1472  045F  086A               	movf	_ADC1A,w
  1473  0460  00AC               	movwf	itoa@val
  1474  0461  300A               	movlw	10
  1475  0462  00AE               	movwf	itoa@base
  1476  0463  3000               	movlw	0
  1477  0464  00AF               	movwf	itoa@base+1
  1478  0465  30D4               	movlw	(low (_ADCchar1A| 0))& (0+255)
  1479  0466  120A  158A  2368  120A  118A  	fcall	_itoa
  1480  046B                     l2571:
  1481                           
  1482                           ;adc.c: 115:             ADC1B = (DCADC1 / 10) % 10;
  1483  046B  300A               	movlw	10
  1484  046C  1283               	bcf	3,5	;RP0=0, select bank0
  1485  046D  1303               	bcf	3,6	;RP1=0, select bank0
  1486  046E  00A4               	movwf	___awmod@divisor
  1487  046F  3000               	movlw	0
  1488  0470  00A5               	movwf	___awmod@divisor+1
  1489  0471  300A               	movlw	10
  1490  0472  00F3               	movwf	___awdiv@divisor
  1491  0473  3000               	movlw	0
  1492  0474  00F4               	movwf	___awdiv@divisor+1
  1493  0475  086D               	movf	_DCADC1+1,w
  1494  0476  00F6               	movwf	___awdiv@dividend+1
  1495  0477  086C               	movf	_DCADC1,w
  1496  0478  00F5               	movwf	___awdiv@dividend
  1497  0479  120A  158A  2548  120A  118A  	fcall	___awdiv
  1498  047E  0874               	movf	?___awdiv+1,w
  1499  047F  1283               	bcf	3,5	;RP0=0, select bank0
  1500  0480  1303               	bcf	3,6	;RP1=0, select bank0
  1501  0481  00A7               	movwf	___awmod@dividend+1
  1502  0482  0873               	movf	?___awdiv,w
  1503  0483  00A6               	movwf	___awmod@dividend
  1504  0484  120A  158A  24ED  120A  118A  	fcall	___awmod
  1505  0489  1283               	bcf	3,5	;RP0=0, select bank0
  1506  048A  1303               	bcf	3,6	;RP1=0, select bank0
  1507  048B  0825               	movf	?___awmod+1,w
  1508  048C  00E9               	movwf	_ADC1B+1
  1509  048D  0824               	movf	?___awmod,w
  1510  048E  00E8               	movwf	_ADC1B
  1511  048F                     l2573:
  1512                           
  1513                           ;adc.c: 116:             itoa(ADCchar1B, ADC1B, 10);
  1514  048F  0869               	movf	_ADC1B+1,w
  1515  0490  00AD               	movwf	itoa@val+1
  1516  0491  0868               	movf	_ADC1B,w
  1517  0492  00AC               	movwf	itoa@val
  1518  0493  300A               	movlw	10
  1519  0494  00AE               	movwf	itoa@base
  1520  0495  3000               	movlw	0
  1521  0496  00AF               	movwf	itoa@base+1
  1522  0497  30CF               	movlw	(low (_ADCchar1B| 0))& (0+255)
  1523  0498  120A  158A  2368  120A  118A  	fcall	_itoa
  1524  049D                     l2575:
  1525                           
  1526                           ;adc.c: 117:             ADC1C = (DCADC1 / 100) % 10;
  1527  049D  300A               	movlw	10
  1528  049E  1283               	bcf	3,5	;RP0=0, select bank0
  1529  049F  1303               	bcf	3,6	;RP1=0, select bank0
  1530  04A0  00A4               	movwf	___awmod@divisor
  1531  04A1  3000               	movlw	0
  1532  04A2  00A5               	movwf	___awmod@divisor+1
  1533  04A3  3064               	movlw	100
  1534  04A4  00F3               	movwf	___awdiv@divisor
  1535  04A5  3000               	movlw	0
  1536  04A6  00F4               	movwf	___awdiv@divisor+1
  1537  04A7  086D               	movf	_DCADC1+1,w
  1538  04A8  00F6               	movwf	___awdiv@dividend+1
  1539  04A9  086C               	movf	_DCADC1,w
  1540  04AA  00F5               	movwf	___awdiv@dividend
  1541  04AB  120A  158A  2548  120A  118A  	fcall	___awdiv
  1542  04B0  0874               	movf	?___awdiv+1,w
  1543  04B1  1283               	bcf	3,5	;RP0=0, select bank0
  1544  04B2  1303               	bcf	3,6	;RP1=0, select bank0
  1545  04B3  00A7               	movwf	___awmod@dividend+1
  1546  04B4  0873               	movf	?___awdiv,w
  1547  04B5  00A6               	movwf	___awmod@dividend
  1548  04B6  120A  158A  24ED  120A  118A  	fcall	___awmod
  1549  04BB  1283               	bcf	3,5	;RP0=0, select bank0
  1550  04BC  1303               	bcf	3,6	;RP1=0, select bank0
  1551  04BD  0825               	movf	?___awmod+1,w
  1552  04BE  00E7               	movwf	_ADC1C+1
  1553  04BF  0824               	movf	?___awmod,w
  1554  04C0  00E6               	movwf	_ADC1C
  1555  04C1                     l2577:
  1556                           
  1557                           ;adc.c: 118:             itoa(ADCchar1C, ADC1C, 10);
  1558  04C1  0867               	movf	_ADC1C+1,w
  1559  04C2  00AD               	movwf	itoa@val+1
  1560  04C3  0866               	movf	_ADC1C,w
  1561  04C4  00AC               	movwf	itoa@val
  1562  04C5  300A               	movlw	10
  1563  04C6  00AE               	movwf	itoa@base
  1564  04C7  3000               	movlw	0
  1565  04C8  00AF               	movwf	itoa@base+1
  1566  04C9  30CA               	movlw	(low (_ADCchar1C| 0))& (0+255)
  1567  04CA  120A  158A  2368  120A  118A  	fcall	_itoa
  1568  04CF                     l2579:
  1569                           
  1570                           ;adc.c: 120:             strcat(ADCchar1B, ADCchar1A);
  1571  04CF  30CF               	movlw	(low (_ADCchar1B| 0))& (0+255)
  1572  04D0  00F3               	movwf	strcat@to
  1573  04D1  3000               	movlw	0
  1574  04D2  00F4               	movwf	strcat@to+1
  1575  04D3  30D4               	movlw	(low (_ADCchar1A| 0))& (0+255)
  1576  04D4  1683               	bsf	3,5	;RP0=1, select bank1
  1577  04D5  1303               	bcf	3,6	;RP1=0, select bank1
  1578  04D6  00D9               	movwf	??_ADC^(0+128)
  1579  04D7  0859               	movf	??_ADC^(0+128),w
  1580  04D8  00F5               	movwf	strcat@from
  1581  04D9  120A  158A  2437  120A  118A  	fcall	_strcat
  1582  04DE                     l2581:
  1583                           
  1584                           ;adc.c: 121:             strcpy(PUNTO1A, ".");
  1585  04DE  3012               	movlw	(low ((STR_2-__stringbase)| (0+32768)))& (0+255)
  1586  04DF  1683               	bsf	3,5	;RP0=1, select bank1
  1587  04E0  1303               	bcf	3,6	;RP1=0, select bank1
  1588  04E1  00D9               	movwf	??_ADC^(0+128)
  1589  04E2  0859               	movf	??_ADC^(0+128),w
  1590  04E3  00F3               	movwf	strcpy@from
  1591  04E4  30C5               	movlw	(low (_PUNTO1A| 0))& (0+255)
  1592  04E5  120A  158A  2347  120A  118A  	fcall	_strcpy
  1593  04EA                     l2583:
  1594                           
  1595                           ;adc.c: 122:             strcat(PUNTO1A, ADCchar1B);
  1596  04EA  30C5               	movlw	(low (_PUNTO1A| 0))& (0+255)
  1597  04EB  00F3               	movwf	strcat@to
  1598  04EC  3000               	movlw	0
  1599  04ED  00F4               	movwf	strcat@to+1
  1600  04EE  30CF               	movlw	(low (_ADCchar1B| 0))& (0+255)
  1601  04EF  1683               	bsf	3,5	;RP0=1, select bank1
  1602  04F0  1303               	bcf	3,6	;RP1=0, select bank1
  1603  04F1  00D9               	movwf	??_ADC^(0+128)
  1604  04F2  0859               	movf	??_ADC^(0+128),w
  1605  04F3  00F5               	movwf	strcat@from
  1606  04F4  120A  158A  2437  120A  118A  	fcall	_strcat
  1607  04F9                     l2585:
  1608                           
  1609                           ;adc.c: 123:             strcat(ADCchar1C, PUNTO1A);
  1610  04F9  30CA               	movlw	(low (_ADCchar1C| 0))& (0+255)
  1611  04FA  00F3               	movwf	strcat@to
  1612  04FB  3000               	movlw	0
  1613  04FC  00F4               	movwf	strcat@to+1
  1614  04FD  30C5               	movlw	(low (_PUNTO1A| 0))& (0+255)
  1615  04FE  1683               	bsf	3,5	;RP0=1, select bank1
  1616  04FF  1303               	bcf	3,6	;RP1=0, select bank1
  1617  0500  00D9               	movwf	??_ADC^(0+128)
  1618  0501  0859               	movf	??_ADC^(0+128),w
  1619  0502  00F5               	movwf	strcat@from
  1620  0503  120A  158A  2437  120A  118A  	fcall	_strcat
  1621  0508                     l2587:
  1622                           
  1623                           ;adc.c: 125:             _delay((unsigned long)((600)*(4000000/4000000.0)));
  1624  0508  30C7               	movlw	199
  1625  0509  1683               	bsf	3,5	;RP0=1, select bank1
  1626  050A  1303               	bcf	3,6	;RP1=0, select bank1
  1627  050B  00D9               	movwf	??_ADC^(0+128)
  1628  050C                     u3217:
  1629  050C  0BD9               	decfsz	??_ADC^(0+128),f
  1630  050D  2D0C               	goto	u3217
  1631  050E                     l2589:
  1632                           
  1633                           ;adc.c: 126:             ADCON0bits.CHS = 0001;
  1634  050E  1283               	bcf	3,5	;RP0=0, select bank0
  1635  050F  1303               	bcf	3,6	;RP1=0, select bank0
  1636  0510  081F               	movf	31,w	;volatile
  1637  0511  39C3               	andlw	-61
  1638  0512  3804               	iorlw	4
  1639  0513  009F               	movwf	31	;volatile
  1640  0514                     l2591:
  1641                           
  1642                           ;adc.c: 127:             ADCON0bits.ADON = 1;
  1643  0514  141F               	bsf	31,0	;volatile
  1644  0515                     l2593:
  1645                           
  1646                           ;adc.c: 128:             ADCON0bits.GO = 1;
  1647  0515  149F               	bsf	31,1	;volatile
  1648  0516                     l181:	
  1649                           ;adc.c: 129:             while (ADCON0bits.GO);
  1650                           
  1651  0516  189F               	btfsc	31,1	;volatile
  1652  0517  2D19               	goto	u3191
  1653  0518  2D1A               	goto	u3190
  1654  0519                     u3191:
  1655  0519  2D16               	goto	l181
  1656  051A                     u3190:
  1657  051A                     l2595:
  1658                           
  1659                           ;adc.c: 130:             ADC2ADRESH = ADRESH;
  1660  051A  081E               	movf	30,w	;volatile
  1661  051B  1683               	bsf	3,5	;RP0=1, select bank1
  1662  051C  1303               	bcf	3,6	;RP1=0, select bank1
  1663  051D  00D9               	movwf	??_ADC^(0+128)
  1664  051E  0859               	movf	??_ADC^(0+128),w
  1665  051F  1283               	bcf	3,5	;RP0=0, select bank0
  1666  0520  1303               	bcf	3,6	;RP1=0, select bank0
  1667  0521  00EE               	movwf	_ADC2ADRESH
  1668  0522                     l2597:
  1669                           
  1670                           ;adc.c: 131:             ADCLB = ADC2ADRESH * 5.0 / 255.0;
  1671  0522  3043               	movlw	67
  1672  0523  00C7               	movwf	___fldiv@a+3
  1673  0524  307F               	movlw	127
  1674  0525  00C6               	movwf	___fldiv@a+2
  1675  0526  3000               	movlw	0
  1676  0527  00C5               	movwf	___fldiv@a+1
  1677  0528  3000               	movlw	0
  1678  0529  00C4               	movwf	___fldiv@a
  1679  052A  3040               	movlw	64
  1680  052B  00AD               	movwf	___flmul@b+3
  1681  052C  30A0               	movlw	160
  1682  052D  00AC               	movwf	___flmul@b+2
  1683  052E  3000               	movlw	0
  1684  052F  00AB               	movwf	___flmul@b+1
  1685  0530  3000               	movlw	0
  1686  0531  00AA               	movwf	___flmul@b
  1687  0532  086E               	movf	_ADC2ADRESH,w
  1688  0533  1683               	bsf	3,5	;RP0=1, select bank1
  1689  0534  1303               	bcf	3,6	;RP1=0, select bank1
  1690  0535  00D9               	movwf	??_ADC^(0+128)
  1691  0536  01DA               	clrf	(??_ADC^(0+128)+1)
  1692  0537  01DB               	clrf	(??_ADC^(0+128)+2)
  1693  0538  01DC               	clrf	(??_ADC^(0+128)+3)
  1694  0539  085C               	movf	(??_ADC+3)^(0+128),w
  1695  053A  00F6               	movwf	___xxtofl@val+3
  1696  053B  085B               	movf	(??_ADC+2)^(0+128),w
  1697  053C  00F5               	movwf	___xxtofl@val+2
  1698  053D  085A               	movf	(??_ADC+1)^(0+128),w
  1699  053E  00F4               	movwf	___xxtofl@val+1
  1700  053F  0859               	movf	??_ADC^(0+128),w
  1701  0540  00F3               	movwf	___xxtofl@val
  1702  0541  3001               	movlw	1
  1703  0542  120A  118A  26C3  120A  118A  	fcall	___xxtofl
  1704  0547  0876               	movf	?___xxtofl+3,w
  1705  0548  1283               	bcf	3,5	;RP0=0, select bank0
  1706  0549  1303               	bcf	3,6	;RP1=0, select bank0
  1707  054A  00B1               	movwf	___flmul@a+3
  1708  054B  0875               	movf	?___xxtofl+2,w
  1709  054C  00B0               	movwf	___flmul@a+2
  1710  054D  0874               	movf	?___xxtofl+1,w
  1711  054E  00AF               	movwf	___flmul@a+1
  1712  054F  0873               	movf	?___xxtofl,w
  1713  0550  00AE               	movwf	___flmul@a
  1714  0551  120A  118A  2027  120A  118A  	fcall	___flmul
  1715  0556  1283               	bcf	3,5	;RP0=0, select bank0
  1716  0557  1303               	bcf	3,6	;RP1=0, select bank0
  1717  0558  082D               	movf	?___flmul+3,w
  1718  0559  00CB               	movwf	___fldiv@b+3
  1719  055A  082C               	movf	?___flmul+2,w
  1720  055B  00CA               	movwf	___fldiv@b+2
  1721  055C  082B               	movf	?___flmul+1,w
  1722  055D  00C9               	movwf	___fldiv@b+1
  1723  055E  082A               	movf	?___flmul,w
  1724  055F  00C8               	movwf	___fldiv@b
  1725  0560  120A  158A  2623  120A  118A  	fcall	___fldiv
  1726  0565  1283               	bcf	3,5	;RP0=0, select bank0
  1727  0566  1303               	bcf	3,6	;RP1=0, select bank0
  1728  0567  0847               	movf	?___fldiv+3,w
  1729  0568  1683               	bsf	3,5	;RP0=1, select bank1
  1730  0569  1303               	bcf	3,6	;RP1=0, select bank1
  1731  056A  00A3               	movwf	(_ADCLB+3)^(0+128)
  1732  056B  1283               	bcf	3,5	;RP0=0, select bank0
  1733  056C  1303               	bcf	3,6	;RP1=0, select bank0
  1734  056D  0846               	movf	?___fldiv+2,w
  1735  056E  1683               	bsf	3,5	;RP0=1, select bank1
  1736  056F  1303               	bcf	3,6	;RP1=0, select bank1
  1737  0570  00A2               	movwf	(_ADCLB+2)^(0+128)
  1738  0571  1283               	bcf	3,5	;RP0=0, select bank0
  1739  0572  1303               	bcf	3,6	;RP1=0, select bank0
  1740  0573  0845               	movf	?___fldiv+1,w
  1741  0574  1683               	bsf	3,5	;RP0=1, select bank1
  1742  0575  1303               	bcf	3,6	;RP1=0, select bank1
  1743  0576  00A1               	movwf	(_ADCLB+1)^(0+128)
  1744  0577  1283               	bcf	3,5	;RP0=0, select bank0
  1745  0578  1303               	bcf	3,6	;RP1=0, select bank0
  1746  0579  0844               	movf	?___fldiv,w
  1747  057A  1683               	bsf	3,5	;RP0=1, select bank1
  1748  057B  1303               	bcf	3,6	;RP1=0, select bank1
  1749  057C  00A0               	movwf	_ADCLB^(0+128)
  1750  057D                     l2599:
  1751                           
  1752                           ;adc.c: 132:             DCADC2 = (ADCLB)*100;
  1753  057D  0823               	movf	(_ADCLB+3)^(0+128),w
  1754  057E  1283               	bcf	3,5	;RP0=0, select bank0
  1755  057F  1303               	bcf	3,6	;RP1=0, select bank0
  1756  0580  00B1               	movwf	___flmul@a+3
  1757  0581  1683               	bsf	3,5	;RP0=1, select bank1
  1758  0582  1303               	bcf	3,6	;RP1=0, select bank1
  1759  0583  0822               	movf	(_ADCLB+2)^(0+128),w
  1760  0584  1283               	bcf	3,5	;RP0=0, select bank0
  1761  0585  1303               	bcf	3,6	;RP1=0, select bank0
  1762  0586  00B0               	movwf	___flmul@a+2
  1763  0587  1683               	bsf	3,5	;RP0=1, select bank1
  1764  0588  1303               	bcf	3,6	;RP1=0, select bank1
  1765  0589  0821               	movf	(_ADCLB+1)^(0+128),w
  1766  058A  1283               	bcf	3,5	;RP0=0, select bank0
  1767  058B  1303               	bcf	3,6	;RP1=0, select bank0
  1768  058C  00AF               	movwf	___flmul@a+1
  1769  058D  1683               	bsf	3,5	;RP0=1, select bank1
  1770  058E  1303               	bcf	3,6	;RP1=0, select bank1
  1771  058F  0820               	movf	_ADCLB^(0+128),w
  1772  0590  1283               	bcf	3,5	;RP0=0, select bank0
  1773  0591  1303               	bcf	3,6	;RP1=0, select bank0
  1774  0592  00AE               	movwf	___flmul@a
  1775  0593  3042               	movlw	66
  1776  0594  00AD               	movwf	___flmul@b+3
  1777  0595  30C8               	movlw	200
  1778  0596  00AC               	movwf	___flmul@b+2
  1779  0597  3000               	movlw	0
  1780  0598  00AB               	movwf	___flmul@b+1
  1781  0599  3000               	movlw	0
  1782  059A  00AA               	movwf	___flmul@b
  1783  059B  120A  118A  2027  120A  118A  	fcall	___flmul
  1784  05A0  1283               	bcf	3,5	;RP0=0, select bank0
  1785  05A1  1303               	bcf	3,6	;RP1=0, select bank0
  1786  05A2  082D               	movf	?___flmul+3,w
  1787  05A3  00C7               	movwf	___fltol@f1+3
  1788  05A4  082C               	movf	?___flmul+2,w
  1789  05A5  00C6               	movwf	___fltol@f1+2
  1790  05A6  082B               	movf	?___flmul+1,w
  1791  05A7  00C5               	movwf	___fltol@f1+1
  1792  05A8  082A               	movf	?___flmul,w
  1793  05A9  00C4               	movwf	___fltol@f1
  1794  05AA  120A  118A  277F  120A  118A  	fcall	___fltol
  1795  05AF  1283               	bcf	3,5	;RP0=0, select bank0
  1796  05B0  1303               	bcf	3,6	;RP1=0, select bank0
  1797  05B1  0845               	movf	?___fltol+1,w
  1798  05B2  00E5               	movwf	_DCADC2+1
  1799  05B3  0844               	movf	?___fltol,w
  1800  05B4  00E4               	movwf	_DCADC2
  1801  05B5                     l2601:
  1802                           
  1803                           ;adc.c: 133:             ADC2A = DCADC2 % 10;
  1804  05B5  300A               	movlw	10
  1805  05B6  00A4               	movwf	___awmod@divisor
  1806  05B7  3000               	movlw	0
  1807  05B8  00A5               	movwf	___awmod@divisor+1
  1808  05B9  0865               	movf	_DCADC2+1,w
  1809  05BA  00A7               	movwf	___awmod@dividend+1
  1810  05BB  0864               	movf	_DCADC2,w
  1811  05BC  00A6               	movwf	___awmod@dividend
  1812  05BD  120A  158A  24ED  120A  118A  	fcall	___awmod
  1813  05C2  1283               	bcf	3,5	;RP0=0, select bank0
  1814  05C3  1303               	bcf	3,6	;RP1=0, select bank0
  1815  05C4  0825               	movf	?___awmod+1,w
  1816  05C5  00E3               	movwf	_ADC2A+1
  1817  05C6  0824               	movf	?___awmod,w
  1818  05C7  00E2               	movwf	_ADC2A
  1819  05C8                     l2603:
  1820                           
  1821                           ;adc.c: 134:             itoa(ADCchar2A, ADC2A, 10);
  1822  05C8  0863               	movf	_ADC2A+1,w
  1823  05C9  00AD               	movwf	itoa@val+1
  1824  05CA  0862               	movf	_ADC2A,w
  1825  05CB  00AC               	movwf	itoa@val
  1826  05CC  300A               	movlw	10
  1827  05CD  00AE               	movwf	itoa@base
  1828  05CE  3000               	movlw	0
  1829  05CF  00AF               	movwf	itoa@base+1
  1830  05D0  30BB               	movlw	(low (_ADCchar2A| 0))& (0+255)
  1831  05D1  120A  158A  2368  120A  118A  	fcall	_itoa
  1832  05D6                     l2605:
  1833                           
  1834                           ;adc.c: 135:             ADC2B = (DCADC2 / 10) % 10;
  1835  05D6  300A               	movlw	10
  1836  05D7  1283               	bcf	3,5	;RP0=0, select bank0
  1837  05D8  1303               	bcf	3,6	;RP1=0, select bank0
  1838  05D9  00A4               	movwf	___awmod@divisor
  1839  05DA  3000               	movlw	0
  1840  05DB  00A5               	movwf	___awmod@divisor+1
  1841  05DC  300A               	movlw	10
  1842  05DD  00F3               	movwf	___awdiv@divisor
  1843  05DE  3000               	movlw	0
  1844  05DF  00F4               	movwf	___awdiv@divisor+1
  1845  05E0  0865               	movf	_DCADC2+1,w
  1846  05E1  00F6               	movwf	___awdiv@dividend+1
  1847  05E2  0864               	movf	_DCADC2,w
  1848  05E3  00F5               	movwf	___awdiv@dividend
  1849  05E4  120A  158A  2548  120A  118A  	fcall	___awdiv
  1850  05E9  0874               	movf	?___awdiv+1,w
  1851  05EA  1283               	bcf	3,5	;RP0=0, select bank0
  1852  05EB  1303               	bcf	3,6	;RP1=0, select bank0
  1853  05EC  00A7               	movwf	___awmod@dividend+1
  1854  05ED  0873               	movf	?___awdiv,w
  1855  05EE  00A6               	movwf	___awmod@dividend
  1856  05EF  120A  158A  24ED  120A  118A  	fcall	___awmod
  1857  05F4  1283               	bcf	3,5	;RP0=0, select bank0
  1858  05F5  1303               	bcf	3,6	;RP1=0, select bank0
  1859  05F6  0825               	movf	?___awmod+1,w
  1860  05F7  00E1               	movwf	_ADC2B+1
  1861  05F8  0824               	movf	?___awmod,w
  1862  05F9  00E0               	movwf	_ADC2B
  1863  05FA                     l2607:
  1864                           
  1865                           ;adc.c: 136:             itoa(ADCchar2B, ADC2B, 10);
  1866  05FA  0861               	movf	_ADC2B+1,w
  1867  05FB  00AD               	movwf	itoa@val+1
  1868  05FC  0860               	movf	_ADC2B,w
  1869  05FD  00AC               	movwf	itoa@val
  1870  05FE  300A               	movlw	10
  1871  05FF  00AE               	movwf	itoa@base
  1872  0600  3000               	movlw	0
  1873  0601  00AF               	movwf	itoa@base+1
  1874  0602  30B6               	movlw	(low (_ADCchar2B| 0))& (0+255)
  1875  0603  120A  158A  2368  120A  118A  	fcall	_itoa
  1876  0608                     l2609:
  1877                           
  1878                           ;adc.c: 137:             ADC2C = (DCADC2 / 100) % 10;
  1879  0608  300A               	movlw	10
  1880  0609  1283               	bcf	3,5	;RP0=0, select bank0
  1881  060A  1303               	bcf	3,6	;RP1=0, select bank0
  1882  060B  00A4               	movwf	___awmod@divisor
  1883  060C  3000               	movlw	0
  1884  060D  00A5               	movwf	___awmod@divisor+1
  1885  060E  3064               	movlw	100
  1886  060F  00F3               	movwf	___awdiv@divisor
  1887  0610  3000               	movlw	0
  1888  0611  00F4               	movwf	___awdiv@divisor+1
  1889  0612  0865               	movf	_DCADC2+1,w
  1890  0613  00F6               	movwf	___awdiv@dividend+1
  1891  0614  0864               	movf	_DCADC2,w
  1892  0615  00F5               	movwf	___awdiv@dividend
  1893  0616  120A  158A  2548  120A  118A  	fcall	___awdiv
  1894  061B  0874               	movf	?___awdiv+1,w
  1895  061C  1283               	bcf	3,5	;RP0=0, select bank0
  1896  061D  1303               	bcf	3,6	;RP1=0, select bank0
  1897  061E  00A7               	movwf	___awmod@dividend+1
  1898  061F  0873               	movf	?___awdiv,w
  1899  0620  00A6               	movwf	___awmod@dividend
  1900  0621  120A  158A  24ED  120A  118A  	fcall	___awmod
  1901  0626  1283               	bcf	3,5	;RP0=0, select bank0
  1902  0627  1303               	bcf	3,6	;RP1=0, select bank0
  1903  0628  0825               	movf	?___awmod+1,w
  1904  0629  00DF               	movwf	_ADC2C+1
  1905  062A  0824               	movf	?___awmod,w
  1906  062B  00DE               	movwf	_ADC2C
  1907  062C                     l2611:
  1908                           
  1909                           ;adc.c: 138:             itoa(ADCchar2C, ADC2C, 10);
  1910  062C  085F               	movf	_ADC2C+1,w
  1911  062D  00AD               	movwf	itoa@val+1
  1912  062E  085E               	movf	_ADC2C,w
  1913  062F  00AC               	movwf	itoa@val
  1914  0630  300A               	movlw	10
  1915  0631  00AE               	movwf	itoa@base
  1916  0632  3000               	movlw	0
  1917  0633  00AF               	movwf	itoa@base+1
  1918  0634  30B1               	movlw	(low (_ADCchar2C| 0))& (0+255)
  1919  0635  120A  158A  2368  120A  118A  	fcall	_itoa
  1920  063A                     l2613:
  1921                           
  1922                           ;adc.c: 139:             strcat(ADCchar2B, ADCchar2A);
  1923  063A  30B6               	movlw	(low (_ADCchar2B| 0))& (0+255)
  1924  063B  00F3               	movwf	strcat@to
  1925  063C  3000               	movlw	0
  1926  063D  00F4               	movwf	strcat@to+1
  1927  063E  30BB               	movlw	(low (_ADCchar2A| 0))& (0+255)
  1928  063F  1683               	bsf	3,5	;RP0=1, select bank1
  1929  0640  1303               	bcf	3,6	;RP1=0, select bank1
  1930  0641  00D9               	movwf	??_ADC^(0+128)
  1931  0642  0859               	movf	??_ADC^(0+128),w
  1932  0643  00F5               	movwf	strcat@from
  1933  0644  120A  158A  2437  120A  118A  	fcall	_strcat
  1934  0649                     l2615:
  1935                           
  1936                           ;adc.c: 140:             strcpy(PUNTO2A, ".");
  1937  0649  3012               	movlw	(low ((STR_2-__stringbase)| (0+32768)))& (0+255)
  1938  064A  1683               	bsf	3,5	;RP0=1, select bank1
  1939  064B  1303               	bcf	3,6	;RP1=0, select bank1
  1940  064C  00D9               	movwf	??_ADC^(0+128)
  1941  064D  0859               	movf	??_ADC^(0+128),w
  1942  064E  00F3               	movwf	strcpy@from
  1943  064F  30AC               	movlw	(low (_PUNTO2A| 0))& (0+255)
  1944  0650  120A  158A  2347  120A  118A  	fcall	_strcpy
  1945  0655                     l2617:
  1946                           
  1947                           ;adc.c: 141:             strcat(PUNTO2A, ADCchar2B);
  1948  0655  30AC               	movlw	(low (_PUNTO2A| 0))& (0+255)
  1949  0656  00F3               	movwf	strcat@to
  1950  0657  3000               	movlw	0
  1951  0658  00F4               	movwf	strcat@to+1
  1952  0659  30B6               	movlw	(low (_ADCchar2B| 0))& (0+255)
  1953  065A  1683               	bsf	3,5	;RP0=1, select bank1
  1954  065B  1303               	bcf	3,6	;RP1=0, select bank1
  1955  065C  00D9               	movwf	??_ADC^(0+128)
  1956  065D  0859               	movf	??_ADC^(0+128),w
  1957  065E  00F5               	movwf	strcat@from
  1958  065F  120A  158A  2437  120A  118A  	fcall	_strcat
  1959  0664                     l2619:
  1960                           
  1961                           ;adc.c: 142:             strcat(ADCchar2C, PUNTO2A);
  1962  0664  30B1               	movlw	(low (_ADCchar2C| 0))& (0+255)
  1963  0665  00F3               	movwf	strcat@to
  1964  0666  3000               	movlw	0
  1965  0667  00F4               	movwf	strcat@to+1
  1966  0668  30AC               	movlw	(low (_PUNTO2A| 0))& (0+255)
  1967  0669  1683               	bsf	3,5	;RP0=1, select bank1
  1968  066A  1303               	bcf	3,6	;RP1=0, select bank1
  1969  066B  00D9               	movwf	??_ADC^(0+128)
  1970  066C  0859               	movf	??_ADC^(0+128),w
  1971  066D  00F5               	movwf	strcat@from
  1972  066E  120A  158A  2437  120A  118A  	fcall	_strcat
  1973  0673                     l2621:
  1974                           
  1975                           ;adc.c: 143:             strcpy(test, ".");
  1976  0673  3012               	movlw	(low ((STR_2-__stringbase)| (0+32768)))& (0+255)
  1977  0674  1683               	bsf	3,5	;RP0=1, select bank1
  1978  0675  1303               	bcf	3,6	;RP1=0, select bank1
  1979  0676  00D9               	movwf	??_ADC^(0+128)
  1980  0677  0859               	movf	??_ADC^(0+128),w
  1981  0678  00F3               	movwf	strcpy@from
  1982  0679  30C0               	movlw	(low (_test| 0))& (0+255)
  1983  067A  120A  158A  2347  120A  118A  	fcall	_strcpy
  1984  067F                     l2623:
  1985                           
  1986                           ;adc.c: 144:             strcat(Contador, test);
  1987  067F  0878               	movf	_Contador,w
  1988  0680  00F3               	movwf	strcat@to
  1989  0681  0879               	movf	_Contador+1,w
  1990  0682  00F4               	movwf	strcat@to+1
  1991  0683  30C0               	movlw	(low (_test| 0))& (0+255)
  1992  0684  1683               	bsf	3,5	;RP0=1, select bank1
  1993  0685  1303               	bcf	3,6	;RP1=0, select bank1
  1994  0686  00D9               	movwf	??_ADC^(0+128)
  1995  0687  0859               	movf	??_ADC^(0+128),w
  1996  0688  00F5               	movwf	strcat@from
  1997  0689  120A  158A  2437  120A  118A  	fcall	_strcat
  1998  068E                     l2625:
  1999                           
  2000                           ;adc.c: 145:             lcd_cmd(0xC0);
  2001  068E  30C0               	movlw	192
  2002  068F  120A  158A  22B8  120A  118A  	fcall	_lcd_cmd
  2003  0694                     l2627:
  2004                           
  2005                           ;adc.c: 147:             lcd_msg(ADCchar1C);
  2006  0694  30CA               	movlw	(low (_ADCchar1C| 0))& (0+255)
  2007  0695  00F6               	movwf	lcd_msg@c
  2008  0696  3000               	movlw	0
  2009  0697  00F7               	movwf	lcd_msg@c+1
  2010  0698  120A  158A  238E  120A  118A  	fcall	_lcd_msg
  2011  069D                     l2629:
  2012                           
  2013                           ;adc.c: 149:             lcd_msg("V ");
  2014  069D  300F               	movlw	(low ((STR_5-__stringbase)| (0+32768)))& (0+255)
  2015  069E  00F6               	movwf	lcd_msg@c
  2016  069F  3080               	movlw	128
  2017  06A0  00F7               	movwf	lcd_msg@c+1
  2018  06A1  120A  158A  238E  120A  118A  	fcall	_lcd_msg
  2019  06A6                     l2631:
  2020                           
  2021                           ;adc.c: 151:             lcd_msg(ADCchar2C);
  2022  06A6  30B1               	movlw	(low (_ADCchar2C| 0))& (0+255)
  2023  06A7  00F6               	movwf	lcd_msg@c
  2024  06A8  3000               	movlw	0
  2025  06A9  00F7               	movwf	lcd_msg@c+1
  2026  06AA  120A  158A  238E  120A  118A  	fcall	_lcd_msg
  2027  06AF                     l2633:
  2028                           
  2029                           ;adc.c: 152:             lcd_msg("V ");
  2030  06AF  300F               	movlw	(low ((STR_5-__stringbase)| (0+32768)))& (0+255)
  2031  06B0  00F6               	movwf	lcd_msg@c
  2032  06B1  3080               	movlw	128
  2033  06B2  00F7               	movwf	lcd_msg@c+1
  2034  06B3  120A  158A  238E  120A  118A  	fcall	_lcd_msg
  2035  06B8                     l2635:
  2036                           
  2037                           ;adc.c: 153:             lcd_msg(Contador);
  2038  06B8  0878               	movf	_Contador,w
  2039  06B9  00F6               	movwf	lcd_msg@c
  2040  06BA  0879               	movf	_Contador+1,w
  2041  06BB  00F7               	movwf	lcd_msg@c+1
  2042  06BC  120A  158A  238E  120A  118A  	fcall	_lcd_msg
  2043  06C1  2B9D               	goto	l2553
  2044  06C2  0008               	return
  2045  06C3                     __end_of_ADC:
  2046                           
  2047                           	psect	text4
  2048  0B47                     __ptext4:	
  2049 ;; *************** function _strcpy *****************
  2050 ;; Defined at:
  2051 ;;		line 8 in file "C:\Program Files\Microchip\xc8\v2.31\pic\sources\c90\common\strcpy.c"
  2052 ;; Parameters:    Size  Location     Type
  2053 ;;  to              1    wreg     PTR unsigned char 
  2054 ;;		 -> test(5), PUNTO2A(5), PUNTO1A(5), 
  2055 ;;  from            1    3[COMMON] PTR const unsigned char 
  2056 ;;		 -> STR_4(2), STR_3(2), STR_2(2), 
  2057 ;; Auto vars:     Size  Location     Type
  2058 ;;  to              1    6[COMMON] PTR unsigned char 
  2059 ;;		 -> test(5), PUNTO2A(5), PUNTO1A(5), 
  2060 ;;  cp              1    5[COMMON] PTR unsigned char 
  2061 ;;		 -> test(5), PUNTO2A(5), PUNTO1A(5), 
  2062 ;; Return value:  Size  Location     Type
  2063 ;;                  1    wreg      PTR unsigned char 
  2064 ;; Registers used:
  2065 ;;		wreg, fsr0l, fsr0h, status,2, status,0, pclath
  2066 ;; Tracked objects:
  2067 ;;		On entry : 0/0
  2068 ;;		On exit  : 0/0
  2069 ;;		Unchanged: 0/0
  2070 ;; Data sizes:     COMMON   BANK0   BANK1   BANK3   BANK2
  2071 ;;      Params:         1       0       0       0       0
  2072 ;;      Locals:         2       0       0       0       0
  2073 ;;      Temps:          1       0       0       0       0
  2074 ;;      Totals:         4       0       0       0       0
  2075 ;;Total ram usage:        4 bytes
  2076 ;; Hardware stack levels used:    1
  2077 ;; Hardware stack levels required when called:    2
  2078 ;; This function calls:
  2079 ;;		Nothing
  2080 ;; This function is called by:
  2081 ;;		_ADC
  2082 ;; This function uses a non-reentrant model
  2083 ;;
  2084                           
  2085                           
  2086                           ;psect for function _strcpy
  2087  0B47                     _strcpy:
  2088                           
  2089                           ;incstack = 0
  2090                           ; Regs used in _strcpy: [wreg-fsr0h+status,2+status,0+pclath]
  2091                           ;strcpy@to stored from wreg
  2092  0B47  00F6               	movwf	strcpy@to
  2093  0B48                     l1767:
  2094  0B48  0876               	movf	strcpy@to,w
  2095  0B49  00F4               	movwf	??_strcpy
  2096  0B4A  0874               	movf	??_strcpy,w
  2097  0B4B  00F5               	movwf	strcpy@cp
  2098  0B4C  2B55               	goto	l1771
  2099  0B4D                     l1769:
  2100  0B4D  3001               	movlw	1
  2101  0B4E  00F4               	movwf	??_strcpy
  2102  0B4F  0874               	movf	??_strcpy,w
  2103  0B50  07F5               	addwf	strcpy@cp,f
  2104  0B51  3001               	movlw	1
  2105  0B52  00F4               	movwf	??_strcpy
  2106  0B53  0874               	movf	??_strcpy,w
  2107  0B54  07F3               	addwf	strcpy@from,f
  2108  0B55                     l1771:
  2109  0B55  0873               	movf	strcpy@from,w
  2110  0B56  0084               	movwf	4
  2111  0B57  120A  158A  200A  120A  158A  	fcall	stringdir
  2112  0B5C  00F4               	movwf	??_strcpy
  2113  0B5D  0875               	movf	strcpy@cp,w
  2114  0B5E  0084               	movwf	4
  2115  0B5F  0874               	movf	??_strcpy,w
  2116  0B60  1383               	bcf	3,7	;select IRP bank0
  2117  0B61  0080               	movwf	0
  2118  0B62  0800               	movf	0,w
  2119  0B63  1D03               	btfss	3,2
  2120  0B64  2B66               	goto	u1641
  2121  0B65  2B67               	goto	u1640
  2122  0B66                     u1641:
  2123  0B66  2B4D               	goto	l1769
  2124  0B67                     u1640:
  2125  0B67                     l751:
  2126  0B67  0008               	return
  2127  0B68                     __end_of_strcpy:
  2128                           
  2129                           	psect	text5
  2130  0C37                     __ptext5:	
  2131 ;; *************** function _strcat *****************
  2132 ;; Defined at:
  2133 ;;		line 8 in file "C:\Program Files\Microchip\xc8\v2.31\pic\sources\c90\common\strcat.c"
  2134 ;; Parameters:    Size  Location     Type
  2135 ;;  to              2    3[COMMON] PTR unsigned char 
  2136 ;;		 -> RAM(512), PUNTO2A(5), ADCchar2C(5), ADCchar2B(5), 
  2137 ;;		 -> PUNTO1A(5), ADCchar1C(5), ADCchar1B(5), 
  2138 ;;  from            1    5[COMMON] PTR const unsigned char 
  2139 ;;		 -> test(5), PUNTO2A(5), ADCchar2B(5), ADCchar2A(5), 
  2140 ;;		 -> PUNTO1A(5), ADCchar1B(5), ADCchar1A(5), 
  2141 ;; Auto vars:     Size  Location     Type
  2142 ;;  cp              2    0[BANK0 ] PTR unsigned char 
  2143 ;;		 -> RAM(512), PUNTO2A(5), ADCchar2C(5), ADCchar2B(5), 
  2144 ;;		 -> PUNTO1A(5), ADCchar1C(5), ADCchar1B(5), 
  2145 ;; Return value:  Size  Location     Type
  2146 ;;                  2    3[COMMON] PTR unsigned char 
  2147 ;; Registers used:
  2148 ;;		wreg, fsr0l, fsr0h, status,2, status,0
  2149 ;; Tracked objects:
  2150 ;;		On entry : 0/0
  2151 ;;		On exit  : 0/0
  2152 ;;		Unchanged: 0/0
  2153 ;; Data sizes:     COMMON   BANK0   BANK1   BANK3   BANK2
  2154 ;;      Params:         3       0       0       0       0
  2155 ;;      Locals:         0       2       0       0       0
  2156 ;;      Temps:          1       0       0       0       0
  2157 ;;      Totals:         4       2       0       0       0
  2158 ;;Total ram usage:        6 bytes
  2159 ;; Hardware stack levels used:    1
  2160 ;; Hardware stack levels required when called:    2
  2161 ;; This function calls:
  2162 ;;		Nothing
  2163 ;; This function is called by:
  2164 ;;		_ADC
  2165 ;; This function uses a non-reentrant model
  2166 ;;
  2167                           
  2168                           
  2169                           ;psect for function _strcat
  2170  0C37                     _strcat:
  2171  0C37                     l2447:	
  2172                           ;incstack = 0
  2173                           ; Regs used in _strcat: [wreg-fsr0h+status,2+status,0]
  2174                           
  2175  0C37  0873               	movf	strcat@to,w
  2176  0C38  1283               	bcf	3,5	;RP0=0, select bank0
  2177  0C39  1303               	bcf	3,6	;RP1=0, select bank0
  2178  0C3A  00A0               	movwf	strcat@cp
  2179  0C3B  0874               	movf	strcat@to+1,w
  2180  0C3C  00A1               	movwf	strcat@cp+1
  2181  0C3D  2C44               	goto	l2451
  2182  0C3E                     l2449:
  2183  0C3E  3001               	movlw	1
  2184  0C3F  07A0               	addwf	strcat@cp,f
  2185  0C40  1803               	skipnc
  2186  0C41  0AA1               	incf	strcat@cp+1,f
  2187  0C42  3000               	movlw	0
  2188  0C43  07A1               	addwf	strcat@cp+1,f
  2189  0C44                     l2451:
  2190  0C44  0820               	movf	strcat@cp,w
  2191  0C45  0084               	movwf	4
  2192  0C46  1783               	bsf	3,7
  2193  0C47  1C21               	btfss	strcat@cp+1,0
  2194  0C48  1383               	bcf	3,7
  2195  0C49  0800               	movf	0,w
  2196  0C4A  1D03               	btfss	3,2
  2197  0C4B  2C4D               	goto	u2931
  2198  0C4C  2C4E               	goto	u2930
  2199  0C4D                     u2931:
  2200  0C4D  2C3E               	goto	l2449
  2201  0C4E                     u2930:
  2202  0C4E  2C59               	goto	l2457
  2203  0C4F                     l2453:
  2204  0C4F  3001               	movlw	1
  2205  0C50  07A0               	addwf	strcat@cp,f
  2206  0C51  1803               	skipnc
  2207  0C52  0AA1               	incf	strcat@cp+1,f
  2208  0C53  3000               	movlw	0
  2209  0C54  07A1               	addwf	strcat@cp+1,f
  2210  0C55                     l2455:
  2211  0C55  3001               	movlw	1
  2212  0C56  00F6               	movwf	??_strcat
  2213  0C57  0876               	movf	??_strcat,w
  2214  0C58  07F5               	addwf	strcat@from,f
  2215  0C59                     l2457:
  2216  0C59  0875               	movf	strcat@from,w
  2217  0C5A  0084               	movwf	4
  2218  0C5B  1383               	bcf	3,7	;select IRP bank0
  2219  0C5C  0800               	movf	0,w
  2220  0C5D  00F6               	movwf	??_strcat
  2221  0C5E  0820               	movf	strcat@cp,w
  2222  0C5F  0084               	movwf	4
  2223  0C60  1783               	bsf	3,7
  2224  0C61  1C21               	btfss	strcat@cp+1,0
  2225  0C62  1383               	bcf	3,7
  2226  0C63  0876               	movf	??_strcat,w
  2227  0C64  0080               	movwf	0
  2228  0C65  0800               	movf	0,w
  2229  0C66  1D03               	btfss	3,2
  2230  0C67  2C69               	goto	u2941
  2231  0C68  2C6A               	goto	u2940
  2232  0C69                     u2941:
  2233  0C69  2C4F               	goto	l2453
  2234  0C6A                     u2940:
  2235  0C6A                     l745:
  2236  0C6A  0008               	return
  2237  0C6B                     __end_of_strcat:
  2238                           
  2239                           	psect	text6
  2240  0B8E                     __ptext6:	
  2241 ;; *************** function _lcd_msg *****************
  2242 ;; Defined at:
  2243 ;;		line 50 in file "LCD.c"
  2244 ;; Parameters:    Size  Location     Type
  2245 ;;  c               2    6[COMMON] PTR unsigned char 
  2246 ;;		 -> STR_6(3), STR_5(3), RAM(512), ADCchar2C(5), 
  2247 ;;		 -> ADCchar1C(5), STR_1(14), 
  2248 ;; Auto vars:     Size  Location     Type
  2249 ;;		None
  2250 ;; Return value:  Size  Location     Type
  2251 ;;                  1    wreg      void 
  2252 ;; Registers used:
  2253 ;;		wreg, fsr0l, fsr0h, status,2, status,0, btemp+1, pclath, cstack
  2254 ;; Tracked objects:
  2255 ;;		On entry : 0/0
  2256 ;;		On exit  : 0/0
  2257 ;;		Unchanged: 0/0
  2258 ;; Data sizes:     COMMON   BANK0   BANK1   BANK3   BANK2
  2259 ;;      Params:         2       0       0       0       0
  2260 ;;      Locals:         0       0       0       0       0
  2261 ;;      Temps:          0       0       0       0       0
  2262 ;;      Totals:         2       0       0       0       0
  2263 ;;Total ram usage:        2 bytes
  2264 ;; Hardware stack levels used:    1
  2265 ;; Hardware stack levels required when called:    4
  2266 ;; This function calls:
  2267 ;;		_lcd_dwr
  2268 ;; This function is called by:
  2269 ;;		_ADC
  2270 ;; This function uses a non-reentrant model
  2271 ;;
  2272                           
  2273                           
  2274                           ;psect for function _lcd_msg
  2275  0B8E                     _lcd_msg:
  2276  0B8E                     l1733:	
  2277                           ;incstack = 0
  2278                           ; Regs used in _lcd_msg: [wreg-fsr0h+status,2+status,0+btemp+1+pclath+cstack]
  2279                           
  2280                           
  2281                           ;LCD.c: 51:     while(*c != 0)
  2282  0B8E  2BA3               	goto	l1739
  2283  0B8F                     l1735:
  2284                           
  2285                           ;LCD.c: 52:         lcd_dwr(*c++);
  2286  0B8F  0877               	movf	lcd_msg@c+1,w
  2287  0B90  00FF               	movwf	btemp+1
  2288  0B91  0876               	movf	lcd_msg@c,w
  2289  0B92  0084               	movwf	4
  2290  0B93  120A  158A  2000  120A  158A  	fcall	stringtab
  2291  0B98  120A  158A  22CA  120A  158A  	fcall	_lcd_dwr
  2292  0B9D                     l1737:
  2293  0B9D  3001               	movlw	1
  2294  0B9E  07F6               	addwf	lcd_msg@c,f
  2295  0B9F  1803               	skipnc
  2296  0BA0  0AF7               	incf	lcd_msg@c+1,f
  2297  0BA1  3000               	movlw	0
  2298  0BA2  07F7               	addwf	lcd_msg@c+1,f
  2299  0BA3                     l1739:
  2300                           
  2301                           ;LCD.c: 51:     while(*c != 0)
  2302  0BA3  0877               	movf	lcd_msg@c+1,w
  2303  0BA4  1283               	bcf	3,5	;RP0=0, select bank0
  2304  0BA5  1303               	bcf	3,6	;RP1=0, select bank0
  2305  0BA6  00FF               	movwf	btemp+1
  2306  0BA7  0876               	movf	lcd_msg@c,w
  2307  0BA8  0084               	movwf	4
  2308  0BA9  120A  158A  2000  120A  158A  	fcall	stringtab
  2309  0BAE  3A00               	xorlw	0
  2310  0BAF  1D03               	skipz
  2311  0BB0  2BB2               	goto	u1601
  2312  0BB1  2BB3               	goto	u1600
  2313  0BB2                     u1601:
  2314  0BB2  2B8F               	goto	l1735
  2315  0BB3                     u1600:
  2316  0BB3                     l74:
  2317  0BB3  0008               	return
  2318  0BB4                     __end_of_lcd_msg:
  2319                           
  2320                           	psect	text7
  2321  0ACA                     __ptext7:	
  2322 ;; *************** function _lcd_dwr *****************
  2323 ;; Defined at:
  2324 ;;		line 42 in file "LCD.c"
  2325 ;; Parameters:    Size  Location     Type
  2326 ;;  x               1    wreg     unsigned char 
  2327 ;; Auto vars:     Size  Location     Type
  2328 ;;  x               1    5[COMMON] unsigned char 
  2329 ;; Return value:  Size  Location     Type
  2330 ;;                  1    wreg      void 
  2331 ;; Registers used:
  2332 ;;		wreg, status,2, status,0, pclath, cstack
  2333 ;; Tracked objects:
  2334 ;;		On entry : 0/0
  2335 ;;		On exit  : 0/0
  2336 ;;		Unchanged: 0/0
  2337 ;; Data sizes:     COMMON   BANK0   BANK1   BANK3   BANK2
  2338 ;;      Params:         0       0       0       0       0
  2339 ;;      Locals:         1       0       0       0       0
  2340 ;;      Temps:          0       0       0       0       0
  2341 ;;      Totals:         1       0       0       0       0
  2342 ;;Total ram usage:        1 bytes
  2343 ;; Hardware stack levels used:    1
  2344 ;; Hardware stack levels required when called:    3
  2345 ;; This function calls:
  2346 ;;		_lcd_lat
  2347 ;;		_lcd_ready
  2348 ;; This function is called by:
  2349 ;;		_lcd_msg
  2350 ;; This function uses a non-reentrant model
  2351 ;;
  2352                           
  2353                           
  2354                           ;psect for function _lcd_dwr
  2355  0ACA                     _lcd_dwr:
  2356                           
  2357                           ;incstack = 0
  2358                           ; Regs used in _lcd_dwr: [wreg+status,2+status,0+pclath+cstack]
  2359                           ;lcd_dwr@x stored from wreg
  2360  0ACA  00F5               	movwf	lcd_dwr@x
  2361  0ACB                     l1669:
  2362                           
  2363                           ;LCD.c: 43:     lcd_ready();
  2364  0ACB  120A  158A  23DD  120A  158A  	fcall	_lcd_ready
  2365  0AD0                     l1671:
  2366                           
  2367                           ;LCD.c: 44:     PORTD = x;
  2368  0AD0  0875               	movf	lcd_dwr@x,w
  2369  0AD1  1283               	bcf	3,5	;RP0=0, select bank0
  2370  0AD2  1303               	bcf	3,6	;RP1=0, select bank0
  2371  0AD3  0088               	movwf	8	;volatile
  2372  0AD4                     l1673:
  2373                           
  2374                           ;LCD.c: 45:     RE0 = 1;
  2375  0AD4  1409               	bsf	9,0	;volatile
  2376  0AD5                     l1675:
  2377                           
  2378                           ;LCD.c: 46:     RE1 = 0;
  2379  0AD5  1089               	bcf	9,1	;volatile
  2380  0AD6                     l1677:
  2381                           
  2382                           ;LCD.c: 47:     lcd_lat();
  2383  0AD6  120A  158A  22A9  120A  158A  	fcall	_lcd_lat
  2384  0ADB                     l68:
  2385  0ADB  0008               	return
  2386  0ADC                     __end_of_lcd_dwr:
  2387                           
  2388                           	psect	text8
  2389  0AB8                     __ptext8:	
  2390 ;; *************** function _lcd_cmd *****************
  2391 ;; Defined at:
  2392 ;;		line 12 in file "LCD.c"
  2393 ;; Parameters:    Size  Location     Type
  2394 ;;  x               1    wreg     unsigned char 
  2395 ;; Auto vars:     Size  Location     Type
  2396 ;;  x               1    5[COMMON] unsigned char 
  2397 ;; Return value:  Size  Location     Type
  2398 ;;                  1    wreg      void 
  2399 ;; Registers used:
  2400 ;;		wreg, status,2, status,0, pclath, cstack
  2401 ;; Tracked objects:
  2402 ;;		On entry : 0/0
  2403 ;;		On exit  : 0/0
  2404 ;;		Unchanged: 0/0
  2405 ;; Data sizes:     COMMON   BANK0   BANK1   BANK3   BANK2
  2406 ;;      Params:         0       0       0       0       0
  2407 ;;      Locals:         1       0       0       0       0
  2408 ;;      Temps:          0       0       0       0       0
  2409 ;;      Totals:         1       0       0       0       0
  2410 ;;Total ram usage:        1 bytes
  2411 ;; Hardware stack levels used:    1
  2412 ;; Hardware stack levels required when called:    3
  2413 ;; This function calls:
  2414 ;;		_lcd_lat
  2415 ;;		_lcd_ready
  2416 ;; This function is called by:
  2417 ;;		_inicializacion
  2418 ;;		_ADC
  2419 ;; This function uses a non-reentrant model
  2420 ;;
  2421                           
  2422                           
  2423                           ;psect for function _lcd_cmd
  2424  0AB8                     _lcd_cmd:
  2425                           
  2426                           ;incstack = 0
  2427                           ; Regs used in _lcd_cmd: [wreg+status,2+status,0+pclath+cstack]
  2428                           ;lcd_cmd@x stored from wreg
  2429  0AB8  00F5               	movwf	lcd_cmd@x
  2430  0AB9                     l1723:
  2431                           
  2432                           ;LCD.c: 13:     lcd_ready();
  2433  0AB9  120A  158A  23DD  120A  158A  	fcall	_lcd_ready
  2434  0ABE                     l1725:
  2435                           
  2436                           ;LCD.c: 14:     PORTD = x;
  2437  0ABE  0875               	movf	lcd_cmd@x,w
  2438  0ABF  1283               	bcf	3,5	;RP0=0, select bank0
  2439  0AC0  1303               	bcf	3,6	;RP1=0, select bank0
  2440  0AC1  0088               	movwf	8	;volatile
  2441  0AC2                     l1727:
  2442                           
  2443                           ;LCD.c: 15:     RE0 = 0;
  2444  0AC2  1009               	bcf	9,0	;volatile
  2445  0AC3                     l1729:
  2446                           
  2447                           ;LCD.c: 16:     RE1 = 0;
  2448  0AC3  1089               	bcf	9,1	;volatile
  2449  0AC4                     l1731:
  2450                           
  2451                           ;LCD.c: 17:     lcd_lat();
  2452  0AC4  120A  158A  22A9  120A  158A  	fcall	_lcd_lat
  2453  0AC9                     l57:
  2454  0AC9  0008               	return
  2455  0ACA                     __end_of_lcd_cmd:
  2456                           
  2457                           	psect	text9
  2458  0BDD                     __ptext9:	
  2459 ;; *************** function _lcd_ready *****************
  2460 ;; Defined at:
  2461 ;;		line 25 in file "LCD.c"
  2462 ;; Parameters:    Size  Location     Type
  2463 ;;		None
  2464 ;; Auto vars:     Size  Location     Type
  2465 ;;		None
  2466 ;; Return value:  Size  Location     Type
  2467 ;;                  1    wreg      void 
  2468 ;; Registers used:
  2469 ;;		wreg, status,2, status,0
  2470 ;; Tracked objects:
  2471 ;;		On entry : 0/0
  2472 ;;		On exit  : 0/0
  2473 ;;		Unchanged: 0/0
  2474 ;; Data sizes:     COMMON   BANK0   BANK1   BANK3   BANK2
  2475 ;;      Params:         0       0       0       0       0
  2476 ;;      Locals:         0       0       0       0       0
  2477 ;;      Temps:          2       0       0       0       0
  2478 ;;      Totals:         2       0       0       0       0
  2479 ;;Total ram usage:        2 bytes
  2480 ;; Hardware stack levels used:    1
  2481 ;; Hardware stack levels required when called:    2
  2482 ;; This function calls:
  2483 ;;		Nothing
  2484 ;; This function is called by:
  2485 ;;		_lcd_cmd
  2486 ;;		_lcd_dwr
  2487 ;; This function uses a non-reentrant model
  2488 ;;
  2489                           
  2490                           
  2491                           ;psect for function _lcd_ready
  2492  0BDD                     _lcd_ready:
  2493  0BDD                     l1595:	
  2494                           ;incstack = 0
  2495                           ; Regs used in _lcd_ready: [wreg+status,2+status,0]
  2496                           
  2497                           
  2498                           ;LCD.c: 26:     PORTD = 0xFF;
  2499  0BDD  30FF               	movlw	255
  2500  0BDE  1283               	bcf	3,5	;RP0=0, select bank0
  2501  0BDF  1303               	bcf	3,6	;RP1=0, select bank0
  2502  0BE0  0088               	movwf	8	;volatile
  2503  0BE1                     l1597:
  2504                           
  2505                           ;LCD.c: 27:     PORTD &= 0x80;
  2506  0BE1  3080               	movlw	128
  2507  0BE2  00F3               	movwf	??_lcd_ready
  2508  0BE3  0873               	movf	??_lcd_ready,w
  2509  0BE4  0588               	andwf	8,f	;volatile
  2510  0BE5                     l1599:
  2511                           
  2512                           ;LCD.c: 28:     RE0 = 0;
  2513  0BE5  1009               	bcf	9,0	;volatile
  2514  0BE6                     l1601:
  2515                           
  2516                           ;LCD.c: 29:     RE1 = 1;
  2517  0BE6  1489               	bsf	9,1	;volatile
  2518  0BE7                     l1603:
  2519                           
  2520                           ;LCD.c: 30:     RE2 = 0;
  2521  0BE7  1109               	bcf	9,2	;volatile
  2522  0BE8                     l1605:
  2523                           
  2524                           ;LCD.c: 31:     _delay((unsigned long)((30)*(4000000/4000.0)));
  2525  0BE8  3027               	movlw	39
  2526  0BE9  00F4               	movwf	??_lcd_ready+1
  2527  0BEA  30F5               	movlw	245
  2528  0BEB  00F3               	movwf	??_lcd_ready
  2529  0BEC                     u3227:
  2530  0BEC  0BF3               	decfsz	??_lcd_ready,f
  2531  0BED  2BEC               	goto	u3227
  2532  0BEE  0BF4               	decfsz	??_lcd_ready+1,f
  2533  0BEF  2BEC               	goto	u3227
  2534  0BF0                     l1607:
  2535                           
  2536                           ;LCD.c: 32:     RE2 = 1;
  2537  0BF0  1283               	bcf	3,5	;RP0=0, select bank0
  2538  0BF1  1303               	bcf	3,6	;RP1=0, select bank0
  2539  0BF2  1509               	bsf	9,2	;volatile
  2540                           
  2541                           ;LCD.c: 33:     if (PORTD == 0x80){
  2542  0BF3  3080               	movlw	128
  2543  0BF4  0608               	xorwf	8,w	;volatile
  2544  0BF5  1D03               	btfss	3,2
  2545  0BF6  2BF8               	goto	u1401
  2546  0BF7  2BF9               	goto	u1400
  2547  0BF8                     u1401:
  2548  0BF8  2C05               	goto	l65
  2549  0BF9                     u1400:
  2550  0BF9                     l1609:
  2551                           
  2552                           ;LCD.c: 34:     RE2 = 0;
  2553  0BF9  1109               	bcf	9,2	;volatile
  2554  0BFA                     l1611:
  2555                           
  2556                           ;LCD.c: 35:     _delay((unsigned long)((30)*(4000000/4000.0)));
  2557  0BFA  3027               	movlw	39
  2558  0BFB  00F4               	movwf	??_lcd_ready+1
  2559  0BFC  30F5               	movlw	245
  2560  0BFD  00F3               	movwf	??_lcd_ready
  2561  0BFE                     u3237:
  2562  0BFE  0BF3               	decfsz	??_lcd_ready,f
  2563  0BFF  2BFE               	goto	u3237
  2564  0C00  0BF4               	decfsz	??_lcd_ready+1,f
  2565  0C01  2BFE               	goto	u3237
  2566  0C02                     l1613:
  2567                           
  2568                           ;LCD.c: 36:     RE2 = 1;
  2569  0C02  1283               	bcf	3,5	;RP0=0, select bank0
  2570  0C03  1303               	bcf	3,6	;RP1=0, select bank0
  2571  0C04  1509               	bsf	9,2	;volatile
  2572  0C05                     l65:	
  2573                           ;LCD.c: 37:     }
  2574                           
  2575  0C05  0008               	return
  2576  0C06                     __end_of_lcd_ready:
  2577                           
  2578                           	psect	text10
  2579  0AA9                     __ptext10:	
  2580 ;; *************** function _lcd_lat *****************
  2581 ;; Defined at:
  2582 ;;		line 20 in file "LCD.c"
  2583 ;; Parameters:    Size  Location     Type
  2584 ;;		None
  2585 ;; Auto vars:     Size  Location     Type
  2586 ;;		None
  2587 ;; Return value:  Size  Location     Type
  2588 ;;                  1    wreg      void 
  2589 ;; Registers used:
  2590 ;;		wreg
  2591 ;; Tracked objects:
  2592 ;;		On entry : 0/0
  2593 ;;		On exit  : 0/0
  2594 ;;		Unchanged: 0/0
  2595 ;; Data sizes:     COMMON   BANK0   BANK1   BANK3   BANK2
  2596 ;;      Params:         0       0       0       0       0
  2597 ;;      Locals:         0       0       0       0       0
  2598 ;;      Temps:          2       0       0       0       0
  2599 ;;      Totals:         2       0       0       0       0
  2600 ;;Total ram usage:        2 bytes
  2601 ;; Hardware stack levels used:    1
  2602 ;; Hardware stack levels required when called:    2
  2603 ;; This function calls:
  2604 ;;		Nothing
  2605 ;; This function is called by:
  2606 ;;		_lcd_cmd
  2607 ;;		_lcd_dwr
  2608 ;; This function uses a non-reentrant model
  2609 ;;
  2610                           
  2611                           
  2612                           ;psect for function _lcd_lat
  2613  0AA9                     _lcd_lat:
  2614  0AA9                     l1615:	
  2615                           ;incstack = 0
  2616                           ; Regs used in _lcd_lat: [wreg]
  2617                           
  2618                           
  2619                           ;LCD.c: 21:     RE2 = 1;
  2620  0AA9  1283               	bcf	3,5	;RP0=0, select bank0
  2621  0AAA  1303               	bcf	3,6	;RP1=0, select bank0
  2622  0AAB  1509               	bsf	9,2	;volatile
  2623  0AAC                     l1617:
  2624                           
  2625                           ;LCD.c: 22:    _delay((unsigned long)((30)*(4000000/4000.0)));
  2626  0AAC  3027               	movlw	39
  2627  0AAD  00F4               	movwf	??_lcd_lat+1
  2628  0AAE  30F5               	movlw	245
  2629  0AAF  00F3               	movwf	??_lcd_lat
  2630  0AB0                     u3247:
  2631  0AB0  0BF3               	decfsz	??_lcd_lat,f
  2632  0AB1  2AB0               	goto	u3247
  2633  0AB2  0BF4               	decfsz	??_lcd_lat+1,f
  2634  0AB3  2AB0               	goto	u3247
  2635  0AB4                     l1619:
  2636                           
  2637                           ;LCD.c: 23:    RE2 = 0;
  2638  0AB4  1283               	bcf	3,5	;RP0=0, select bank0
  2639  0AB5  1303               	bcf	3,6	;RP1=0, select bank0
  2640  0AB6  1109               	bcf	9,2	;volatile
  2641  0AB7                     l60:
  2642  0AB7  0008               	return
  2643  0AB8                     __end_of_lcd_lat:
  2644                           
  2645                           	psect	text11
  2646  0B68                     __ptext11:	
  2647 ;; *************** function _itoa *****************
  2648 ;; Defined at:
  2649 ;;		line 4 in file "C:\Program Files\Microchip\xc8\v2.31\pic\sources\c90\common\itoa.c"
  2650 ;; Parameters:    Size  Location     Type
  2651 ;;  buf             1    wreg     PTR unsigned char 
  2652 ;;		 -> ADCchar2C(5), ADCchar2B(5), ADCchar2A(5), ADCchar1C(5), 
  2653 ;;		 -> ADCchar1B(5), ADCchar1A(5), 
  2654 ;;  val             2   12[BANK0 ] int 
  2655 ;;  base            2   14[BANK0 ] int 
  2656 ;; Auto vars:     Size  Location     Type
  2657 ;;  buf             1   18[BANK0 ] PTR unsigned char 
  2658 ;;		 -> ADCchar2C(5), ADCchar2B(5), ADCchar2A(5), ADCchar1C(5), 
  2659 ;;		 -> ADCchar1B(5), ADCchar1A(5), 
  2660 ;;  cp              1    0        PTR unsigned char 
  2661 ;;		 -> ADCchar2C(5), ADCchar2B(5), ADCchar2A(5), ADCchar1C(5), 
  2662 ;;		 -> ADCchar1B(5), ADCchar1A(5), 
  2663 ;; Return value:  Size  Location     Type
  2664 ;;                  1    wreg      PTR unsigned char 
  2665 ;; Registers used:
  2666 ;;		wreg, fsr0l, fsr0h, status,2, status,0, pclath, cstack
  2667 ;; Tracked objects:
  2668 ;;		On entry : 0/0
  2669 ;;		On exit  : 0/0
  2670 ;;		Unchanged: 0/0
  2671 ;; Data sizes:     COMMON   BANK0   BANK1   BANK3   BANK2
  2672 ;;      Params:         0       4       0       0       0
  2673 ;;      Locals:         0       2       0       0       0
  2674 ;;      Temps:          0       1       0       0       0
  2675 ;;      Totals:         0       7       0       0       0
  2676 ;;Total ram usage:        7 bytes
  2677 ;; Hardware stack levels used:    1
  2678 ;; Hardware stack levels required when called:    4
  2679 ;; This function calls:
  2680 ;;		_utoa
  2681 ;; This function is called by:
  2682 ;;		_ADC
  2683 ;; This function uses a non-reentrant model
  2684 ;;
  2685                           
  2686                           
  2687                           ;psect for function _itoa
  2688  0B68                     _itoa:
  2689                           
  2690                           ;incstack = 0
  2691                           ; Regs used in _itoa: [wreg-fsr0h+status,2+status,0+pclath+cstack]
  2692                           ;itoa@buf stored from wreg
  2693  0B68  1283               	bcf	3,5	;RP0=0, select bank0
  2694  0B69  1303               	bcf	3,6	;RP1=0, select bank0
  2695  0B6A  00B2               	movwf	itoa@buf
  2696  0B6B                     l2433:
  2697  0B6B                     l2435:
  2698  0B6B  1FAD               	btfss	itoa@val+1,7
  2699  0B6C  2B6E               	goto	u2921
  2700  0B6D  2B6F               	goto	u2920
  2701  0B6E                     u2921:
  2702  0B6E  2B7F               	goto	l2443
  2703  0B6F                     u2920:
  2704  0B6F                     l2437:
  2705  0B6F  302D               	movlw	45
  2706  0B70  00B0               	movwf	??_itoa
  2707  0B71  0832               	movf	itoa@buf,w
  2708  0B72  0084               	movwf	4
  2709  0B73  0830               	movf	??_itoa,w
  2710  0B74  1383               	bcf	3,7	;select IRP bank0
  2711  0B75  0080               	movwf	0
  2712  0B76                     l2439:
  2713  0B76  3001               	movlw	1
  2714  0B77  00B0               	movwf	??_itoa
  2715  0B78  0830               	movf	??_itoa,w
  2716  0B79  07B2               	addwf	itoa@buf,f
  2717  0B7A                     l2441:
  2718  0B7A  09AC               	comf	itoa@val,f
  2719  0B7B  09AD               	comf	itoa@val+1,f
  2720  0B7C  0AAC               	incf	itoa@val,f
  2721  0B7D  1903               	skipnz
  2722  0B7E  0AAD               	incf	itoa@val+1,f
  2723  0B7F                     l2443:
  2724  0B7F  082D               	movf	itoa@val+1,w
  2725  0B80  00A4               	movwf	utoa@val+1
  2726  0B81  082C               	movf	itoa@val,w
  2727  0B82  00A3               	movwf	utoa@val
  2728  0B83  082F               	movf	itoa@base+1,w
  2729  0B84  00A6               	movwf	utoa@base+1
  2730  0B85  082E               	movf	itoa@base,w
  2731  0B86  00A5               	movwf	utoa@base
  2732  0B87  0832               	movf	itoa@buf,w
  2733  0B88  120A  158A  25B1  120A  158A  	fcall	_utoa
  2734  0B8D                     l728:
  2735  0B8D  0008               	return
  2736  0B8E                     __end_of_itoa:
  2737                           
  2738                           	psect	text12
  2739  0DB1                     __ptext12:	
  2740 ;; *************** function _utoa *****************
  2741 ;; Defined at:
  2742 ;;		line 17 in file "C:\Program Files\Microchip\xc8\v2.31\pic\sources\c90\common\itoa.c"
  2743 ;; Parameters:    Size  Location     Type
  2744 ;;  buf             1    wreg     PTR unsigned char 
  2745 ;;		 -> ADCchar2C(5), ADCchar2B(5), ADCchar2A(5), ADCchar1C(5), 
  2746 ;;		 -> ADCchar1B(5), ADCchar1A(5), 
  2747 ;;  val             2    3[BANK0 ] unsigned int 
  2748 ;;  base            2    5[BANK0 ] int 
  2749 ;; Auto vars:     Size  Location     Type
  2750 ;;  buf             1   11[BANK0 ] PTR unsigned char 
  2751 ;;		 -> ADCchar2C(5), ADCchar2B(5), ADCchar2A(5), ADCchar1C(5), 
  2752 ;;		 -> ADCchar1B(5), ADCchar1A(5), 
  2753 ;;  v               2    8[BANK0 ] unsigned int 
  2754 ;;  c               1   10[BANK0 ] unsigned char 
  2755 ;; Return value:  Size  Location     Type
  2756 ;;                  1    wreg      PTR unsigned char 
  2757 ;; Registers used:
  2758 ;;		wreg, fsr0l, fsr0h, status,2, status,0, pclath, cstack
  2759 ;; Tracked objects:
  2760 ;;		On entry : 0/0
  2761 ;;		On exit  : 0/0
  2762 ;;		Unchanged: 0/0
  2763 ;; Data sizes:     COMMON   BANK0   BANK1   BANK3   BANK2
  2764 ;;      Params:         0       4       0       0       0
  2765 ;;      Locals:         0       4       0       0       0
  2766 ;;      Temps:          0       1       0       0       0
  2767 ;;      Totals:         0       9       0       0       0
  2768 ;;Total ram usage:        9 bytes
  2769 ;; Hardware stack levels used:    1
  2770 ;; Hardware stack levels required when called:    3
  2771 ;; This function calls:
  2772 ;;		___lwdiv
  2773 ;;		___lwmod
  2774 ;; This function is called by:
  2775 ;;		_itoa
  2776 ;; This function uses a non-reentrant model
  2777 ;;
  2778                           
  2779                           
  2780                           ;psect for function _utoa
  2781  0DB1                     _utoa:
  2782                           
  2783                           ;incstack = 0
  2784                           ; Regs used in _utoa: [wreg-fsr0h+status,2+status,0+pclath+cstack]
  2785                           ;utoa@buf stored from wreg
  2786  0DB1  1283               	bcf	3,5	;RP0=0, select bank0
  2787  0DB2  1303               	bcf	3,6	;RP1=0, select bank0
  2788  0DB3  00AB               	movwf	utoa@buf
  2789  0DB4                     l2403:
  2790  0DB4  0824               	movf	utoa@val+1,w
  2791  0DB5  00A9               	movwf	utoa@v+1
  2792  0DB6  0823               	movf	utoa@val,w
  2793  0DB7  00A8               	movwf	utoa@v
  2794  0DB8                     l2405:
  2795  0DB8  0826               	movf	utoa@base+1,w
  2796  0DB9  00F4               	movwf	___lwdiv@divisor+1
  2797  0DBA  0825               	movf	utoa@base,w
  2798  0DBB  00F3               	movwf	___lwdiv@divisor
  2799  0DBC  0829               	movf	utoa@v+1,w
  2800  0DBD  00F6               	movwf	___lwdiv@dividend+1
  2801  0DBE  0828               	movf	utoa@v,w
  2802  0DBF  00F5               	movwf	___lwdiv@dividend
  2803  0DC0  120A  158A  24A7  120A  158A  	fcall	___lwdiv
  2804  0DC5  0874               	movf	?___lwdiv+1,w
  2805  0DC6  1283               	bcf	3,5	;RP0=0, select bank0
  2806  0DC7  1303               	bcf	3,6	;RP1=0, select bank0
  2807  0DC8  00A9               	movwf	utoa@v+1
  2808  0DC9  0873               	movf	?___lwdiv,w
  2809  0DCA  00A8               	movwf	utoa@v
  2810  0DCB                     l2407:
  2811  0DCB  3001               	movlw	1
  2812  0DCC  00A7               	movwf	??_utoa
  2813  0DCD  0827               	movf	??_utoa,w
  2814  0DCE  07AB               	addwf	utoa@buf,f
  2815  0DCF                     l2409:
  2816  0DCF  0828               	movf	utoa@v,w
  2817  0DD0  0429               	iorwf	utoa@v+1,w
  2818  0DD1  1D03               	btfss	3,2
  2819  0DD2  2DD4               	goto	u2891
  2820  0DD3  2DD5               	goto	u2890
  2821  0DD4                     u2891:
  2822  0DD4  2DB8               	goto	l2405
  2823  0DD5                     u2890:
  2824  0DD5                     l2411:
  2825  0DD5  082B               	movf	utoa@buf,w
  2826  0DD6  0084               	movwf	4
  2827  0DD7  1383               	bcf	3,7	;select IRP bank0
  2828  0DD8  0180               	clrf	0
  2829  0DD9                     l2413:
  2830  0DD9  3001               	movlw	1
  2831  0DDA  02AB               	subwf	utoa@buf,f
  2832  0DDB                     l2415:
  2833  0DDB  0826               	movf	utoa@base+1,w
  2834  0DDC  00F4               	movwf	___lwmod@divisor+1
  2835  0DDD  0825               	movf	utoa@base,w
  2836  0DDE  00F3               	movwf	___lwmod@divisor
  2837  0DDF  0824               	movf	utoa@val+1,w
  2838  0DE0  00F6               	movwf	___lwmod@dividend+1
  2839  0DE1  0823               	movf	utoa@val,w
  2840  0DE2  00F5               	movwf	___lwmod@dividend
  2841  0DE3  120A  158A  246B  120A  158A  	fcall	___lwmod
  2842  0DE8  0873               	movf	?___lwmod,w
  2843  0DE9  1283               	bcf	3,5	;RP0=0, select bank0
  2844  0DEA  1303               	bcf	3,6	;RP1=0, select bank0
  2845  0DEB  00A7               	movwf	??_utoa
  2846  0DEC  0827               	movf	??_utoa,w
  2847  0DED  00AA               	movwf	utoa@c
  2848  0DEE                     l2417:
  2849  0DEE  0826               	movf	utoa@base+1,w
  2850  0DEF  00F4               	movwf	___lwdiv@divisor+1
  2851  0DF0  0825               	movf	utoa@base,w
  2852  0DF1  00F3               	movwf	___lwdiv@divisor
  2853  0DF2  0824               	movf	utoa@val+1,w
  2854  0DF3  00F6               	movwf	___lwdiv@dividend+1
  2855  0DF4  0823               	movf	utoa@val,w
  2856  0DF5  00F5               	movwf	___lwdiv@dividend
  2857  0DF6  120A  158A  24A7  120A  158A  	fcall	___lwdiv
  2858  0DFB  0874               	movf	?___lwdiv+1,w
  2859  0DFC  1283               	bcf	3,5	;RP0=0, select bank0
  2860  0DFD  1303               	bcf	3,6	;RP1=0, select bank0
  2861  0DFE  00A4               	movwf	utoa@val+1
  2862  0DFF  0873               	movf	?___lwdiv,w
  2863  0E00  00A3               	movwf	utoa@val
  2864  0E01                     l2419:
  2865  0E01  300A               	movlw	10
  2866  0E02  022A               	subwf	utoa@c,w
  2867  0E03  1C03               	skipc
  2868  0E04  2E06               	goto	u2901
  2869  0E05  2E07               	goto	u2900
  2870  0E06                     u2901:
  2871  0E06  2E0B               	goto	l734
  2872  0E07                     u2900:
  2873  0E07                     l2421:
  2874  0E07  3007               	movlw	7
  2875  0E08  00A7               	movwf	??_utoa
  2876  0E09  0827               	movf	??_utoa,w
  2877  0E0A  07AA               	addwf	utoa@c,f
  2878  0E0B                     l734:
  2879  0E0B  3030               	movlw	48
  2880  0E0C  00A7               	movwf	??_utoa
  2881  0E0D  0827               	movf	??_utoa,w
  2882  0E0E  07AA               	addwf	utoa@c,f
  2883  0E0F                     l2423:
  2884  0E0F  082A               	movf	utoa@c,w
  2885  0E10  00A7               	movwf	??_utoa
  2886  0E11  082B               	movf	utoa@buf,w
  2887  0E12  0084               	movwf	4
  2888  0E13  0827               	movf	??_utoa,w
  2889  0E14  1383               	bcf	3,7	;select IRP bank0
  2890  0E15  0080               	movwf	0
  2891  0E16                     l2425:
  2892  0E16  3001               	movlw	1
  2893  0E17  02AB               	subwf	utoa@buf,f
  2894  0E18                     l2427:
  2895  0E18  0823               	movf	utoa@val,w
  2896  0E19  0424               	iorwf	utoa@val+1,w
  2897  0E1A  1D03               	btfss	3,2
  2898  0E1B  2E1D               	goto	u2911
  2899  0E1C  2E1E               	goto	u2910
  2900  0E1D                     u2911:
  2901  0E1D  2DDB               	goto	l2415
  2902  0E1E                     u2910:
  2903  0E1E                     l2429:
  2904                           
  2905                           ;	Return value of _utoa is never used
  2906  0E1E  3001               	movlw	1
  2907  0E1F  00A7               	movwf	??_utoa
  2908  0E20  0827               	movf	??_utoa,w
  2909  0E21  07AB               	addwf	utoa@buf,f
  2910  0E22                     l736:
  2911  0E22  0008               	return
  2912  0E23                     __end_of_utoa:
  2913                           
  2914                           	psect	text13
  2915  0C6B                     __ptext13:	
  2916 ;; *************** function ___lwmod *****************
  2917 ;; Defined at:
  2918 ;;		line 5 in file "C:\Program Files\Microchip\xc8\v2.31\pic\sources\c90\common\lwmod.c"
  2919 ;; Parameters:    Size  Location     Type
  2920 ;;  divisor         2    3[COMMON] unsigned int 
  2921 ;;  dividend        2    5[COMMON] unsigned int 
  2922 ;; Auto vars:     Size  Location     Type
  2923 ;;  counter         1    0[BANK0 ] unsigned char 
  2924 ;; Return value:  Size  Location     Type
  2925 ;;                  2    3[COMMON] unsigned int 
  2926 ;; Registers used:
  2927 ;;		wreg, status,2, status,0
  2928 ;; Tracked objects:
  2929 ;;		On entry : 0/0
  2930 ;;		On exit  : 0/0
  2931 ;;		Unchanged: 0/0
  2932 ;; Data sizes:     COMMON   BANK0   BANK1   BANK3   BANK2
  2933 ;;      Params:         4       0       0       0       0
  2934 ;;      Locals:         0       1       0       0       0
  2935 ;;      Temps:          1       0       0       0       0
  2936 ;;      Totals:         5       1       0       0       0
  2937 ;;Total ram usage:        6 bytes
  2938 ;; Hardware stack levels used:    1
  2939 ;; Hardware stack levels required when called:    2
  2940 ;; This function calls:
  2941 ;;		Nothing
  2942 ;; This function is called by:
  2943 ;;		_utoa
  2944 ;; This function uses a non-reentrant model
  2945 ;;
  2946                           
  2947                           
  2948                           ;psect for function ___lwmod
  2949  0C6B                     ___lwmod:
  2950  0C6B                     l2381:	
  2951                           ;incstack = 0
  2952                           ; Regs used in ___lwmod: [wreg+status,2+status,0]
  2953                           
  2954  0C6B  0873               	movf	___lwmod@divisor,w
  2955  0C6C  0474               	iorwf	___lwmod@divisor+1,w
  2956  0C6D  1903               	btfsc	3,2
  2957  0C6E  2C70               	goto	u2831
  2958  0C6F  2C71               	goto	u2830
  2959  0C70                     u2831:
  2960  0C70  2CA2               	goto	l2399
  2961  0C71                     u2830:
  2962  0C71                     l2383:
  2963  0C71  1283               	bcf	3,5	;RP0=0, select bank0
  2964  0C72  1303               	bcf	3,6	;RP1=0, select bank0
  2965  0C73  01A0               	clrf	___lwmod@counter
  2966  0C74  0AA0               	incf	___lwmod@counter,f
  2967  0C75  2C81               	goto	l2389
  2968  0C76                     l2385:
  2969  0C76  3001               	movlw	1
  2970  0C77                     u2845:
  2971  0C77  1003               	clrc
  2972  0C78  0DF3               	rlf	___lwmod@divisor,f
  2973  0C79  0DF4               	rlf	___lwmod@divisor+1,f
  2974  0C7A  3EFF               	addlw	-1
  2975  0C7B  1D03               	skipz
  2976  0C7C  2C77               	goto	u2845
  2977  0C7D                     l2387:
  2978  0C7D  3001               	movlw	1
  2979  0C7E  00F7               	movwf	??___lwmod
  2980  0C7F  0877               	movf	??___lwmod,w
  2981  0C80  07A0               	addwf	___lwmod@counter,f
  2982  0C81                     l2389:
  2983  0C81  1FF4               	btfss	___lwmod@divisor+1,7
  2984  0C82  2C84               	goto	u2851
  2985  0C83  2C85               	goto	u2850
  2986  0C84                     u2851:
  2987  0C84  2C76               	goto	l2385
  2988  0C85                     u2850:
  2989  0C85                     l2391:
  2990  0C85  0874               	movf	___lwmod@divisor+1,w
  2991  0C86  0276               	subwf	___lwmod@dividend+1,w
  2992  0C87  1D03               	skipz
  2993  0C88  2C8B               	goto	u2865
  2994  0C89  0873               	movf	___lwmod@divisor,w
  2995  0C8A  0275               	subwf	___lwmod@dividend,w
  2996  0C8B                     u2865:
  2997  0C8B  1C03               	skipc
  2998  0C8C  2C8E               	goto	u2861
  2999  0C8D  2C8F               	goto	u2860
  3000  0C8E                     u2861:
  3001  0C8E  2C95               	goto	l2395
  3002  0C8F                     u2860:
  3003  0C8F                     l2393:
  3004  0C8F  0873               	movf	___lwmod@divisor,w
  3005  0C90  02F5               	subwf	___lwmod@dividend,f
  3006  0C91  0874               	movf	___lwmod@divisor+1,w
  3007  0C92  1C03               	skipc
  3008  0C93  03F6               	decf	___lwmod@dividend+1,f
  3009  0C94  02F6               	subwf	___lwmod@dividend+1,f
  3010  0C95                     l2395:
  3011  0C95  3001               	movlw	1
  3012  0C96                     u2875:
  3013  0C96  1003               	clrc
  3014  0C97  0CF4               	rrf	___lwmod@divisor+1,f
  3015  0C98  0CF3               	rrf	___lwmod@divisor,f
  3016  0C99  3EFF               	addlw	-1
  3017  0C9A  1D03               	skipz
  3018  0C9B  2C96               	goto	u2875
  3019  0C9C                     l2397:
  3020  0C9C  3001               	movlw	1
  3021  0C9D  02A0               	subwf	___lwmod@counter,f
  3022  0C9E  1D03               	btfss	3,2
  3023  0C9F  2CA1               	goto	u2881
  3024  0CA0  2CA2               	goto	u2880
  3025  0CA1                     u2881:
  3026  0CA1  2C85               	goto	l2391
  3027  0CA2                     u2880:
  3028  0CA2                     l2399:
  3029  0CA2  0876               	movf	___lwmod@dividend+1,w
  3030  0CA3  00F4               	movwf	?___lwmod+1
  3031  0CA4  0875               	movf	___lwmod@dividend,w
  3032  0CA5  00F3               	movwf	?___lwmod
  3033  0CA6                     l556:
  3034  0CA6  0008               	return
  3035  0CA7                     __end_of___lwmod:
  3036                           
  3037                           	psect	text14
  3038  0CA7                     __ptext14:	
  3039 ;; *************** function ___lwdiv *****************
  3040 ;; Defined at:
  3041 ;;		line 5 in file "C:\Program Files\Microchip\xc8\v2.31\pic\sources\c90\common\lwdiv.c"
  3042 ;; Parameters:    Size  Location     Type
  3043 ;;  divisor         2    3[COMMON] unsigned int 
  3044 ;;  dividend        2    5[COMMON] unsigned int 
  3045 ;; Auto vars:     Size  Location     Type
  3046 ;;  quotient        2    1[BANK0 ] unsigned int 
  3047 ;;  counter         1    0[BANK0 ] unsigned char 
  3048 ;; Return value:  Size  Location     Type
  3049 ;;                  2    3[COMMON] unsigned int 
  3050 ;; Registers used:
  3051 ;;		wreg, status,2, status,0
  3052 ;; Tracked objects:
  3053 ;;		On entry : 0/0
  3054 ;;		On exit  : 0/0
  3055 ;;		Unchanged: 0/0
  3056 ;; Data sizes:     COMMON   BANK0   BANK1   BANK3   BANK2
  3057 ;;      Params:         4       0       0       0       0
  3058 ;;      Locals:         0       3       0       0       0
  3059 ;;      Temps:          1       0       0       0       0
  3060 ;;      Totals:         5       3       0       0       0
  3061 ;;Total ram usage:        8 bytes
  3062 ;; Hardware stack levels used:    1
  3063 ;; Hardware stack levels required when called:    2
  3064 ;; This function calls:
  3065 ;;		Nothing
  3066 ;; This function is called by:
  3067 ;;		_utoa
  3068 ;; This function uses a non-reentrant model
  3069 ;;
  3070                           
  3071                           
  3072                           ;psect for function ___lwdiv
  3073  0CA7                     ___lwdiv:
  3074  0CA7                     l2355:	
  3075                           ;incstack = 0
  3076                           ; Regs used in ___lwdiv: [wreg+status,2+status,0]
  3077                           
  3078  0CA7  1283               	bcf	3,5	;RP0=0, select bank0
  3079  0CA8  1303               	bcf	3,6	;RP1=0, select bank0
  3080  0CA9  01A1               	clrf	___lwdiv@quotient
  3081  0CAA  01A2               	clrf	___lwdiv@quotient+1
  3082  0CAB                     l2357:
  3083  0CAB  0873               	movf	___lwdiv@divisor,w
  3084  0CAC  0474               	iorwf	___lwdiv@divisor+1,w
  3085  0CAD  1903               	btfsc	3,2
  3086  0CAE  2CB0               	goto	u2761
  3087  0CAF  2CB1               	goto	u2760
  3088  0CB0                     u2761:
  3089  0CB0  2CE8               	goto	l2377
  3090  0CB1                     u2760:
  3091  0CB1                     l2359:
  3092  0CB1  01A0               	clrf	___lwdiv@counter
  3093  0CB2  0AA0               	incf	___lwdiv@counter,f
  3094  0CB3  2CBF               	goto	l2365
  3095  0CB4                     l2361:
  3096  0CB4  3001               	movlw	1
  3097  0CB5                     u2775:
  3098  0CB5  1003               	clrc
  3099  0CB6  0DF3               	rlf	___lwdiv@divisor,f
  3100  0CB7  0DF4               	rlf	___lwdiv@divisor+1,f
  3101  0CB8  3EFF               	addlw	-1
  3102  0CB9  1D03               	skipz
  3103  0CBA  2CB5               	goto	u2775
  3104  0CBB                     l2363:
  3105  0CBB  3001               	movlw	1
  3106  0CBC  00F7               	movwf	??___lwdiv
  3107  0CBD  0877               	movf	??___lwdiv,w
  3108  0CBE  07A0               	addwf	___lwdiv@counter,f
  3109  0CBF                     l2365:
  3110  0CBF  1FF4               	btfss	___lwdiv@divisor+1,7
  3111  0CC0  2CC2               	goto	u2781
  3112  0CC1  2CC3               	goto	u2780
  3113  0CC2                     u2781:
  3114  0CC2  2CB4               	goto	l2361
  3115  0CC3                     u2780:
  3116  0CC3                     l2367:
  3117  0CC3  3001               	movlw	1
  3118  0CC4                     u2795:
  3119  0CC4  1003               	clrc
  3120  0CC5  0DA1               	rlf	___lwdiv@quotient,f
  3121  0CC6  0DA2               	rlf	___lwdiv@quotient+1,f
  3122  0CC7  3EFF               	addlw	-1
  3123  0CC8  1D03               	skipz
  3124  0CC9  2CC4               	goto	u2795
  3125  0CCA  0874               	movf	___lwdiv@divisor+1,w
  3126  0CCB  0276               	subwf	___lwdiv@dividend+1,w
  3127  0CCC  1D03               	skipz
  3128  0CCD  2CD0               	goto	u2805
  3129  0CCE  0873               	movf	___lwdiv@divisor,w
  3130  0CCF  0275               	subwf	___lwdiv@dividend,w
  3131  0CD0                     u2805:
  3132  0CD0  1C03               	skipc
  3133  0CD1  2CD3               	goto	u2801
  3134  0CD2  2CD4               	goto	u2800
  3135  0CD3                     u2801:
  3136  0CD3  2CDB               	goto	l2373
  3137  0CD4                     u2800:
  3138  0CD4                     l2369:
  3139  0CD4  0873               	movf	___lwdiv@divisor,w
  3140  0CD5  02F5               	subwf	___lwdiv@dividend,f
  3141  0CD6  0874               	movf	___lwdiv@divisor+1,w
  3142  0CD7  1C03               	skipc
  3143  0CD8  03F6               	decf	___lwdiv@dividend+1,f
  3144  0CD9  02F6               	subwf	___lwdiv@dividend+1,f
  3145  0CDA                     l2371:
  3146  0CDA  1421               	bsf	___lwdiv@quotient,0
  3147  0CDB                     l2373:
  3148  0CDB  3001               	movlw	1
  3149  0CDC                     u2815:
  3150  0CDC  1003               	clrc
  3151  0CDD  0CF4               	rrf	___lwdiv@divisor+1,f
  3152  0CDE  0CF3               	rrf	___lwdiv@divisor,f
  3153  0CDF  3EFF               	addlw	-1
  3154  0CE0  1D03               	skipz
  3155  0CE1  2CDC               	goto	u2815
  3156  0CE2                     l2375:
  3157  0CE2  3001               	movlw	1
  3158  0CE3  02A0               	subwf	___lwdiv@counter,f
  3159  0CE4  1D03               	btfss	3,2
  3160  0CE5  2CE7               	goto	u2821
  3161  0CE6  2CE8               	goto	u2820
  3162  0CE7                     u2821:
  3163  0CE7  2CC3               	goto	l2367
  3164  0CE8                     u2820:
  3165  0CE8                     l2377:
  3166  0CE8  0822               	movf	___lwdiv@quotient+1,w
  3167  0CE9  00F4               	movwf	?___lwdiv+1
  3168  0CEA  0821               	movf	___lwdiv@quotient,w
  3169  0CEB  00F3               	movwf	?___lwdiv
  3170  0CEC                     l546:
  3171  0CEC  0008               	return
  3172  0CED                     __end_of___lwdiv:
  3173                           
  3174                           	psect	text15
  3175  06C3                     __ptext15:	
  3176 ;; *************** function ___xxtofl *****************
  3177 ;; Defined at:
  3178 ;;		line 10 in file "C:\Program Files\Microchip\xc8\v2.31\pic\sources\c90\common\xxtofl.c"
  3179 ;; Parameters:    Size  Location     Type
  3180 ;;  sign            1    wreg     unsigned char 
  3181 ;;  val             4    3[COMMON] long 
  3182 ;; Auto vars:     Size  Location     Type
  3183 ;;  sign            1    4[BANK0 ] unsigned char 
  3184 ;;  arg             4    6[BANK0 ] unsigned long 
  3185 ;;  exp             1    5[BANK0 ] unsigned char 
  3186 ;; Return value:  Size  Location     Type
  3187 ;;                  4    3[COMMON] unsigned char 
  3188 ;; Registers used:
  3189 ;;		wreg, status,2, status,0
  3190 ;; Tracked objects:
  3191 ;;		On entry : 0/0
  3192 ;;		On exit  : 0/0
  3193 ;;		Unchanged: 0/0
  3194 ;; Data sizes:     COMMON   BANK0   BANK1   BANK3   BANK2
  3195 ;;      Params:         4       0       0       0       0
  3196 ;;      Locals:         0       6       0       0       0
  3197 ;;      Temps:          0       4       0       0       0
  3198 ;;      Totals:         4      10       0       0       0
  3199 ;;Total ram usage:       14 bytes
  3200 ;; Hardware stack levels used:    1
  3201 ;; Hardware stack levels required when called:    2
  3202 ;; This function calls:
  3203 ;;		Nothing
  3204 ;; This function is called by:
  3205 ;;		_ADC
  3206 ;; This function uses a non-reentrant model
  3207 ;;
  3208                           
  3209                           
  3210                           ;psect for function ___xxtofl
  3211  06C3                     ___xxtofl:
  3212                           
  3213                           ;incstack = 0
  3214                           ; Regs used in ___xxtofl: [wreg+status,2+status,0]
  3215                           ;___xxtofl@sign stored from wreg
  3216  06C3  1283               	bcf	3,5	;RP0=0, select bank0
  3217  06C4  1303               	bcf	3,6	;RP1=0, select bank0
  3218  06C5  00A4               	movwf	___xxtofl@sign
  3219  06C6                     l2497:
  3220  06C6  0824               	movf	___xxtofl@sign,w
  3221  06C7  1903               	btfsc	3,2
  3222  06C8  2ECA               	goto	u3041
  3223  06C9  2ECB               	goto	u3040
  3224  06CA                     u3041:
  3225  06CA  2EDF               	goto	l2503
  3226  06CB                     u3040:
  3227  06CB                     l2499:
  3228  06CB  1FF6               	btfss	___xxtofl@val+3,7
  3229  06CC  2ECE               	goto	u3051
  3230  06CD  2ECF               	goto	u3050
  3231  06CE                     u3051:
  3232  06CE  2EDF               	goto	l2503
  3233  06CF                     u3050:
  3234  06CF                     l2501:
  3235  06CF  0973               	comf	___xxtofl@val,w
  3236  06D0  00A6               	movwf	___xxtofl@arg
  3237  06D1  0974               	comf	___xxtofl@val+1,w
  3238  06D2  00A7               	movwf	___xxtofl@arg+1
  3239  06D3  0975               	comf	___xxtofl@val+2,w
  3240  06D4  00A8               	movwf	___xxtofl@arg+2
  3241  06D5  0976               	comf	___xxtofl@val+3,w
  3242  06D6  00A9               	movwf	___xxtofl@arg+3
  3243  06D7  0AA6               	incf	___xxtofl@arg,f
  3244  06D8  1903               	skipnz
  3245  06D9  0AA7               	incf	___xxtofl@arg+1,f
  3246  06DA  1903               	skipnz
  3247  06DB  0AA8               	incf	___xxtofl@arg+2,f
  3248  06DC  1903               	skipnz
  3249  06DD  0AA9               	incf	___xxtofl@arg+3,f
  3250  06DE  2EE7               	goto	l707
  3251  06DF                     l2503:
  3252  06DF  0876               	movf	___xxtofl@val+3,w
  3253  06E0  00A9               	movwf	___xxtofl@arg+3
  3254  06E1  0875               	movf	___xxtofl@val+2,w
  3255  06E2  00A8               	movwf	___xxtofl@arg+2
  3256  06E3  0874               	movf	___xxtofl@val+1,w
  3257  06E4  00A7               	movwf	___xxtofl@arg+1
  3258  06E5  0873               	movf	___xxtofl@val,w
  3259  06E6  00A6               	movwf	___xxtofl@arg
  3260  06E7                     l707:
  3261  06E7  0876               	movf	___xxtofl@val+3,w
  3262  06E8  0475               	iorwf	___xxtofl@val+2,w
  3263  06E9  0474               	iorwf	___xxtofl@val+1,w
  3264  06EA  0473               	iorwf	___xxtofl@val,w
  3265  06EB  1D03               	skipz
  3266  06EC  2EEE               	goto	u3061
  3267  06ED  2EEF               	goto	u3060
  3268  06EE                     u3061:
  3269  06EE  2EF8               	goto	l2509
  3270  06EF                     u3060:
  3271  06EF                     l2505:
  3272  06EF  3000               	movlw	0
  3273  06F0  00F6               	movwf	?___xxtofl+3
  3274  06F1  3000               	movlw	0
  3275  06F2  00F5               	movwf	?___xxtofl+2
  3276  06F3  3000               	movlw	0
  3277  06F4  00F4               	movwf	?___xxtofl+1
  3278  06F5  3000               	movlw	0
  3279  06F6  00F3               	movwf	?___xxtofl
  3280  06F7  2F7E               	goto	l709
  3281  06F8                     l2509:
  3282  06F8  3096               	movlw	150
  3283  06F9  00A0               	movwf	??___xxtofl
  3284  06FA  0820               	movf	??___xxtofl,w
  3285  06FB  00A5               	movwf	___xxtofl@exp
  3286  06FC  2F0A               	goto	l2513
  3287  06FD                     l2511:
  3288  06FD  3001               	movlw	1
  3289  06FE  00A0               	movwf	??___xxtofl
  3290  06FF  0820               	movf	??___xxtofl,w
  3291  0700  07A5               	addwf	___xxtofl@exp,f
  3292  0701  3001               	movlw	1
  3293  0702                     u3075:
  3294  0702  1003               	clrc
  3295  0703  0CA9               	rrf	___xxtofl@arg+3,f
  3296  0704  0CA8               	rrf	___xxtofl@arg+2,f
  3297  0705  0CA7               	rrf	___xxtofl@arg+1,f
  3298  0706  0CA6               	rrf	___xxtofl@arg,f
  3299  0707  3EFF               	addlw	-1
  3300  0708  1D03               	skipz
  3301  0709  2F02               	goto	u3075
  3302  070A                     l2513:
  3303  070A  30FE               	movlw	254
  3304  070B  0529               	andwf	___xxtofl@arg+3,w
  3305  070C  1D03               	btfss	3,2
  3306  070D  2F0F               	goto	u3081
  3307  070E  2F10               	goto	u3080
  3308  070F                     u3081:
  3309  070F  2EFD               	goto	l2511
  3310  0710                     u3080:
  3311  0710  2F2C               	goto	l713
  3312  0711                     l2515:
  3313  0711  3001               	movlw	1
  3314  0712  00A0               	movwf	??___xxtofl
  3315  0713  0820               	movf	??___xxtofl,w
  3316  0714  07A5               	addwf	___xxtofl@exp,f
  3317  0715                     l2517:
  3318  0715  3001               	movlw	1
  3319  0716  07A6               	addwf	___xxtofl@arg,f
  3320  0717  3000               	movlw	0
  3321  0718  1803               	skipnc
  3322  0719  3001               	movlw	1
  3323  071A  07A7               	addwf	___xxtofl@arg+1,f
  3324  071B  3000               	movlw	0
  3325  071C  1803               	skipnc
  3326  071D  3001               	movlw	1
  3327  071E  07A8               	addwf	___xxtofl@arg+2,f
  3328  071F  3000               	movlw	0
  3329  0720  1803               	skipnc
  3330  0721  3001               	movlw	1
  3331  0722  07A9               	addwf	___xxtofl@arg+3,f
  3332  0723                     l2519:
  3333  0723  3001               	movlw	1
  3334  0724                     u3095:
  3335  0724  1003               	clrc
  3336  0725  0CA9               	rrf	___xxtofl@arg+3,f
  3337  0726  0CA8               	rrf	___xxtofl@arg+2,f
  3338  0727  0CA7               	rrf	___xxtofl@arg+1,f
  3339  0728  0CA6               	rrf	___xxtofl@arg,f
  3340  0729  3EFF               	addlw	-1
  3341  072A  1D03               	skipz
  3342  072B  2F24               	goto	u3095
  3343  072C                     l713:
  3344  072C  30FF               	movlw	255
  3345  072D  0529               	andwf	___xxtofl@arg+3,w
  3346  072E  1D03               	btfss	3,2
  3347  072F  2F31               	goto	u3101
  3348  0730  2F32               	goto	u3100
  3349  0731                     u3101:
  3350  0731  2F11               	goto	l2515
  3351  0732                     u3100:
  3352  0732  2F3E               	goto	l2523
  3353  0733                     l2521:
  3354  0733  3001               	movlw	1
  3355  0734  02A5               	subwf	___xxtofl@exp,f
  3356  0735  3001               	movlw	1
  3357  0736  00A0               	movwf	??___xxtofl
  3358  0737                     u3115:
  3359  0737  1003               	clrc
  3360  0738  0DA6               	rlf	___xxtofl@arg,f
  3361  0739  0DA7               	rlf	___xxtofl@arg+1,f
  3362  073A  0DA8               	rlf	___xxtofl@arg+2,f
  3363  073B  0DA9               	rlf	___xxtofl@arg+3,f
  3364  073C  0BA0               	decfsz	??___xxtofl,f
  3365  073D  2F37               	goto	u3115
  3366  073E                     l2523:
  3367  073E  1BA8               	btfsc	___xxtofl@arg+2,7
  3368  073F  2F41               	goto	u3121
  3369  0740  2F42               	goto	u3120
  3370  0741                     u3121:
  3371  0741  2F48               	goto	l720
  3372  0742                     u3120:
  3373  0742                     l2525:
  3374  0742  3002               	movlw	2
  3375  0743  0225               	subwf	___xxtofl@exp,w
  3376  0744  1803               	skipnc
  3377  0745  2F47               	goto	u3131
  3378  0746  2F48               	goto	u3130
  3379  0747                     u3131:
  3380  0747  2F33               	goto	l2521
  3381  0748                     u3130:
  3382  0748                     l720:
  3383  0748  1825               	btfsc	___xxtofl@exp,0
  3384  0749  2F4B               	goto	u3141
  3385  074A  2F4C               	goto	u3140
  3386  074B                     u3141:
  3387  074B  2F54               	goto	l721
  3388  074C                     u3140:
  3389  074C                     l2527:
  3390  074C  30FF               	movlw	255
  3391  074D  05A6               	andwf	___xxtofl@arg,f
  3392  074E  30FF               	movlw	255
  3393  074F  05A7               	andwf	___xxtofl@arg+1,f
  3394  0750  307F               	movlw	127
  3395  0751  05A8               	andwf	___xxtofl@arg+2,f
  3396  0752  30FF               	movlw	255
  3397  0753  05A9               	andwf	___xxtofl@arg+3,f
  3398  0754                     l721:
  3399  0754  1003               	clrc
  3400  0755  0CA5               	rrf	___xxtofl@exp,f
  3401  0756                     l2529:
  3402  0756  0825               	movf	___xxtofl@exp,w
  3403  0757  00A0               	movwf	??___xxtofl
  3404  0758  01A1               	clrf	??___xxtofl+1
  3405  0759  01A2               	clrf	??___xxtofl+2
  3406  075A  01A3               	clrf	??___xxtofl+3
  3407  075B  3018               	movlw	24
  3408  075C                     u3155:
  3409  075C  1003               	clrc
  3410  075D  0DA0               	rlf	??___xxtofl,f
  3411  075E  0DA1               	rlf	??___xxtofl+1,f
  3412  075F  0DA2               	rlf	??___xxtofl+2,f
  3413  0760  0DA3               	rlf	??___xxtofl+3,f
  3414  0761                     u3150:
  3415  0761  3EFF               	addlw	-1
  3416  0762  1D03               	skipz
  3417  0763  2F5C               	goto	u3155
  3418  0764  0820               	movf	??___xxtofl,w
  3419  0765  04A6               	iorwf	___xxtofl@arg,f
  3420  0766  0821               	movf	??___xxtofl+1,w
  3421  0767  04A7               	iorwf	___xxtofl@arg+1,f
  3422  0768  0822               	movf	??___xxtofl+2,w
  3423  0769  04A8               	iorwf	___xxtofl@arg+2,f
  3424  076A  0823               	movf	??___xxtofl+3,w
  3425  076B  04A9               	iorwf	___xxtofl@arg+3,f
  3426  076C                     l2531:
  3427  076C  0824               	movf	___xxtofl@sign,w
  3428  076D  1903               	btfsc	3,2
  3429  076E  2F70               	goto	u3161
  3430  076F  2F71               	goto	u3160
  3431  0770                     u3161:
  3432  0770  2F76               	goto	l2537
  3433  0771                     u3160:
  3434  0771                     l2533:
  3435  0771  1FF6               	btfss	___xxtofl@val+3,7
  3436  0772  2F74               	goto	u3171
  3437  0773  2F75               	goto	u3170
  3438  0774                     u3171:
  3439  0774  2F76               	goto	l2537
  3440  0775                     u3170:
  3441  0775                     l2535:
  3442  0775  17A9               	bsf	___xxtofl@arg+3,7
  3443  0776                     l2537:
  3444  0776  0829               	movf	___xxtofl@arg+3,w
  3445  0777  00F6               	movwf	?___xxtofl+3
  3446  0778  0828               	movf	___xxtofl@arg+2,w
  3447  0779  00F5               	movwf	?___xxtofl+2
  3448  077A  0827               	movf	___xxtofl@arg+1,w
  3449  077B  00F4               	movwf	?___xxtofl+1
  3450  077C  0826               	movf	___xxtofl@arg,w
  3451  077D  00F3               	movwf	?___xxtofl
  3452  077E                     l709:
  3453  077E  0008               	return
  3454  077F                     __end_of___xxtofl:
  3455                           
  3456                           	psect	text16
  3457  077F                     __ptext16:	
  3458 ;; *************** function ___fltol *****************
  3459 ;; Defined at:
  3460 ;;		line 43 in file "C:\Program Files\Microchip\xc8\v2.31\pic\sources\c90\common\fltol.c"
  3461 ;; Parameters:    Size  Location     Type
  3462 ;;  f1              4   36[BANK0 ] unsigned char 
  3463 ;; Auto vars:     Size  Location     Type
  3464 ;;  exp1            1   46[BANK0 ] unsigned char 
  3465 ;;  sign1           1   45[BANK0 ] unsigned char 
  3466 ;; Return value:  Size  Location     Type
  3467 ;;                  4   36[BANK0 ] long 
  3468 ;; Registers used:
  3469 ;;		wreg, status,2, status,0
  3470 ;; Tracked objects:
  3471 ;;		On entry : 0/0
  3472 ;;		On exit  : 0/0
  3473 ;;		Unchanged: 0/0
  3474 ;; Data sizes:     COMMON   BANK0   BANK1   BANK3   BANK2
  3475 ;;      Params:         0       4       0       0       0
  3476 ;;      Locals:         0       2       0       0       0
  3477 ;;      Temps:          0       5       0       0       0
  3478 ;;      Totals:         0      11       0       0       0
  3479 ;;Total ram usage:       11 bytes
  3480 ;; Hardware stack levels used:    1
  3481 ;; Hardware stack levels required when called:    2
  3482 ;; This function calls:
  3483 ;;		Nothing
  3484 ;; This function is called by:
  3485 ;;		_ADC
  3486 ;; This function uses a non-reentrant model
  3487 ;;
  3488                           
  3489                           
  3490                           ;psect for function ___fltol
  3491  077F                     ___fltol:
  3492  077F                     l1855:	
  3493                           ;incstack = 0
  3494                           ; Regs used in ___fltol: [wreg+status,2+status,0]
  3495                           
  3496  077F  1003               	clrc
  3497  0780  1283               	bcf	3,5	;RP0=0, select bank0
  3498  0781  1303               	bcf	3,6	;RP1=0, select bank0
  3499  0782  0D46               	rlf	___fltol@f1+2,w
  3500  0783  0D47               	rlf	___fltol@f1+3,w
  3501  0784  00C8               	movwf	??___fltol
  3502  0785  0848               	movf	??___fltol,w
  3503  0786  00CE               	movwf	___fltol@exp1
  3504  0787  084E               	movf	___fltol@exp1,w
  3505  0788  1D03               	btfss	3,2
  3506  0789  2F8B               	goto	u1841
  3507  078A  2F8C               	goto	u1840
  3508  078B                     u1841:
  3509  078B  2F95               	goto	l1861
  3510  078C                     u1840:
  3511  078C                     l1857:
  3512  078C  3000               	movlw	0
  3513  078D  00C7               	movwf	?___fltol+3
  3514  078E  3000               	movlw	0
  3515  078F  00C6               	movwf	?___fltol+2
  3516  0790  3000               	movlw	0
  3517  0791  00C5               	movwf	?___fltol+1
  3518  0792  3000               	movlw	0
  3519  0793  00C4               	movwf	?___fltol
  3520  0794  2FFA               	goto	l460
  3521  0795                     l1861:
  3522  0795  0844               	movf	___fltol@f1,w
  3523  0796  00C8               	movwf	??___fltol
  3524  0797  0845               	movf	___fltol@f1+1,w
  3525  0798  00C9               	movwf	??___fltol+1
  3526  0799  0846               	movf	___fltol@f1+2,w
  3527  079A  00CA               	movwf	??___fltol+2
  3528  079B  0847               	movf	___fltol@f1+3,w
  3529  079C  00CB               	movwf	??___fltol+3
  3530  079D  301F               	movlw	31
  3531  079E                     u1855:
  3532  079E  1003               	clrc
  3533  079F  0CCB               	rrf	??___fltol+3,f
  3534  07A0  0CCA               	rrf	??___fltol+2,f
  3535  07A1  0CC9               	rrf	??___fltol+1,f
  3536  07A2  0CC8               	rrf	??___fltol,f
  3537  07A3                     u1850:
  3538  07A3  3EFF               	addlw	-1
  3539  07A4  1D03               	skipz
  3540  07A5  2F9E               	goto	u1855
  3541  07A6  0848               	movf	??___fltol,w
  3542  07A7  00CC               	movwf	??___fltol+4
  3543  07A8  084C               	movf	??___fltol+4,w
  3544  07A9  00CD               	movwf	___fltol@sign1
  3545  07AA                     l1863:
  3546  07AA  17C6               	bsf	___fltol@f1+2,7
  3547  07AB                     l1865:
  3548  07AB  30FF               	movlw	255
  3549  07AC  05C4               	andwf	___fltol@f1,f
  3550  07AD  30FF               	movlw	255
  3551  07AE  05C5               	andwf	___fltol@f1+1,f
  3552  07AF  30FF               	movlw	255
  3553  07B0  05C6               	andwf	___fltol@f1+2,f
  3554  07B1  3000               	movlw	0
  3555  07B2  05C7               	andwf	___fltol@f1+3,f
  3556  07B3                     l1867:
  3557  07B3  3096               	movlw	150
  3558  07B4  02CE               	subwf	___fltol@exp1,f
  3559  07B5                     l1869:
  3560  07B5  1FCE               	btfss	___fltol@exp1,7
  3561  07B6  2FB8               	goto	u1861
  3562  07B7  2FB9               	goto	u1860
  3563  07B8                     u1861:
  3564  07B8  2FD3               	goto	l1879
  3565  07B9                     u1860:
  3566  07B9                     l1871:
  3567  07B9  084E               	movf	___fltol@exp1,w
  3568  07BA  3A80               	xorlw	128
  3569  07BB  3E97               	addlw	151
  3570  07BC  1803               	skipnc
  3571  07BD  2FBF               	goto	u1871
  3572  07BE  2FC0               	goto	u1870
  3573  07BF                     u1871:
  3574  07BF  2FC1               	goto	l1877
  3575  07C0                     u1870:
  3576  07C0  2F8C               	goto	l1857
  3577  07C1                     l1877:
  3578  07C1  3001               	movlw	1
  3579  07C2                     u1885:
  3580  07C2  1003               	clrc
  3581  07C3  0CC7               	rrf	___fltol@f1+3,f
  3582  07C4  0CC6               	rrf	___fltol@f1+2,f
  3583  07C5  0CC5               	rrf	___fltol@f1+1,f
  3584  07C6  0CC4               	rrf	___fltol@f1,f
  3585  07C7  3EFF               	addlw	-1
  3586  07C8  1D03               	skipz
  3587  07C9  2FC2               	goto	u1885
  3588  07CA  3001               	movlw	1
  3589  07CB  00C8               	movwf	??___fltol
  3590  07CC  0848               	movf	??___fltol,w
  3591  07CD  07CE               	addwf	___fltol@exp1,f
  3592  07CE  1D03               	btfss	3,2
  3593  07CF  2FD1               	goto	u1891
  3594  07D0  2FD2               	goto	u1890
  3595  07D1                     u1891:
  3596  07D1  2FC1               	goto	l1877
  3597  07D2                     u1890:
  3598  07D2  2FEA               	goto	l1887
  3599  07D3                     l1879:
  3600  07D3  3020               	movlw	32
  3601  07D4  024E               	subwf	___fltol@exp1,w
  3602  07D5  1C03               	skipc
  3603  07D6  2FD8               	goto	u1901
  3604  07D7  2FD9               	goto	u1900
  3605  07D8                     u1901:
  3606  07D8  2FE5               	goto	l467
  3607  07D9                     u1900:
  3608  07D9  2F8C               	goto	l1857
  3609  07DA                     l1885:
  3610  07DA  3001               	movlw	1
  3611  07DB  00C8               	movwf	??___fltol
  3612  07DC                     u1915:
  3613  07DC  1003               	clrc
  3614  07DD  0DC4               	rlf	___fltol@f1,f
  3615  07DE  0DC5               	rlf	___fltol@f1+1,f
  3616  07DF  0DC6               	rlf	___fltol@f1+2,f
  3617  07E0  0DC7               	rlf	___fltol@f1+3,f
  3618  07E1  0BC8               	decfsz	??___fltol,f
  3619  07E2  2FDC               	goto	u1915
  3620  07E3  3001               	movlw	1
  3621  07E4  02CE               	subwf	___fltol@exp1,f
  3622  07E5                     l467:
  3623  07E5  084E               	movf	___fltol@exp1,w
  3624  07E6  1D03               	btfss	3,2
  3625  07E7  2FE9               	goto	u1921
  3626  07E8  2FEA               	goto	u1920
  3627  07E9                     u1921:
  3628  07E9  2FDA               	goto	l1885
  3629  07EA                     u1920:
  3630  07EA                     l1887:
  3631  07EA  084D               	movf	___fltol@sign1,w
  3632  07EB  1903               	btfsc	3,2
  3633  07EC  2FEE               	goto	u1931
  3634  07ED  2FEF               	goto	u1930
  3635  07EE                     u1931:
  3636  07EE  2FFA               	goto	l470
  3637  07EF                     u1930:
  3638  07EF                     l1889:
  3639  07EF  09C4               	comf	___fltol@f1,f
  3640  07F0  09C5               	comf	___fltol@f1+1,f
  3641  07F1  09C6               	comf	___fltol@f1+2,f
  3642  07F2  09C7               	comf	___fltol@f1+3,f
  3643  07F3  0AC4               	incf	___fltol@f1,f
  3644  07F4  1903               	skipnz
  3645  07F5  0AC5               	incf	___fltol@f1+1,f
  3646  07F6  1903               	skipnz
  3647  07F7  0AC6               	incf	___fltol@f1+2,f
  3648  07F8  1903               	skipnz
  3649  07F9  0AC7               	incf	___fltol@f1+3,f
  3650  07FA                     l470:
  3651  07FA                     l460:
  3652  07FA  0008               	return
  3653  07FB                     __end_of___fltol:
  3654                           
  3655                           	psect	text17
  3656  0027                     __ptext17:	
  3657 ;; *************** function ___flmul *****************
  3658 ;; Defined at:
  3659 ;;		line 8 in file "C:\Program Files\Microchip\xc8\v2.31\pic\sources\c90\common\sprcmul.c"
  3660 ;; Parameters:    Size  Location     Type
  3661 ;;  b               4   10[BANK0 ] long 
  3662 ;;  a               4   14[BANK0 ] long 
  3663 ;; Auto vars:     Size  Location     Type
  3664 ;;  prod            4   30[BANK0 ] struct .
  3665 ;;  grs             4   24[BANK0 ] unsigned long 
  3666 ;;  temp            2   34[BANK0 ] struct .
  3667 ;;  bexp            1   29[BANK0 ] unsigned char 
  3668 ;;  aexp            1   28[BANK0 ] unsigned char 
  3669 ;;  sign            1   23[BANK0 ] unsigned char 
  3670 ;; Return value:  Size  Location     Type
  3671 ;;                  4   10[BANK0 ] unsigned char 
  3672 ;; Registers used:
  3673 ;;		wreg, status,2, status,0, btemp+1, pclath, cstack
  3674 ;; Tracked objects:
  3675 ;;		On entry : 0/0
  3676 ;;		On exit  : 0/0
  3677 ;;		Unchanged: 0/0
  3678 ;; Data sizes:     COMMON   BANK0   BANK1   BANK3   BANK2
  3679 ;;      Params:         0       8       0       0       0
  3680 ;;      Locals:         0      13       0       0       0
  3681 ;;      Temps:          0       5       0       0       0
  3682 ;;      Totals:         0      26       0       0       0
  3683 ;;Total ram usage:       26 bytes
  3684 ;; Hardware stack levels used:    1
  3685 ;; Hardware stack levels required when called:    3
  3686 ;; This function calls:
  3687 ;;		__Umul8_16
  3688 ;; This function is called by:
  3689 ;;		_ADC
  3690 ;; This function uses a non-reentrant model
  3691 ;;
  3692                           
  3693                           
  3694                           ;psect for function ___flmul
  3695  0027                     ___flmul:
  3696  0027                     l2033:	
  3697                           ;incstack = 0
  3698                           ; Regs used in ___flmul: [wreg+status,2+status,0+btemp+1+pclath+cstack]
  3699                           
  3700  0027  1283               	bcf	3,5	;RP0=0, select bank0
  3701  0028  1303               	bcf	3,6	;RP1=0, select bank0
  3702  0029  082D               	movf	___flmul@b+3,w
  3703  002A  3980               	andlw	128
  3704  002B  00B2               	movwf	??___flmul
  3705  002C  0832               	movf	??___flmul,w
  3706  002D  00B7               	movwf	___flmul@sign
  3707  002E                     l2035:
  3708  002E  082D               	movf	___flmul@b+3,w
  3709  002F  00B2               	movwf	??___flmul
  3710  0030  0732               	addwf	??___flmul,w
  3711  0031  00B3               	movwf	??___flmul+1
  3712  0032  0833               	movf	??___flmul+1,w
  3713  0033  00BD               	movwf	___flmul@bexp
  3714  0034                     l2037:
  3715  0034  1FAC               	btfss	___flmul@b+2,7
  3716  0035  2837               	goto	u2231
  3717  0036  2838               	goto	u2230
  3718  0037                     u2231:
  3719  0037  2839               	goto	l2041
  3720  0038                     u2230:
  3721  0038                     l2039:
  3722  0038  143D               	bsf	___flmul@bexp,0
  3723  0039                     l2041:
  3724  0039  083D               	movf	___flmul@bexp,w
  3725  003A  1903               	btfsc	3,2
  3726  003B  283D               	goto	u2241
  3727  003C  283E               	goto	u2240
  3728  003D                     u2241:
  3729  003D  284D               	goto	l2049
  3730  003E                     u2240:
  3731  003E                     l2043:
  3732  003E  0A3D               	incf	___flmul@bexp,w
  3733  003F  1D03               	btfss	3,2
  3734  0040  2842               	goto	u2251
  3735  0041  2843               	goto	u2250
  3736  0042                     u2251:
  3737  0042  284B               	goto	l2047
  3738  0043                     u2250:
  3739  0043                     l2045:
  3740  0043  3000               	movlw	0
  3741  0044  00AD               	movwf	___flmul@b+3
  3742  0045  3000               	movlw	0
  3743  0046  00AC               	movwf	___flmul@b+2
  3744  0047  3000               	movlw	0
  3745  0048  00AB               	movwf	___flmul@b+1
  3746  0049  3000               	movlw	0
  3747  004A  00AA               	movwf	___flmul@b
  3748  004B                     l2047:
  3749  004B  17AC               	bsf	___flmul@b+2,7
  3750  004C  2855               	goto	l2051
  3751  004D                     l2049:
  3752  004D  3000               	movlw	0
  3753  004E  00AD               	movwf	___flmul@b+3
  3754  004F  3000               	movlw	0
  3755  0050  00AC               	movwf	___flmul@b+2
  3756  0051  3000               	movlw	0
  3757  0052  00AB               	movwf	___flmul@b+1
  3758  0053  3000               	movlw	0
  3759  0054  00AA               	movwf	___flmul@b
  3760  0055                     l2051:
  3761  0055  0831               	movf	___flmul@a+3,w
  3762  0056  3980               	andlw	128
  3763  0057  00B2               	movwf	??___flmul
  3764  0058  0832               	movf	??___flmul,w
  3765  0059  06B7               	xorwf	___flmul@sign,f
  3766  005A                     l2053:
  3767  005A  0831               	movf	___flmul@a+3,w
  3768  005B  00B2               	movwf	??___flmul
  3769  005C  0732               	addwf	??___flmul,w
  3770  005D  00B3               	movwf	??___flmul+1
  3771  005E  0833               	movf	??___flmul+1,w
  3772  005F  00BC               	movwf	___flmul@aexp
  3773  0060                     l2055:
  3774  0060  1FB0               	btfss	___flmul@a+2,7
  3775  0061  2863               	goto	u2261
  3776  0062  2864               	goto	u2260
  3777  0063                     u2261:
  3778  0063  2865               	goto	l2059
  3779  0064                     u2260:
  3780  0064                     l2057:
  3781  0064  143C               	bsf	___flmul@aexp,0
  3782  0065                     l2059:
  3783  0065  083C               	movf	___flmul@aexp,w
  3784  0066  1903               	btfsc	3,2
  3785  0067  2869               	goto	u2271
  3786  0068  286A               	goto	u2270
  3787  0069                     u2271:
  3788  0069  2879               	goto	l2067
  3789  006A                     u2270:
  3790  006A                     l2061:
  3791  006A  0A3C               	incf	___flmul@aexp,w
  3792  006B  1D03               	btfss	3,2
  3793  006C  286E               	goto	u2281
  3794  006D  286F               	goto	u2280
  3795  006E                     u2281:
  3796  006E  2877               	goto	l2065
  3797  006F                     u2280:
  3798  006F                     l2063:
  3799  006F  3000               	movlw	0
  3800  0070  00B1               	movwf	___flmul@a+3
  3801  0071  3000               	movlw	0
  3802  0072  00B0               	movwf	___flmul@a+2
  3803  0073  3000               	movlw	0
  3804  0074  00AF               	movwf	___flmul@a+1
  3805  0075  3000               	movlw	0
  3806  0076  00AE               	movwf	___flmul@a
  3807  0077                     l2065:
  3808  0077  17B0               	bsf	___flmul@a+2,7
  3809  0078  2881               	goto	l2069
  3810  0079                     l2067:
  3811  0079  3000               	movlw	0
  3812  007A  00B1               	movwf	___flmul@a+3
  3813  007B  3000               	movlw	0
  3814  007C  00B0               	movwf	___flmul@a+2
  3815  007D  3000               	movlw	0
  3816  007E  00AF               	movwf	___flmul@a+1
  3817  007F  3000               	movlw	0
  3818  0080  00AE               	movwf	___flmul@a
  3819  0081                     l2069:
  3820  0081  083C               	movf	___flmul@aexp,w
  3821  0082  1903               	btfsc	3,2
  3822  0083  2885               	goto	u2291
  3823  0084  2886               	goto	u2290
  3824  0085                     u2291:
  3825  0085  288B               	goto	l2073
  3826  0086                     u2290:
  3827  0086                     l2071:
  3828  0086  083D               	movf	___flmul@bexp,w
  3829  0087  1D03               	btfss	3,2
  3830  0088  288A               	goto	u2301
  3831  0089  288B               	goto	u2300
  3832  008A                     u2301:
  3833  008A  2894               	goto	l2077
  3834  008B                     u2300:
  3835  008B                     l2073:
  3836  008B  3000               	movlw	0
  3837  008C  00AD               	movwf	?___flmul+3
  3838  008D  3000               	movlw	0
  3839  008E  00AC               	movwf	?___flmul+2
  3840  008F  3000               	movlw	0
  3841  0090  00AB               	movwf	?___flmul+1
  3842  0091  3000               	movlw	0
  3843  0092  00AA               	movwf	?___flmul
  3844  0093  2B87               	goto	l663
  3845  0094                     l2077:
  3846  0094  082A               	movf	___flmul@b,w
  3847  0095  00B2               	movwf	??___flmul
  3848  0096  0832               	movf	??___flmul,w
  3849  0097  00F3               	movwf	__Umul8_16@multiplicand
  3850  0098  0830               	movf	___flmul@a+2,w
  3851  0099  120A  158A  23B4  120A  118A  	fcall	__Umul8_16
  3852  009E  0874               	movf	?__Umul8_16+1,w
  3853  009F  1283               	bcf	3,5	;RP0=0, select bank0
  3854  00A0  1303               	bcf	3,6	;RP1=0, select bank0
  3855  00A1  00C3               	movwf	___flmul@temp+1
  3856  00A2  0873               	movf	?__Umul8_16,w
  3857  00A3  00C2               	movwf	___flmul@temp
  3858  00A4                     l2079:
  3859  00A4  0842               	movf	___flmul@temp,w
  3860  00A5  00B2               	movwf	??___flmul
  3861  00A6  01B3               	clrf	??___flmul+1
  3862  00A7  01B4               	clrf	??___flmul+2
  3863  00A8  01B5               	clrf	??___flmul+3
  3864  00A9  0835               	movf	??___flmul+3,w
  3865  00AA  00BB               	movwf	___flmul@grs+3
  3866  00AB  0834               	movf	??___flmul+2,w
  3867  00AC  00BA               	movwf	___flmul@grs+2
  3868  00AD  0833               	movf	??___flmul+1,w
  3869  00AE  00B9               	movwf	___flmul@grs+1
  3870  00AF  0832               	movf	??___flmul,w
  3871  00B0  00B8               	movwf	___flmul@grs
  3872  00B1                     l2081:
  3873  00B1  0843               	movf	___flmul@temp+1,w
  3874  00B2  00B2               	movwf	??___flmul
  3875  00B3  01B3               	clrf	??___flmul+1
  3876  00B4  01B4               	clrf	??___flmul+2
  3877  00B5  01B5               	clrf	??___flmul+3
  3878  00B6  0835               	movf	??___flmul+3,w
  3879  00B7  00C1               	movwf	___flmul@prod+3
  3880  00B8  0834               	movf	??___flmul+2,w
  3881  00B9  00C0               	movwf	___flmul@prod+2
  3882  00BA  0833               	movf	??___flmul+1,w
  3883  00BB  00BF               	movwf	___flmul@prod+1
  3884  00BC  0832               	movf	??___flmul,w
  3885  00BD  00BE               	movwf	___flmul@prod
  3886  00BE  082B               	movf	___flmul@b+1,w
  3887  00BF  00B2               	movwf	??___flmul
  3888  00C0  0832               	movf	??___flmul,w
  3889  00C1  00F3               	movwf	__Umul8_16@multiplicand
  3890  00C2  082F               	movf	___flmul@a+1,w
  3891  00C3  120A  158A  23B4  120A  118A  	fcall	__Umul8_16
  3892  00C8  0874               	movf	?__Umul8_16+1,w
  3893  00C9  1283               	bcf	3,5	;RP0=0, select bank0
  3894  00CA  1303               	bcf	3,6	;RP1=0, select bank0
  3895  00CB  00C3               	movwf	___flmul@temp+1
  3896  00CC  0873               	movf	?__Umul8_16,w
  3897  00CD  00C2               	movwf	___flmul@temp
  3898  00CE                     l2083:
  3899  00CE  0842               	movf	___flmul@temp,w
  3900  00CF  00B2               	movwf	??___flmul
  3901  00D0  01B3               	clrf	??___flmul+1
  3902  00D1  01B4               	clrf	??___flmul+2
  3903  00D2  01B5               	clrf	??___flmul+3
  3904  00D3  0832               	movf	??___flmul,w
  3905  00D4  07B8               	addwf	___flmul@grs,f
  3906  00D5  0833               	movf	??___flmul+1,w
  3907  00D6  1103               	clrz
  3908  00D7  1803               	skipnc
  3909  00D8  3E01               	addlw	1
  3910  00D9  1903               	skipnz
  3911  00DA  28DC               	goto	u2311
  3912  00DB  07B9               	addwf	___flmul@grs+1,f
  3913  00DC                     u2311:
  3914  00DC  0834               	movf	??___flmul+2,w
  3915  00DD  1103               	clrz
  3916  00DE  1803               	skipnc
  3917  00DF  3E01               	addlw	1
  3918  00E0  1903               	skipnz
  3919  00E1  28E3               	goto	u2312
  3920  00E2  07BA               	addwf	___flmul@grs+2,f
  3921  00E3                     u2312:
  3922  00E3  0835               	movf	??___flmul+3,w
  3923  00E4  1103               	clrz
  3924  00E5  1803               	skipnc
  3925  00E6  3E01               	addlw	1
  3926  00E7  1903               	skipnz
  3927  00E8  28EA               	goto	u2313
  3928  00E9  07BB               	addwf	___flmul@grs+3,f
  3929  00EA                     u2313:
  3930  00EA                     l2085:
  3931  00EA  0843               	movf	___flmul@temp+1,w
  3932  00EB  00B2               	movwf	??___flmul
  3933  00EC  01B3               	clrf	??___flmul+1
  3934  00ED  01B4               	clrf	??___flmul+2
  3935  00EE  01B5               	clrf	??___flmul+3
  3936  00EF  0832               	movf	??___flmul,w
  3937  00F0  07BE               	addwf	___flmul@prod,f
  3938  00F1  0833               	movf	??___flmul+1,w
  3939  00F2  1103               	clrz
  3940  00F3  1803               	skipnc
  3941  00F4  3E01               	addlw	1
  3942  00F5  1903               	skipnz
  3943  00F6  28F8               	goto	u2321
  3944  00F7  07BF               	addwf	___flmul@prod+1,f
  3945  00F8                     u2321:
  3946  00F8  0834               	movf	??___flmul+2,w
  3947  00F9  1103               	clrz
  3948  00FA  1803               	skipnc
  3949  00FB  3E01               	addlw	1
  3950  00FC  1903               	skipnz
  3951  00FD  28FF               	goto	u2322
  3952  00FE  07C0               	addwf	___flmul@prod+2,f
  3953  00FF                     u2322:
  3954  00FF  0835               	movf	??___flmul+3,w
  3955  0100  1103               	clrz
  3956  0101  1803               	skipnc
  3957  0102  3E01               	addlw	1
  3958  0103  1903               	skipnz
  3959  0104  2906               	goto	u2323
  3960  0105  07C1               	addwf	___flmul@prod+3,f
  3961  0106                     u2323:
  3962  0106  082C               	movf	___flmul@b+2,w
  3963  0107  00B2               	movwf	??___flmul
  3964  0108  0832               	movf	??___flmul,w
  3965  0109  00F3               	movwf	__Umul8_16@multiplicand
  3966  010A  082E               	movf	___flmul@a,w
  3967  010B  120A  158A  23B4  120A  118A  	fcall	__Umul8_16
  3968  0110  0874               	movf	?__Umul8_16+1,w
  3969  0111  1283               	bcf	3,5	;RP0=0, select bank0
  3970  0112  1303               	bcf	3,6	;RP1=0, select bank0
  3971  0113  00C3               	movwf	___flmul@temp+1
  3972  0114  0873               	movf	?__Umul8_16,w
  3973  0115  00C2               	movwf	___flmul@temp
  3974  0116                     l2087:
  3975  0116  0842               	movf	___flmul@temp,w
  3976  0117  00B2               	movwf	??___flmul
  3977  0118  01B3               	clrf	??___flmul+1
  3978  0119  01B4               	clrf	??___flmul+2
  3979  011A  01B5               	clrf	??___flmul+3
  3980  011B  0832               	movf	??___flmul,w
  3981  011C  07B8               	addwf	___flmul@grs,f
  3982  011D  0833               	movf	??___flmul+1,w
  3983  011E  1103               	clrz
  3984  011F  1803               	skipnc
  3985  0120  3E01               	addlw	1
  3986  0121  1903               	skipnz
  3987  0122  2924               	goto	u2331
  3988  0123  07B9               	addwf	___flmul@grs+1,f
  3989  0124                     u2331:
  3990  0124  0834               	movf	??___flmul+2,w
  3991  0125  1103               	clrz
  3992  0126  1803               	skipnc
  3993  0127  3E01               	addlw	1
  3994  0128  1903               	skipnz
  3995  0129  292B               	goto	u2332
  3996  012A  07BA               	addwf	___flmul@grs+2,f
  3997  012B                     u2332:
  3998  012B  0835               	movf	??___flmul+3,w
  3999  012C  1103               	clrz
  4000  012D  1803               	skipnc
  4001  012E  3E01               	addlw	1
  4002  012F  1903               	skipnz
  4003  0130  2932               	goto	u2333
  4004  0131  07BB               	addwf	___flmul@grs+3,f
  4005  0132                     u2333:
  4006  0132                     l2089:
  4007  0132  0843               	movf	___flmul@temp+1,w
  4008  0133  00B2               	movwf	??___flmul
  4009  0134  01B3               	clrf	??___flmul+1
  4010  0135  01B4               	clrf	??___flmul+2
  4011  0136  01B5               	clrf	??___flmul+3
  4012  0137  0832               	movf	??___flmul,w
  4013  0138  07BE               	addwf	___flmul@prod,f
  4014  0139  0833               	movf	??___flmul+1,w
  4015  013A  1103               	clrz
  4016  013B  1803               	skipnc
  4017  013C  3E01               	addlw	1
  4018  013D  1903               	skipnz
  4019  013E  2940               	goto	u2341
  4020  013F  07BF               	addwf	___flmul@prod+1,f
  4021  0140                     u2341:
  4022  0140  0834               	movf	??___flmul+2,w
  4023  0141  1103               	clrz
  4024  0142  1803               	skipnc
  4025  0143  3E01               	addlw	1
  4026  0144  1903               	skipnz
  4027  0145  2947               	goto	u2342
  4028  0146  07C0               	addwf	___flmul@prod+2,f
  4029  0147                     u2342:
  4030  0147  0835               	movf	??___flmul+3,w
  4031  0148  1103               	clrz
  4032  0149  1803               	skipnc
  4033  014A  3E01               	addlw	1
  4034  014B  1903               	skipnz
  4035  014C  294E               	goto	u2343
  4036  014D  07C1               	addwf	___flmul@prod+3,f
  4037  014E                     u2343:
  4038  014E                     l2091:
  4039  014E  3008               	movlw	8
  4040  014F  00B2               	movwf	??___flmul
  4041  0150                     u2355:
  4042  0150  1003               	clrc
  4043  0151  0DB8               	rlf	___flmul@grs,f
  4044  0152  0DB9               	rlf	___flmul@grs+1,f
  4045  0153  0DBA               	rlf	___flmul@grs+2,f
  4046  0154  0DBB               	rlf	___flmul@grs+3,f
  4047  0155  0BB2               	decfsz	??___flmul,f
  4048  0156  2950               	goto	u2355
  4049  0157                     l2093:
  4050  0157  082B               	movf	___flmul@b+1,w
  4051  0158  00B2               	movwf	??___flmul
  4052  0159  0832               	movf	??___flmul,w
  4053  015A  00F3               	movwf	__Umul8_16@multiplicand
  4054  015B  082E               	movf	___flmul@a,w
  4055  015C  120A  158A  23B4  120A  118A  	fcall	__Umul8_16
  4056  0161  0874               	movf	?__Umul8_16+1,w
  4057  0162  1283               	bcf	3,5	;RP0=0, select bank0
  4058  0163  1303               	bcf	3,6	;RP1=0, select bank0
  4059  0164  00C3               	movwf	___flmul@temp+1
  4060  0165  0873               	movf	?__Umul8_16,w
  4061  0166  00C2               	movwf	___flmul@temp
  4062  0167                     l2095:
  4063  0167  0842               	movf	___flmul@temp,w
  4064  0168  00B2               	movwf	??___flmul
  4065  0169  0843               	movf	___flmul@temp+1,w
  4066  016A  00B3               	movwf	??___flmul+1
  4067  016B  01B4               	clrf	??___flmul+2
  4068  016C  01B5               	clrf	??___flmul+3
  4069  016D  0832               	movf	??___flmul,w
  4070  016E  07B8               	addwf	___flmul@grs,f
  4071  016F  0833               	movf	??___flmul+1,w
  4072  0170  1103               	clrz
  4073  0171  1803               	skipnc
  4074  0172  3E01               	addlw	1
  4075  0173  1903               	skipnz
  4076  0174  2976               	goto	u2361
  4077  0175  07B9               	addwf	___flmul@grs+1,f
  4078  0176                     u2361:
  4079  0176  0834               	movf	??___flmul+2,w
  4080  0177  1103               	clrz
  4081  0178  1803               	skipnc
  4082  0179  3E01               	addlw	1
  4083  017A  1903               	skipnz
  4084  017B  297D               	goto	u2362
  4085  017C  07BA               	addwf	___flmul@grs+2,f
  4086  017D                     u2362:
  4087  017D  0835               	movf	??___flmul+3,w
  4088  017E  1103               	clrz
  4089  017F  1803               	skipnc
  4090  0180  3E01               	addlw	1
  4091  0181  1903               	skipnz
  4092  0182  2984               	goto	u2363
  4093  0183  07BB               	addwf	___flmul@grs+3,f
  4094  0184                     u2363:
  4095  0184                     l2097:
  4096  0184  082A               	movf	___flmul@b,w
  4097  0185  00B2               	movwf	??___flmul
  4098  0186  0832               	movf	??___flmul,w
  4099  0187  00F3               	movwf	__Umul8_16@multiplicand
  4100  0188  082F               	movf	___flmul@a+1,w
  4101  0189  120A  158A  23B4  120A  118A  	fcall	__Umul8_16
  4102  018E  0874               	movf	?__Umul8_16+1,w
  4103  018F  1283               	bcf	3,5	;RP0=0, select bank0
  4104  0190  1303               	bcf	3,6	;RP1=0, select bank0
  4105  0191  00C3               	movwf	___flmul@temp+1
  4106  0192  0873               	movf	?__Umul8_16,w
  4107  0193  00C2               	movwf	___flmul@temp
  4108  0194                     l2099:
  4109  0194  0842               	movf	___flmul@temp,w
  4110  0195  00B2               	movwf	??___flmul
  4111  0196  0843               	movf	___flmul@temp+1,w
  4112  0197  00B3               	movwf	??___flmul+1
  4113  0198  01B4               	clrf	??___flmul+2
  4114  0199  01B5               	clrf	??___flmul+3
  4115  019A  0832               	movf	??___flmul,w
  4116  019B  07B8               	addwf	___flmul@grs,f
  4117  019C  0833               	movf	??___flmul+1,w
  4118  019D  1103               	clrz
  4119  019E  1803               	skipnc
  4120  019F  3E01               	addlw	1
  4121  01A0  1903               	skipnz
  4122  01A1  29A3               	goto	u2371
  4123  01A2  07B9               	addwf	___flmul@grs+1,f
  4124  01A3                     u2371:
  4125  01A3  0834               	movf	??___flmul+2,w
  4126  01A4  1103               	clrz
  4127  01A5  1803               	skipnc
  4128  01A6  3E01               	addlw	1
  4129  01A7  1903               	skipnz
  4130  01A8  29AA               	goto	u2372
  4131  01A9  07BA               	addwf	___flmul@grs+2,f
  4132  01AA                     u2372:
  4133  01AA  0835               	movf	??___flmul+3,w
  4134  01AB  1103               	clrz
  4135  01AC  1803               	skipnc
  4136  01AD  3E01               	addlw	1
  4137  01AE  1903               	skipnz
  4138  01AF  29B1               	goto	u2373
  4139  01B0  07BB               	addwf	___flmul@grs+3,f
  4140  01B1                     u2373:
  4141  01B1                     l2101:
  4142  01B1  3008               	movlw	8
  4143  01B2  00B2               	movwf	??___flmul
  4144  01B3                     u2385:
  4145  01B3  1003               	clrc
  4146  01B4  0DB8               	rlf	___flmul@grs,f
  4147  01B5  0DB9               	rlf	___flmul@grs+1,f
  4148  01B6  0DBA               	rlf	___flmul@grs+2,f
  4149  01B7  0DBB               	rlf	___flmul@grs+3,f
  4150  01B8  0BB2               	decfsz	??___flmul,f
  4151  01B9  29B3               	goto	u2385
  4152  01BA  082A               	movf	___flmul@b,w
  4153  01BB  00B2               	movwf	??___flmul
  4154  01BC  0832               	movf	??___flmul,w
  4155  01BD  00F3               	movwf	__Umul8_16@multiplicand
  4156  01BE  082E               	movf	___flmul@a,w
  4157  01BF  120A  158A  23B4  120A  118A  	fcall	__Umul8_16
  4158  01C4  0874               	movf	?__Umul8_16+1,w
  4159  01C5  1283               	bcf	3,5	;RP0=0, select bank0
  4160  01C6  1303               	bcf	3,6	;RP1=0, select bank0
  4161  01C7  00C3               	movwf	___flmul@temp+1
  4162  01C8  0873               	movf	?__Umul8_16,w
  4163  01C9  00C2               	movwf	___flmul@temp
  4164  01CA                     l2103:
  4165  01CA  0842               	movf	___flmul@temp,w
  4166  01CB  00B2               	movwf	??___flmul
  4167  01CC  0843               	movf	___flmul@temp+1,w
  4168  01CD  00B3               	movwf	??___flmul+1
  4169  01CE  01B4               	clrf	??___flmul+2
  4170  01CF  01B5               	clrf	??___flmul+3
  4171  01D0  0832               	movf	??___flmul,w
  4172  01D1  07B8               	addwf	___flmul@grs,f
  4173  01D2  0833               	movf	??___flmul+1,w
  4174  01D3  1103               	clrz
  4175  01D4  1803               	skipnc
  4176  01D5  3E01               	addlw	1
  4177  01D6  1903               	skipnz
  4178  01D7  29D9               	goto	u2391
  4179  01D8  07B9               	addwf	___flmul@grs+1,f
  4180  01D9                     u2391:
  4181  01D9  0834               	movf	??___flmul+2,w
  4182  01DA  1103               	clrz
  4183  01DB  1803               	skipnc
  4184  01DC  3E01               	addlw	1
  4185  01DD  1903               	skipnz
  4186  01DE  29E0               	goto	u2392
  4187  01DF  07BA               	addwf	___flmul@grs+2,f
  4188  01E0                     u2392:
  4189  01E0  0835               	movf	??___flmul+3,w
  4190  01E1  1103               	clrz
  4191  01E2  1803               	skipnc
  4192  01E3  3E01               	addlw	1
  4193  01E4  1903               	skipnz
  4194  01E5  29E7               	goto	u2393
  4195  01E6  07BB               	addwf	___flmul@grs+3,f
  4196  01E7                     u2393:
  4197  01E7                     l2105:
  4198  01E7  082B               	movf	___flmul@b+1,w
  4199  01E8  00B2               	movwf	??___flmul
  4200  01E9  0832               	movf	??___flmul,w
  4201  01EA  00F3               	movwf	__Umul8_16@multiplicand
  4202  01EB  0830               	movf	___flmul@a+2,w
  4203  01EC  120A  158A  23B4  120A  118A  	fcall	__Umul8_16
  4204  01F1  0874               	movf	?__Umul8_16+1,w
  4205  01F2  1283               	bcf	3,5	;RP0=0, select bank0
  4206  01F3  1303               	bcf	3,6	;RP1=0, select bank0
  4207  01F4  00C3               	movwf	___flmul@temp+1
  4208  01F5  0873               	movf	?__Umul8_16,w
  4209  01F6  00C2               	movwf	___flmul@temp
  4210  01F7  0842               	movf	___flmul@temp,w
  4211  01F8  00B2               	movwf	??___flmul
  4212  01F9  0843               	movf	___flmul@temp+1,w
  4213  01FA  00B3               	movwf	??___flmul+1
  4214  01FB  01B4               	clrf	??___flmul+2
  4215  01FC  01B5               	clrf	??___flmul+3
  4216  01FD  0832               	movf	??___flmul,w
  4217  01FE  07BE               	addwf	___flmul@prod,f
  4218  01FF  0833               	movf	??___flmul+1,w
  4219  0200  1103               	clrz
  4220  0201  1803               	skipnc
  4221  0202  3E01               	addlw	1
  4222  0203  1903               	skipnz
  4223  0204  2A06               	goto	u2401
  4224  0205  07BF               	addwf	___flmul@prod+1,f
  4225  0206                     u2401:
  4226  0206  0834               	movf	??___flmul+2,w
  4227  0207  1103               	clrz
  4228  0208  1803               	skipnc
  4229  0209  3E01               	addlw	1
  4230  020A  1903               	skipnz
  4231  020B  2A0D               	goto	u2402
  4232  020C  07C0               	addwf	___flmul@prod+2,f
  4233  020D                     u2402:
  4234  020D  0835               	movf	??___flmul+3,w
  4235  020E  1103               	clrz
  4236  020F  1803               	skipnc
  4237  0210  3E01               	addlw	1
  4238  0211  1903               	skipnz
  4239  0212  2A14               	goto	u2403
  4240  0213  07C1               	addwf	___flmul@prod+3,f
  4241  0214                     u2403:
  4242  0214                     l2107:
  4243  0214  082C               	movf	___flmul@b+2,w
  4244  0215  00B2               	movwf	??___flmul
  4245  0216  0832               	movf	??___flmul,w
  4246  0217  00F3               	movwf	__Umul8_16@multiplicand
  4247  0218  082F               	movf	___flmul@a+1,w
  4248  0219  120A  158A  23B4  120A  118A  	fcall	__Umul8_16
  4249  021E  0874               	movf	?__Umul8_16+1,w
  4250  021F  1283               	bcf	3,5	;RP0=0, select bank0
  4251  0220  1303               	bcf	3,6	;RP1=0, select bank0
  4252  0221  00C3               	movwf	___flmul@temp+1
  4253  0222  0873               	movf	?__Umul8_16,w
  4254  0223  00C2               	movwf	___flmul@temp
  4255  0224                     l2109:
  4256  0224  0842               	movf	___flmul@temp,w
  4257  0225  00B2               	movwf	??___flmul
  4258  0226  0843               	movf	___flmul@temp+1,w
  4259  0227  00B3               	movwf	??___flmul+1
  4260  0228  01B4               	clrf	??___flmul+2
  4261  0229  01B5               	clrf	??___flmul+3
  4262  022A  0832               	movf	??___flmul,w
  4263  022B  07BE               	addwf	___flmul@prod,f
  4264  022C  0833               	movf	??___flmul+1,w
  4265  022D  1103               	clrz
  4266  022E  1803               	skipnc
  4267  022F  3E01               	addlw	1
  4268  0230  1903               	skipnz
  4269  0231  2A33               	goto	u2411
  4270  0232  07BF               	addwf	___flmul@prod+1,f
  4271  0233                     u2411:
  4272  0233  0834               	movf	??___flmul+2,w
  4273  0234  1103               	clrz
  4274  0235  1803               	skipnc
  4275  0236  3E01               	addlw	1
  4276  0237  1903               	skipnz
  4277  0238  2A3A               	goto	u2412
  4278  0239  07C0               	addwf	___flmul@prod+2,f
  4279  023A                     u2412:
  4280  023A  0835               	movf	??___flmul+3,w
  4281  023B  1103               	clrz
  4282  023C  1803               	skipnc
  4283  023D  3E01               	addlw	1
  4284  023E  1903               	skipnz
  4285  023F  2A41               	goto	u2413
  4286  0240  07C1               	addwf	___flmul@prod+3,f
  4287  0241                     u2413:
  4288  0241  082C               	movf	___flmul@b+2,w
  4289  0242  00B2               	movwf	??___flmul
  4290  0243  0832               	movf	??___flmul,w
  4291  0244  00F3               	movwf	__Umul8_16@multiplicand
  4292  0245  0830               	movf	___flmul@a+2,w
  4293  0246  120A  158A  23B4  120A  118A  	fcall	__Umul8_16
  4294  024B  0874               	movf	?__Umul8_16+1,w
  4295  024C  1283               	bcf	3,5	;RP0=0, select bank0
  4296  024D  1303               	bcf	3,6	;RP1=0, select bank0
  4297  024E  00C3               	movwf	___flmul@temp+1
  4298  024F  0873               	movf	?__Umul8_16,w
  4299  0250  00C2               	movwf	___flmul@temp
  4300  0251                     l2111:
  4301  0251  0842               	movf	___flmul@temp,w
  4302  0252  00B2               	movwf	??___flmul
  4303  0253  0843               	movf	___flmul@temp+1,w
  4304  0254  00B3               	movwf	??___flmul+1
  4305  0255  01B4               	clrf	??___flmul+2
  4306  0256  01B5               	clrf	??___flmul+3
  4307  0257  3008               	movlw	8
  4308  0258                     u2425:
  4309  0258  1003               	clrc
  4310  0259  0DB2               	rlf	??___flmul,f
  4311  025A  0DB3               	rlf	??___flmul+1,f
  4312  025B  0DB4               	rlf	??___flmul+2,f
  4313  025C  0DB5               	rlf	??___flmul+3,f
  4314  025D                     u2420:
  4315  025D  3EFF               	addlw	-1
  4316  025E  1D03               	skipz
  4317  025F  2A58               	goto	u2425
  4318  0260  0832               	movf	??___flmul,w
  4319  0261  07BE               	addwf	___flmul@prod,f
  4320  0262  0833               	movf	??___flmul+1,w
  4321  0263  1103               	clrz
  4322  0264  1803               	skipnc
  4323  0265  3E01               	addlw	1
  4324  0266  1903               	skipnz
  4325  0267  2A69               	goto	u2431
  4326  0268  07BF               	addwf	___flmul@prod+1,f
  4327  0269                     u2431:
  4328  0269  0834               	movf	??___flmul+2,w
  4329  026A  1103               	clrz
  4330  026B  1803               	skipnc
  4331  026C  3E01               	addlw	1
  4332  026D  1903               	skipnz
  4333  026E  2A70               	goto	u2432
  4334  026F  07C0               	addwf	___flmul@prod+2,f
  4335  0270                     u2432:
  4336  0270  0835               	movf	??___flmul+3,w
  4337  0271  1103               	clrz
  4338  0272  1803               	skipnc
  4339  0273  3E01               	addlw	1
  4340  0274  1903               	skipnz
  4341  0275  2A77               	goto	u2433
  4342  0276  07C1               	addwf	___flmul@prod+3,f
  4343  0277                     u2433:
  4344  0277                     l2113:
  4345  0277  0838               	movf	___flmul@grs,w
  4346  0278  00B2               	movwf	??___flmul
  4347  0279  0839               	movf	___flmul@grs+1,w
  4348  027A  00B3               	movwf	??___flmul+1
  4349  027B  083A               	movf	___flmul@grs+2,w
  4350  027C  00B4               	movwf	??___flmul+2
  4351  027D  083B               	movf	___flmul@grs+3,w
  4352  027E  00B5               	movwf	??___flmul+3
  4353  027F  3018               	movlw	24
  4354  0280                     u2445:
  4355  0280  1003               	clrc
  4356  0281  0CB5               	rrf	??___flmul+3,f
  4357  0282  0CB4               	rrf	??___flmul+2,f
  4358  0283  0CB3               	rrf	??___flmul+1,f
  4359  0284  0CB2               	rrf	??___flmul,f
  4360  0285                     u2440:
  4361  0285  3EFF               	addlw	-1
  4362  0286  1D03               	skipz
  4363  0287  2A80               	goto	u2445
  4364  0288  0832               	movf	??___flmul,w
  4365  0289  07BE               	addwf	___flmul@prod,f
  4366  028A  0833               	movf	??___flmul+1,w
  4367  028B  1103               	clrz
  4368  028C  1803               	skipnc
  4369  028D  3E01               	addlw	1
  4370  028E  1903               	skipnz
  4371  028F  2A91               	goto	u2451
  4372  0290  07BF               	addwf	___flmul@prod+1,f
  4373  0291                     u2451:
  4374  0291  0834               	movf	??___flmul+2,w
  4375  0292  1103               	clrz
  4376  0293  1803               	skipnc
  4377  0294  3E01               	addlw	1
  4378  0295  1903               	skipnz
  4379  0296  2A98               	goto	u2452
  4380  0297  07C0               	addwf	___flmul@prod+2,f
  4381  0298                     u2452:
  4382  0298  0835               	movf	??___flmul+3,w
  4383  0299  1103               	clrz
  4384  029A  1803               	skipnc
  4385  029B  3E01               	addlw	1
  4386  029C  1903               	skipnz
  4387  029D  2A9F               	goto	u2453
  4388  029E  07C1               	addwf	___flmul@prod+3,f
  4389  029F                     u2453:
  4390  029F                     l2115:
  4391  029F  3008               	movlw	8
  4392  02A0  00B2               	movwf	??___flmul
  4393  02A1                     u2465:
  4394  02A1  1003               	clrc
  4395  02A2  0DB8               	rlf	___flmul@grs,f
  4396  02A3  0DB9               	rlf	___flmul@grs+1,f
  4397  02A4  0DBA               	rlf	___flmul@grs+2,f
  4398  02A5  0DBB               	rlf	___flmul@grs+3,f
  4399  02A6  0BB2               	decfsz	??___flmul,f
  4400  02A7  2AA1               	goto	u2465
  4401  02A8                     l2117:
  4402  02A8  083D               	movf	___flmul@bexp,w
  4403  02A9  073C               	addwf	___flmul@aexp,w
  4404  02AA  00B2               	movwf	??___flmul
  4405  02AB  01B3               	clrf	??___flmul+1
  4406  02AC  0DB3               	rlf	??___flmul+1,f
  4407  02AD  0832               	movf	??___flmul,w
  4408  02AE  3E82               	addlw	130
  4409  02AF  00C2               	movwf	___flmul@temp
  4410  02B0  0833               	movf	??___flmul+1,w
  4411  02B1  1803               	skipnc
  4412  02B2  3E01               	addlw	1
  4413  02B3  3EFF               	addlw	255
  4414  02B4  00C3               	movwf	___flmul@temp+1
  4415  02B5  2AD3               	goto	l2129
  4416  02B6                     l2119:
  4417  02B6  3001               	movlw	1
  4418  02B7  00B2               	movwf	??___flmul
  4419  02B8                     u2475:
  4420  02B8  1003               	clrc
  4421  02B9  0DBE               	rlf	___flmul@prod,f
  4422  02BA  0DBF               	rlf	___flmul@prod+1,f
  4423  02BB  0DC0               	rlf	___flmul@prod+2,f
  4424  02BC  0DC1               	rlf	___flmul@prod+3,f
  4425  02BD  0BB2               	decfsz	??___flmul,f
  4426  02BE  2AB8               	goto	u2475
  4427  02BF                     l2121:
  4428  02BF  1FBB               	btfss	___flmul@grs+3,7
  4429  02C0  2AC2               	goto	u2481
  4430  02C1  2AC3               	goto	u2480
  4431  02C2                     u2481:
  4432  02C2  2AC4               	goto	l2125
  4433  02C3                     u2480:
  4434  02C3                     l2123:
  4435  02C3  143E               	bsf	___flmul@prod,0
  4436  02C4                     l2125:
  4437  02C4  3001               	movlw	1
  4438  02C5  00B2               	movwf	??___flmul
  4439  02C6                     u2495:
  4440  02C6  1003               	clrc
  4441  02C7  0DB8               	rlf	___flmul@grs,f
  4442  02C8  0DB9               	rlf	___flmul@grs+1,f
  4443  02C9  0DBA               	rlf	___flmul@grs+2,f
  4444  02CA  0DBB               	rlf	___flmul@grs+3,f
  4445  02CB  0BB2               	decfsz	??___flmul,f
  4446  02CC  2AC6               	goto	u2495
  4447  02CD                     l2127:
  4448  02CD  30FF               	movlw	255
  4449  02CE  07C2               	addwf	___flmul@temp,f
  4450  02CF  1803               	skipnc
  4451  02D0  0AC3               	incf	___flmul@temp+1,f
  4452  02D1  30FF               	movlw	255
  4453  02D2  07C3               	addwf	___flmul@temp+1,f
  4454  02D3                     l2129:
  4455  02D3  1FC0               	btfss	___flmul@prod+2,7
  4456  02D4  2AD6               	goto	u2501
  4457  02D5  2AD7               	goto	u2500
  4458  02D6                     u2501:
  4459  02D6  2AB6               	goto	l2119
  4460  02D7                     u2500:
  4461  02D7                     l2131:
  4462  02D7  01BC               	clrf	___flmul@aexp
  4463  02D8                     l2133:
  4464  02D8  1FBB               	btfss	___flmul@grs+3,7
  4465  02D9  2ADB               	goto	u2511
  4466  02DA  2ADC               	goto	u2510
  4467  02DB                     u2511:
  4468  02DB  2AF8               	goto	l2141
  4469  02DC                     u2510:
  4470  02DC                     l2135:
  4471  02DC  30FF               	movlw	255
  4472  02DD  0538               	andwf	___flmul@grs,w
  4473  02DE  00B2               	movwf	??___flmul
  4474  02DF  30FF               	movlw	255
  4475  02E0  0539               	andwf	___flmul@grs+1,w
  4476  02E1  00B3               	movwf	??___flmul+1
  4477  02E2  30FF               	movlw	255
  4478  02E3  053A               	andwf	___flmul@grs+2,w
  4479  02E4  00B4               	movwf	??___flmul+2
  4480  02E5  307F               	movlw	127
  4481  02E6  053B               	andwf	___flmul@grs+3,w
  4482  02E7  00B5               	movwf	??___flmul+3
  4483  02E8  0835               	movf	??___flmul+3,w
  4484  02E9  0434               	iorwf	??___flmul+2,w
  4485  02EA  0433               	iorwf	??___flmul+1,w
  4486  02EB  0432               	iorwf	??___flmul,w
  4487  02EC  1903               	skipnz
  4488  02ED  2AEF               	goto	u2521
  4489  02EE  2AF0               	goto	u2520
  4490  02EF                     u2521:
  4491  02EF  2AF3               	goto	l669
  4492  02F0                     u2520:
  4493  02F0                     l2137:
  4494  02F0  01BC               	clrf	___flmul@aexp
  4495  02F1  0ABC               	incf	___flmul@aexp,f
  4496  02F2  2AF8               	goto	l2141
  4497  02F3                     l669:
  4498  02F3  1C3E               	btfss	___flmul@prod,0
  4499  02F4  2AF6               	goto	u2531
  4500  02F5  2AF7               	goto	u2530
  4501  02F6                     u2531:
  4502  02F6  2AF8               	goto	l2141
  4503  02F7                     u2530:
  4504  02F7  2AF0               	goto	l2137
  4505  02F8                     l2141:
  4506  02F8  083C               	movf	___flmul@aexp,w
  4507  02F9  1903               	btfsc	3,2
  4508  02FA  2AFC               	goto	u2541
  4509  02FB  2AFD               	goto	u2540
  4510  02FC                     u2541:
  4511  02FC  2B2E               	goto	l2151
  4512  02FD                     u2540:
  4513  02FD                     l2143:
  4514  02FD  3001               	movlw	1
  4515  02FE  07BE               	addwf	___flmul@prod,f
  4516  02FF  3000               	movlw	0
  4517  0300  1803               	skipnc
  4518  0301  3001               	movlw	1
  4519  0302  07BF               	addwf	___flmul@prod+1,f
  4520  0303  3000               	movlw	0
  4521  0304  1803               	skipnc
  4522  0305  3001               	movlw	1
  4523  0306  07C0               	addwf	___flmul@prod+2,f
  4524  0307  3000               	movlw	0
  4525  0308  1803               	skipnc
  4526  0309  3001               	movlw	1
  4527  030A  07C1               	addwf	___flmul@prod+3,f
  4528  030B                     l2145:
  4529  030B  1C41               	btfss	___flmul@prod+3,0
  4530  030C  2B0E               	goto	u2551
  4531  030D  2B0F               	goto	u2550
  4532  030E                     u2551:
  4533  030E  2B2E               	goto	l2151
  4534  030F                     u2550:
  4535  030F                     l2147:
  4536  030F  083E               	movf	___flmul@prod,w
  4537  0310  00B2               	movwf	??___flmul
  4538  0311  083F               	movf	___flmul@prod+1,w
  4539  0312  00B3               	movwf	??___flmul+1
  4540  0313  0840               	movf	___flmul@prod+2,w
  4541  0314  00B4               	movwf	??___flmul+2
  4542  0315  0841               	movf	___flmul@prod+3,w
  4543  0316  00B5               	movwf	??___flmul+3
  4544  0317  3001               	movlw	1
  4545  0318  00B6               	movwf	??___flmul+4
  4546  0319                     u2565:
  4547  0319  0D35               	rlf	??___flmul+3,w
  4548  031A  0CB5               	rrf	??___flmul+3,f
  4549  031B  0CB4               	rrf	??___flmul+2,f
  4550  031C  0CB3               	rrf	??___flmul+1,f
  4551  031D  0CB2               	rrf	??___flmul,f
  4552  031E                     u2560:
  4553  031E  0BB6               	decfsz	??___flmul+4,f
  4554  031F  2B19               	goto	u2565
  4555  0320  0835               	movf	??___flmul+3,w
  4556  0321  00C1               	movwf	___flmul@prod+3
  4557  0322  0834               	movf	??___flmul+2,w
  4558  0323  00C0               	movwf	___flmul@prod+2
  4559  0324  0833               	movf	??___flmul+1,w
  4560  0325  00BF               	movwf	___flmul@prod+1
  4561  0326  0832               	movf	??___flmul,w
  4562  0327  00BE               	movwf	___flmul@prod
  4563  0328                     l2149:
  4564  0328  3001               	movlw	1
  4565  0329  07C2               	addwf	___flmul@temp,f
  4566  032A  1803               	skipnc
  4567  032B  0AC3               	incf	___flmul@temp+1,f
  4568  032C  3000               	movlw	0
  4569  032D  07C3               	addwf	___flmul@temp+1,f
  4570  032E                     l2151:
  4571  032E  0843               	movf	___flmul@temp+1,w
  4572  032F  3A80               	xorlw	128
  4573  0330  00FF               	movwf	btemp+1
  4574  0331  3080               	movlw	128
  4575  0332  027F               	subwf	btemp+1,w
  4576  0333  1D03               	skipz
  4577  0334  2B37               	goto	u2575
  4578  0335  30FF               	movlw	255
  4579  0336  0242               	subwf	___flmul@temp,w
  4580  0337                     u2575:
  4581  0337  1C03               	skipc
  4582  0338  2B3A               	goto	u2571
  4583  0339  2B3B               	goto	u2570
  4584  033A                     u2571:
  4585  033A  2B46               	goto	l2155
  4586  033B                     u2570:
  4587  033B                     l2153:
  4588  033B  307F               	movlw	127
  4589  033C  1283               	bcf	3,5	;RP0=0, select bank0
  4590  033D  1303               	bcf	3,6	;RP1=0, select bank0
  4591  033E  00C1               	movwf	___flmul@prod+3
  4592  033F  3080               	movlw	128
  4593  0340  00C0               	movwf	___flmul@prod+2
  4594  0341  3000               	movlw	0
  4595  0342  00BF               	movwf	___flmul@prod+1
  4596  0343  3000               	movlw	0
  4597  0344  00BE               	movwf	___flmul@prod
  4598  0345  2B7B               	goto	l675
  4599  0346                     l2155:
  4600  0346  1283               	bcf	3,5	;RP0=0, select bank0
  4601  0347  1303               	bcf	3,6	;RP1=0, select bank0
  4602  0348  0843               	movf	___flmul@temp+1,w
  4603  0349  3A80               	xorlw	128
  4604  034A  00FF               	movwf	btemp+1
  4605  034B  3080               	movlw	128
  4606  034C  027F               	subwf	btemp+1,w
  4607  034D  1D03               	skipz
  4608  034E  2B51               	goto	u2585
  4609  034F  3001               	movlw	1
  4610  0350  0242               	subwf	___flmul@temp,w
  4611  0351                     u2585:
  4612  0351  1803               	skipnc
  4613  0352  2B54               	goto	u2581
  4614  0353  2B55               	goto	u2580
  4615  0354                     u2581:
  4616  0354  2B61               	goto	l2161
  4617  0355                     u2580:
  4618  0355                     l2157:
  4619  0355  3000               	movlw	0
  4620  0356  1283               	bcf	3,5	;RP0=0, select bank0
  4621  0357  1303               	bcf	3,6	;RP1=0, select bank0
  4622  0358  00C1               	movwf	___flmul@prod+3
  4623  0359  3000               	movlw	0
  4624  035A  00C0               	movwf	___flmul@prod+2
  4625  035B  3000               	movlw	0
  4626  035C  00BF               	movwf	___flmul@prod+1
  4627  035D  3000               	movlw	0
  4628  035E  00BE               	movwf	___flmul@prod
  4629  035F                     l2159:
  4630  035F  01B7               	clrf	___flmul@sign
  4631  0360  2B7B               	goto	l675
  4632  0361                     l2161:
  4633  0361  1283               	bcf	3,5	;RP0=0, select bank0
  4634  0362  1303               	bcf	3,6	;RP1=0, select bank0
  4635  0363  0842               	movf	___flmul@temp,w
  4636  0364  00B2               	movwf	??___flmul
  4637  0365  0832               	movf	??___flmul,w
  4638  0366  00BD               	movwf	___flmul@bexp
  4639  0367  30FF               	movlw	255
  4640  0368  05BE               	andwf	___flmul@prod,f
  4641  0369  30FF               	movlw	255
  4642  036A  05BF               	andwf	___flmul@prod+1,f
  4643  036B  307F               	movlw	127
  4644  036C  05C0               	andwf	___flmul@prod+2,f
  4645  036D  3000               	movlw	0
  4646  036E  05C1               	andwf	___flmul@prod+3,f
  4647  036F                     l2163:
  4648  036F  1C3D               	btfss	___flmul@bexp,0
  4649  0370  2B72               	goto	u2591
  4650  0371  2B73               	goto	u2590
  4651  0372                     u2591:
  4652  0372  2B74               	goto	l2167
  4653  0373                     u2590:
  4654  0373                     l2165:
  4655  0373  17C0               	bsf	___flmul@prod+2,7
  4656  0374                     l2167:
  4657  0374  083D               	movf	___flmul@bexp,w
  4658  0375  00B2               	movwf	??___flmul
  4659  0376  1003               	clrc
  4660  0377  0C32               	rrf	??___flmul,w
  4661  0378  00B3               	movwf	??___flmul+1
  4662  0379  0833               	movf	??___flmul+1,w
  4663  037A  00C1               	movwf	___flmul@prod+3
  4664  037B                     l675:
  4665  037B  0837               	movf	___flmul@sign,w
  4666  037C  00B2               	movwf	??___flmul
  4667  037D  0832               	movf	??___flmul,w
  4668  037E  04C1               	iorwf	___flmul@prod+3,f
  4669  037F                     l2169:
  4670  037F  0841               	movf	___flmul@prod+3,w
  4671  0380  00AD               	movwf	?___flmul+3
  4672  0381  0840               	movf	___flmul@prod+2,w
  4673  0382  00AC               	movwf	?___flmul+2
  4674  0383  083F               	movf	___flmul@prod+1,w
  4675  0384  00AB               	movwf	?___flmul+1
  4676  0385  083E               	movf	___flmul@prod,w
  4677  0386  00AA               	movwf	?___flmul
  4678  0387                     l663:
  4679  0387  0008               	return
  4680  0388                     __end_of___flmul:
  4681                           
  4682                           	psect	text18
  4683  0BB4                     __ptext18:	
  4684 ;; *************** function __Umul8_16 *****************
  4685 ;; Defined at:
  4686 ;;		line 4 in file "C:\Program Files\Microchip\xc8\v2.31\pic\sources\c90\common\Umul8_16.c"
  4687 ;; Parameters:    Size  Location     Type
  4688 ;;  multiplier      1    wreg     unsigned char 
  4689 ;;  multiplicand    1    3[COMMON] unsigned char 
  4690 ;; Auto vars:     Size  Location     Type
  4691 ;;  multiplier      1    4[BANK0 ] unsigned char 
  4692 ;;  word_mpld       2    2[BANK0 ] unsigned int 
  4693 ;;  product         2    0[BANK0 ] unsigned int 
  4694 ;; Return value:  Size  Location     Type
  4695 ;;                  2    3[COMMON] unsigned int 
  4696 ;; Registers used:
  4697 ;;		wreg, status,2, status,0
  4698 ;; Tracked objects:
  4699 ;;		On entry : 0/0
  4700 ;;		On exit  : 0/0
  4701 ;;		Unchanged: 0/0
  4702 ;; Data sizes:     COMMON   BANK0   BANK1   BANK3   BANK2
  4703 ;;      Params:         2       0       0       0       0
  4704 ;;      Locals:         0       5       0       0       0
  4705 ;;      Temps:          2       0       0       0       0
  4706 ;;      Totals:         4       5       0       0       0
  4707 ;;Total ram usage:        9 bytes
  4708 ;; Hardware stack levels used:    1
  4709 ;; Hardware stack levels required when called:    2
  4710 ;; This function calls:
  4711 ;;		Nothing
  4712 ;; This function is called by:
  4713 ;;		___flmul
  4714 ;; This function uses a non-reentrant model
  4715 ;;
  4716                           
  4717                           
  4718                           ;psect for function __Umul8_16
  4719  0BB4                     __Umul8_16:
  4720                           
  4721                           ;incstack = 0
  4722                           ; Regs used in __Umul8_16: [wreg+status,2+status,0]
  4723                           ;__Umul8_16@multiplier stored from wreg
  4724  0BB4  1283               	bcf	3,5	;RP0=0, select bank0
  4725  0BB5  1303               	bcf	3,6	;RP1=0, select bank0
  4726  0BB6  00A4               	movwf	__Umul8_16@multiplier
  4727  0BB7                     l1679:
  4728  0BB7  01A0               	clrf	__Umul8_16@product
  4729  0BB8  01A1               	clrf	__Umul8_16@product+1
  4730  0BB9                     l1681:
  4731  0BB9  0873               	movf	__Umul8_16@multiplicand,w
  4732  0BBA  00F5               	movwf	??__Umul8_16
  4733  0BBB  01F6               	clrf	??__Umul8_16+1
  4734  0BBC  0875               	movf	??__Umul8_16,w
  4735  0BBD  00A2               	movwf	__Umul8_16@word_mpld
  4736  0BBE  0876               	movf	??__Umul8_16+1,w
  4737  0BBF  00A3               	movwf	__Umul8_16@word_mpld+1
  4738  0BC0                     l1683:
  4739  0BC0  1C24               	btfss	__Umul8_16@multiplier,0
  4740  0BC1  2BC3               	goto	u1541
  4741  0BC2  2BC4               	goto	u1540
  4742  0BC3                     u1541:
  4743  0BC3  2BCA               	goto	l682
  4744  0BC4                     u1540:
  4745  0BC4                     l1685:
  4746  0BC4  0822               	movf	__Umul8_16@word_mpld,w
  4747  0BC5  07A0               	addwf	__Umul8_16@product,f
  4748  0BC6  1803               	skipnc
  4749  0BC7  0AA1               	incf	__Umul8_16@product+1,f
  4750  0BC8  0823               	movf	__Umul8_16@word_mpld+1,w
  4751  0BC9  07A1               	addwf	__Umul8_16@product+1,f
  4752  0BCA                     l682:
  4753  0BCA  3001               	movlw	1
  4754  0BCB                     u1555:
  4755  0BCB  1003               	clrc
  4756  0BCC  0DA2               	rlf	__Umul8_16@word_mpld,f
  4757  0BCD  0DA3               	rlf	__Umul8_16@word_mpld+1,f
  4758  0BCE  3EFF               	addlw	-1
  4759  0BCF  1D03               	skipz
  4760  0BD0  2BCB               	goto	u1555
  4761  0BD1  1003               	clrc
  4762  0BD2  0CA4               	rrf	__Umul8_16@multiplier,f
  4763  0BD3                     l1687:
  4764  0BD3  0824               	movf	__Umul8_16@multiplier,w
  4765  0BD4  1D03               	btfss	3,2
  4766  0BD5  2BD7               	goto	u1561
  4767  0BD6  2BD8               	goto	u1560
  4768  0BD7                     u1561:
  4769  0BD7  2BC0               	goto	l1683
  4770  0BD8                     u1560:
  4771  0BD8                     l1689:
  4772  0BD8  0821               	movf	__Umul8_16@product+1,w
  4773  0BD9  00F4               	movwf	?__Umul8_16+1
  4774  0BDA  0820               	movf	__Umul8_16@product,w
  4775  0BDB  00F3               	movwf	?__Umul8_16
  4776  0BDC                     l684:
  4777  0BDC  0008               	return
  4778  0BDD                     __end_of__Umul8_16:
  4779                           
  4780                           	psect	text19
  4781  0E23                     __ptext19:	
  4782 ;; *************** function ___fldiv *****************
  4783 ;; Defined at:
  4784 ;;		line 8 in file "C:\Program Files\Microchip\xc8\v2.31\pic\sources\c90\common\sprcdiv.c"
  4785 ;; Parameters:    Size  Location     Type
  4786 ;;  a               4   36[BANK0 ] unsigned int 
  4787 ;;  b               4   40[BANK0 ] unsigned int 
  4788 ;; Auto vars:     Size  Location     Type
  4789 ;;  grs             4   56[BANK0 ] unsigned long 
  4790 ;;  rem             4   49[BANK0 ] unsigned long 
  4791 ;;  new_exp         2   54[BANK0 ] int 
  4792 ;;  aexp            1   61[BANK0 ] unsigned char 
  4793 ;;  bexp            1   60[BANK0 ] unsigned char 
  4794 ;;  sign            1   53[BANK0 ] unsigned char 
  4795 ;; Return value:  Size  Location     Type
  4796 ;;                  4   36[BANK0 ] unsigned char 
  4797 ;; Registers used:
  4798 ;;		wreg, status,2, status,0, btemp+1
  4799 ;; Tracked objects:
  4800 ;;		On entry : 0/0
  4801 ;;		On exit  : 0/0
  4802 ;;		Unchanged: 0/0
  4803 ;; Data sizes:     COMMON   BANK0   BANK1   BANK3   BANK2
  4804 ;;      Params:         0       8       0       0       0
  4805 ;;      Locals:         0      13       0       0       0
  4806 ;;      Temps:          0       5       0       0       0
  4807 ;;      Totals:         0      26       0       0       0
  4808 ;;Total ram usage:       26 bytes
  4809 ;; Hardware stack levels used:    1
  4810 ;; Hardware stack levels required when called:    2
  4811 ;; This function calls:
  4812 ;;		Nothing
  4813 ;; This function is called by:
  4814 ;;		_ADC
  4815 ;; This function uses a non-reentrant model
  4816 ;;
  4817                           
  4818                           
  4819                           ;psect for function ___fldiv
  4820  0E23                     ___fldiv:
  4821  0E23                     l1891:	
  4822                           ;incstack = 0
  4823                           ; Regs used in ___fldiv: [wreg+status,2+status,0+btemp+1]
  4824                           
  4825  0E23  1283               	bcf	3,5	;RP0=0, select bank0
  4826  0E24  1303               	bcf	3,6	;RP1=0, select bank0
  4827  0E25  084B               	movf	___fldiv@b+3,w
  4828  0E26  3980               	andlw	128
  4829  0E27  00CC               	movwf	??___fldiv
  4830  0E28  084C               	movf	??___fldiv,w
  4831  0E29  00D5               	movwf	___fldiv@sign
  4832  0E2A                     l1893:
  4833  0E2A  084B               	movf	___fldiv@b+3,w
  4834  0E2B  00CC               	movwf	??___fldiv
  4835  0E2C  074C               	addwf	??___fldiv,w
  4836  0E2D  00CD               	movwf	??___fldiv+1
  4837  0E2E  084D               	movf	??___fldiv+1,w
  4838  0E2F  00DC               	movwf	___fldiv@bexp
  4839  0E30                     l1895:
  4840  0E30  1FCA               	btfss	___fldiv@b+2,7
  4841  0E31  2E33               	goto	u1941
  4842  0E32  2E34               	goto	u1940
  4843  0E33                     u1941:
  4844  0E33  2E35               	goto	l1899
  4845  0E34                     u1940:
  4846  0E34                     l1897:
  4847  0E34  145C               	bsf	___fldiv@bexp,0
  4848  0E35                     l1899:
  4849  0E35  085C               	movf	___fldiv@bexp,w
  4850  0E36  1903               	btfsc	3,2
  4851  0E37  2E39               	goto	u1951
  4852  0E38  2E3A               	goto	u1950
  4853  0E39                     u1951:
  4854  0E39  2E4A               	goto	l1909
  4855  0E3A                     u1950:
  4856  0E3A                     l1901:
  4857  0E3A  0A5C               	incf	___fldiv@bexp,w
  4858  0E3B  1D03               	btfss	3,2
  4859  0E3C  2E3E               	goto	u1961
  4860  0E3D  2E3F               	goto	u1960
  4861  0E3E                     u1961:
  4862  0E3E  2E47               	goto	l1905
  4863  0E3F                     u1960:
  4864  0E3F                     l1903:
  4865  0E3F  3000               	movlw	0
  4866  0E40  00CB               	movwf	___fldiv@b+3
  4867  0E41  3000               	movlw	0
  4868  0E42  00CA               	movwf	___fldiv@b+2
  4869  0E43  3000               	movlw	0
  4870  0E44  00C9               	movwf	___fldiv@b+1
  4871  0E45  3000               	movlw	0
  4872  0E46  00C8               	movwf	___fldiv@b
  4873  0E47                     l1905:
  4874  0E47  17CA               	bsf	___fldiv@b+2,7
  4875  0E48                     l1907:
  4876  0E48  01CB               	clrf	___fldiv@b+3
  4877  0E49  2E52               	goto	l1911
  4878  0E4A                     l1909:
  4879  0E4A  3000               	movlw	0
  4880  0E4B  00CB               	movwf	___fldiv@b+3
  4881  0E4C  3000               	movlw	0
  4882  0E4D  00CA               	movwf	___fldiv@b+2
  4883  0E4E  3000               	movlw	0
  4884  0E4F  00C9               	movwf	___fldiv@b+1
  4885  0E50  3000               	movlw	0
  4886  0E51  00C8               	movwf	___fldiv@b
  4887  0E52                     l1911:
  4888  0E52  0847               	movf	___fldiv@a+3,w
  4889  0E53  3980               	andlw	128
  4890  0E54  00CC               	movwf	??___fldiv
  4891  0E55  084C               	movf	??___fldiv,w
  4892  0E56  06D5               	xorwf	___fldiv@sign,f
  4893  0E57                     l1913:
  4894  0E57  0847               	movf	___fldiv@a+3,w
  4895  0E58  00CC               	movwf	??___fldiv
  4896  0E59  074C               	addwf	??___fldiv,w
  4897  0E5A  00CD               	movwf	??___fldiv+1
  4898  0E5B  084D               	movf	??___fldiv+1,w
  4899  0E5C  00DD               	movwf	___fldiv@aexp
  4900  0E5D                     l1915:
  4901  0E5D  1FC6               	btfss	___fldiv@a+2,7
  4902  0E5E  2E60               	goto	u1971
  4903  0E5F  2E61               	goto	u1970
  4904  0E60                     u1971:
  4905  0E60  2E62               	goto	l1919
  4906  0E61                     u1970:
  4907  0E61                     l1917:
  4908  0E61  145D               	bsf	___fldiv@aexp,0
  4909  0E62                     l1919:
  4910  0E62  085D               	movf	___fldiv@aexp,w
  4911  0E63  1903               	btfsc	3,2
  4912  0E64  2E66               	goto	u1981
  4913  0E65  2E67               	goto	u1980
  4914  0E66                     u1981:
  4915  0E66  2E77               	goto	l1929
  4916  0E67                     u1980:
  4917  0E67                     l1921:
  4918  0E67  0A5D               	incf	___fldiv@aexp,w
  4919  0E68  1D03               	btfss	3,2
  4920  0E69  2E6B               	goto	u1991
  4921  0E6A  2E6C               	goto	u1990
  4922  0E6B                     u1991:
  4923  0E6B  2E74               	goto	l1925
  4924  0E6C                     u1990:
  4925  0E6C                     l1923:
  4926  0E6C  3000               	movlw	0
  4927  0E6D  00C7               	movwf	___fldiv@a+3
  4928  0E6E  3000               	movlw	0
  4929  0E6F  00C6               	movwf	___fldiv@a+2
  4930  0E70  3000               	movlw	0
  4931  0E71  00C5               	movwf	___fldiv@a+1
  4932  0E72  3000               	movlw	0
  4933  0E73  00C4               	movwf	___fldiv@a
  4934  0E74                     l1925:
  4935  0E74  17C6               	bsf	___fldiv@a+2,7
  4936  0E75                     l1927:
  4937  0E75  01C7               	clrf	___fldiv@a+3
  4938  0E76  2E7F               	goto	l623
  4939  0E77                     l1929:
  4940  0E77  3000               	movlw	0
  4941  0E78  00C7               	movwf	___fldiv@a+3
  4942  0E79  3000               	movlw	0
  4943  0E7A  00C6               	movwf	___fldiv@a+2
  4944  0E7B  3000               	movlw	0
  4945  0E7C  00C5               	movwf	___fldiv@a+1
  4946  0E7D  3000               	movlw	0
  4947  0E7E  00C4               	movwf	___fldiv@a
  4948  0E7F                     l623:
  4949  0E7F  0847               	movf	___fldiv@a+3,w
  4950  0E80  0446               	iorwf	___fldiv@a+2,w
  4951  0E81  0445               	iorwf	___fldiv@a+1,w
  4952  0E82  0444               	iorwf	___fldiv@a,w
  4953  0E83  1D03               	skipz
  4954  0E84  2E86               	goto	u2001
  4955  0E85  2E87               	goto	u2000
  4956  0E86                     u2001:
  4957  0E86  2EA0               	goto	l1939
  4958  0E87                     u2000:
  4959  0E87                     l1931:
  4960  0E87  3000               	movlw	0
  4961  0E88  00CB               	movwf	___fldiv@b+3
  4962  0E89  3000               	movlw	0
  4963  0E8A  00CA               	movwf	___fldiv@b+2
  4964  0E8B  3000               	movlw	0
  4965  0E8C  00C9               	movwf	___fldiv@b+1
  4966  0E8D  3000               	movlw	0
  4967  0E8E  00C8               	movwf	___fldiv@b
  4968  0E8F  3080               	movlw	128
  4969  0E90  04CA               	iorwf	___fldiv@b+2,f
  4970  0E91  307F               	movlw	127
  4971  0E92  04CB               	iorwf	___fldiv@b+3,f
  4972  0E93                     l1933:
  4973  0E93  0855               	movf	___fldiv@sign,w
  4974  0E94  00CC               	movwf	??___fldiv
  4975  0E95  084C               	movf	??___fldiv,w
  4976  0E96  04CB               	iorwf	___fldiv@b+3,f
  4977  0E97                     l1935:
  4978  0E97  084B               	movf	___fldiv@b+3,w
  4979  0E98  00C7               	movwf	?___fldiv+3
  4980  0E99  084A               	movf	___fldiv@b+2,w
  4981  0E9A  00C6               	movwf	?___fldiv+2
  4982  0E9B  0849               	movf	___fldiv@b+1,w
  4983  0E9C  00C5               	movwf	?___fldiv+1
  4984  0E9D  0848               	movf	___fldiv@b,w
  4985  0E9E  00C4               	movwf	?___fldiv
  4986  0E9F  2FFF               	goto	l625
  4987  0EA0                     l1939:
  4988  0EA0  085C               	movf	___fldiv@bexp,w
  4989  0EA1  1D03               	btfss	3,2
  4990  0EA2  2EA4               	goto	u2011
  4991  0EA3  2EA5               	goto	u2010
  4992  0EA4                     u2011:
  4993  0EA4  2EAE               	goto	l1945
  4994  0EA5                     u2010:
  4995  0EA5                     l1941:
  4996  0EA5  3000               	movlw	0
  4997  0EA6  00C7               	movwf	?___fldiv+3
  4998  0EA7  3000               	movlw	0
  4999  0EA8  00C6               	movwf	?___fldiv+2
  5000  0EA9  3000               	movlw	0
  5001  0EAA  00C5               	movwf	?___fldiv+1
  5002  0EAB  3000               	movlw	0
  5003  0EAC  00C4               	movwf	?___fldiv
  5004  0EAD  2FFF               	goto	l625
  5005  0EAE                     l1945:
  5006  0EAE  085C               	movf	___fldiv@bexp,w
  5007  0EAF  00CC               	movwf	??___fldiv
  5008  0EB0  01CD               	clrf	??___fldiv+1
  5009  0EB1  084D               	movf	??___fldiv+1,w
  5010  0EB2  00CF               	movwf	??___fldiv+3
  5011  0EB3  085D               	movf	___fldiv@aexp,w
  5012  0EB4  024C               	subwf	??___fldiv,w
  5013  0EB5  00CE               	movwf	??___fldiv+2
  5014  0EB6  1C03               	skipc
  5015  0EB7  03CF               	decf	??___fldiv+3,f
  5016  0EB8  084E               	movf	??___fldiv+2,w
  5017  0EB9  3E7F               	addlw	127
  5018  0EBA  00D6               	movwf	___fldiv@new_exp
  5019  0EBB  084F               	movf	??___fldiv+3,w
  5020  0EBC  1803               	skipnc
  5021  0EBD  3E01               	addlw	1
  5022  0EBE  3E00               	addlw	0
  5023  0EBF  00D7               	movwf	___fldiv@new_exp+1
  5024  0EC0                     l1947:
  5025  0EC0  084B               	movf	___fldiv@b+3,w
  5026  0EC1  00D4               	movwf	___fldiv@rem+3
  5027  0EC2  084A               	movf	___fldiv@b+2,w
  5028  0EC3  00D3               	movwf	___fldiv@rem+2
  5029  0EC4  0849               	movf	___fldiv@b+1,w
  5030  0EC5  00D2               	movwf	___fldiv@rem+1
  5031  0EC6  0848               	movf	___fldiv@b,w
  5032  0EC7  00D1               	movwf	___fldiv@rem
  5033  0EC8                     l1949:
  5034  0EC8  3000               	movlw	0
  5035  0EC9  00CB               	movwf	___fldiv@b+3
  5036  0ECA  3000               	movlw	0
  5037  0ECB  00CA               	movwf	___fldiv@b+2
  5038  0ECC  3000               	movlw	0
  5039  0ECD  00C9               	movwf	___fldiv@b+1
  5040  0ECE  3000               	movlw	0
  5041  0ECF  00C8               	movwf	___fldiv@b
  5042  0ED0                     l1951:
  5043  0ED0  3000               	movlw	0
  5044  0ED1  00DB               	movwf	___fldiv@grs+3
  5045  0ED2  3000               	movlw	0
  5046  0ED3  00DA               	movwf	___fldiv@grs+2
  5047  0ED4  3000               	movlw	0
  5048  0ED5  00D9               	movwf	___fldiv@grs+1
  5049  0ED6  3000               	movlw	0
  5050  0ED7  00D8               	movwf	___fldiv@grs
  5051  0ED8                     l1953:
  5052  0ED8  01DD               	clrf	___fldiv@aexp
  5053  0ED9  2F24               	goto	l1973
  5054  0EDA                     l1955:
  5055  0EDA  085D               	movf	___fldiv@aexp,w
  5056  0EDB  1903               	btfsc	3,2
  5057  0EDC  2EDE               	goto	u2021
  5058  0EDD  2EDF               	goto	u2020
  5059  0EDE                     u2021:
  5060  0EDE  2EFF               	goto	l1965
  5061  0EDF                     u2020:
  5062  0EDF                     l1957:
  5063  0EDF  3001               	movlw	1
  5064  0EE0  00CC               	movwf	??___fldiv
  5065  0EE1                     u2035:
  5066  0EE1  1003               	clrc
  5067  0EE2  0DD1               	rlf	___fldiv@rem,f
  5068  0EE3  0DD2               	rlf	___fldiv@rem+1,f
  5069  0EE4  0DD3               	rlf	___fldiv@rem+2,f
  5070  0EE5  0DD4               	rlf	___fldiv@rem+3,f
  5071  0EE6  0BCC               	decfsz	??___fldiv,f
  5072  0EE7  2EE1               	goto	u2035
  5073  0EE8  3001               	movlw	1
  5074  0EE9  00CC               	movwf	??___fldiv
  5075  0EEA                     u2045:
  5076  0EEA  1003               	clrc
  5077  0EEB  0DC8               	rlf	___fldiv@b,f
  5078  0EEC  0DC9               	rlf	___fldiv@b+1,f
  5079  0EED  0DCA               	rlf	___fldiv@b+2,f
  5080  0EEE  0DCB               	rlf	___fldiv@b+3,f
  5081  0EEF  0BCC               	decfsz	??___fldiv,f
  5082  0EF0  2EEA               	goto	u2045
  5083  0EF1                     l1959:
  5084  0EF1  1FDB               	btfss	___fldiv@grs+3,7
  5085  0EF2  2EF4               	goto	u2051
  5086  0EF3  2EF5               	goto	u2050
  5087  0EF4                     u2051:
  5088  0EF4  2EF6               	goto	l1963
  5089  0EF5                     u2050:
  5090  0EF5                     l1961:
  5091  0EF5  1448               	bsf	___fldiv@b,0
  5092  0EF6                     l1963:
  5093  0EF6  3001               	movlw	1
  5094  0EF7  00CC               	movwf	??___fldiv
  5095  0EF8                     u2065:
  5096  0EF8  1003               	clrc
  5097  0EF9  0DD8               	rlf	___fldiv@grs,f
  5098  0EFA  0DD9               	rlf	___fldiv@grs+1,f
  5099  0EFB  0DDA               	rlf	___fldiv@grs+2,f
  5100  0EFC  0DDB               	rlf	___fldiv@grs+3,f
  5101  0EFD  0BCC               	decfsz	??___fldiv,f
  5102  0EFE  2EF8               	goto	u2065
  5103  0EFF                     l1965:
  5104  0EFF  0847               	movf	___fldiv@a+3,w
  5105  0F00  0254               	subwf	___fldiv@rem+3,w
  5106  0F01  1D03               	skipz
  5107  0F02  2F0D               	goto	u2075
  5108  0F03  0846               	movf	___fldiv@a+2,w
  5109  0F04  0253               	subwf	___fldiv@rem+2,w
  5110  0F05  1D03               	skipz
  5111  0F06  2F0D               	goto	u2075
  5112  0F07  0845               	movf	___fldiv@a+1,w
  5113  0F08  0252               	subwf	___fldiv@rem+1,w
  5114  0F09  1D03               	skipz
  5115  0F0A  2F0D               	goto	u2075
  5116  0F0B  0844               	movf	___fldiv@a,w
  5117  0F0C  0251               	subwf	___fldiv@rem,w
  5118  0F0D                     u2075:
  5119  0F0D  1C03               	skipc
  5120  0F0E  2F10               	goto	u2071
  5121  0F0F  2F11               	goto	u2070
  5122  0F10                     u2071:
  5123  0F10  2F20               	goto	l1971
  5124  0F11                     u2070:
  5125  0F11                     l1967:
  5126  0F11  175B               	bsf	___fldiv@grs+3,6
  5127  0F12                     l1969:
  5128  0F12  0844               	movf	___fldiv@a,w
  5129  0F13  02D1               	subwf	___fldiv@rem,f
  5130  0F14  0845               	movf	___fldiv@a+1,w
  5131  0F15  1C03               	skipc
  5132  0F16  0F45               	incfsz	___fldiv@a+1,w
  5133  0F17  02D2               	subwf	___fldiv@rem+1,f
  5134  0F18  0846               	movf	___fldiv@a+2,w
  5135  0F19  1C03               	skipc
  5136  0F1A  0F46               	incfsz	___fldiv@a+2,w
  5137  0F1B  02D3               	subwf	___fldiv@rem+2,f
  5138  0F1C  0847               	movf	___fldiv@a+3,w
  5139  0F1D  1C03               	skipc
  5140  0F1E  0F47               	incfsz	___fldiv@a+3,w
  5141  0F1F  02D4               	subwf	___fldiv@rem+3,f
  5142  0F20                     l1971:
  5143  0F20  3001               	movlw	1
  5144  0F21  00CC               	movwf	??___fldiv
  5145  0F22  084C               	movf	??___fldiv,w
  5146  0F23  07DD               	addwf	___fldiv@aexp,f
  5147  0F24                     l1973:
  5148  0F24  301A               	movlw	26
  5149  0F25  025D               	subwf	___fldiv@aexp,w
  5150  0F26  1C03               	skipc
  5151  0F27  2F29               	goto	u2081
  5152  0F28  2F2A               	goto	u2080
  5153  0F29                     u2081:
  5154  0F29  2EDA               	goto	l1955
  5155  0F2A                     u2080:
  5156  0F2A                     l1975:
  5157  0F2A  0854               	movf	___fldiv@rem+3,w
  5158  0F2B  0453               	iorwf	___fldiv@rem+2,w
  5159  0F2C  0452               	iorwf	___fldiv@rem+1,w
  5160  0F2D  0451               	iorwf	___fldiv@rem,w
  5161  0F2E  1903               	skipnz
  5162  0F2F  2F31               	goto	u2091
  5163  0F30  2F32               	goto	u2090
  5164  0F31                     u2091:
  5165  0F31  2F51               	goto	l1989
  5166  0F32                     u2090:
  5167  0F32                     l1977:
  5168  0F32  1458               	bsf	___fldiv@grs,0
  5169  0F33  2F51               	goto	l1989
  5170  0F34                     l1979:
  5171  0F34  3001               	movlw	1
  5172  0F35  00CC               	movwf	??___fldiv
  5173  0F36                     u2105:
  5174  0F36  1003               	clrc
  5175  0F37  0DC8               	rlf	___fldiv@b,f
  5176  0F38  0DC9               	rlf	___fldiv@b+1,f
  5177  0F39  0DCA               	rlf	___fldiv@b+2,f
  5178  0F3A  0DCB               	rlf	___fldiv@b+3,f
  5179  0F3B  0BCC               	decfsz	??___fldiv,f
  5180  0F3C  2F36               	goto	u2105
  5181  0F3D                     l1981:
  5182  0F3D  1FDB               	btfss	___fldiv@grs+3,7
  5183  0F3E  2F40               	goto	u2111
  5184  0F3F  2F41               	goto	u2110
  5185  0F40                     u2111:
  5186  0F40  2F42               	goto	l1985
  5187  0F41                     u2110:
  5188  0F41                     l1983:
  5189  0F41  1448               	bsf	___fldiv@b,0
  5190  0F42                     l1985:
  5191  0F42  3001               	movlw	1
  5192  0F43  00CC               	movwf	??___fldiv
  5193  0F44                     u2125:
  5194  0F44  1003               	clrc
  5195  0F45  0DD8               	rlf	___fldiv@grs,f
  5196  0F46  0DD9               	rlf	___fldiv@grs+1,f
  5197  0F47  0DDA               	rlf	___fldiv@grs+2,f
  5198  0F48  0DDB               	rlf	___fldiv@grs+3,f
  5199  0F49  0BCC               	decfsz	??___fldiv,f
  5200  0F4A  2F44               	goto	u2125
  5201  0F4B                     l1987:
  5202  0F4B  30FF               	movlw	255
  5203  0F4C  07D6               	addwf	___fldiv@new_exp,f
  5204  0F4D  1803               	skipnc
  5205  0F4E  0AD7               	incf	___fldiv@new_exp+1,f
  5206  0F4F  30FF               	movlw	255
  5207  0F50  07D7               	addwf	___fldiv@new_exp+1,f
  5208  0F51                     l1989:
  5209  0F51  1FCA               	btfss	___fldiv@b+2,7
  5210  0F52  2F54               	goto	u2131
  5211  0F53  2F55               	goto	u2130
  5212  0F54                     u2131:
  5213  0F54  2F34               	goto	l1979
  5214  0F55                     u2130:
  5215  0F55                     l1991:
  5216  0F55  01DD               	clrf	___fldiv@aexp
  5217  0F56                     l1993:
  5218  0F56  1FDB               	btfss	___fldiv@grs+3,7
  5219  0F57  2F59               	goto	u2141
  5220  0F58  2F5A               	goto	u2140
  5221  0F59                     u2141:
  5222  0F59  2F76               	goto	l2001
  5223  0F5A                     u2140:
  5224  0F5A                     l1995:
  5225  0F5A  30FF               	movlw	255
  5226  0F5B  0558               	andwf	___fldiv@grs,w
  5227  0F5C  00CC               	movwf	??___fldiv
  5228  0F5D  30FF               	movlw	255
  5229  0F5E  0559               	andwf	___fldiv@grs+1,w
  5230  0F5F  00CD               	movwf	??___fldiv+1
  5231  0F60  30FF               	movlw	255
  5232  0F61  055A               	andwf	___fldiv@grs+2,w
  5233  0F62  00CE               	movwf	??___fldiv+2
  5234  0F63  307F               	movlw	127
  5235  0F64  055B               	andwf	___fldiv@grs+3,w
  5236  0F65  00CF               	movwf	??___fldiv+3
  5237  0F66  084F               	movf	??___fldiv+3,w
  5238  0F67  044E               	iorwf	??___fldiv+2,w
  5239  0F68  044D               	iorwf	??___fldiv+1,w
  5240  0F69  044C               	iorwf	??___fldiv,w
  5241  0F6A  1903               	skipnz
  5242  0F6B  2F6D               	goto	u2151
  5243  0F6C  2F6E               	goto	u2150
  5244  0F6D                     u2151:
  5245  0F6D  2F71               	goto	l639
  5246  0F6E                     u2150:
  5247  0F6E                     l1997:
  5248  0F6E  01DD               	clrf	___fldiv@aexp
  5249  0F6F  0ADD               	incf	___fldiv@aexp,f
  5250  0F70  2F76               	goto	l2001
  5251  0F71                     l639:
  5252  0F71  1C48               	btfss	___fldiv@b,0
  5253  0F72  2F74               	goto	u2161
  5254  0F73  2F75               	goto	u2160
  5255  0F74                     u2161:
  5256  0F74  2F76               	goto	l2001
  5257  0F75                     u2160:
  5258  0F75  2F6E               	goto	l1997
  5259  0F76                     l2001:
  5260  0F76  085D               	movf	___fldiv@aexp,w
  5261  0F77  1903               	btfsc	3,2
  5262  0F78  2F7A               	goto	u2171
  5263  0F79  2F7B               	goto	u2170
  5264  0F7A                     u2171:
  5265  0F7A  2FAC               	goto	l2011
  5266  0F7B                     u2170:
  5267  0F7B                     l2003:
  5268  0F7B  3001               	movlw	1
  5269  0F7C  07C8               	addwf	___fldiv@b,f
  5270  0F7D  3000               	movlw	0
  5271  0F7E  1803               	skipnc
  5272  0F7F  3001               	movlw	1
  5273  0F80  07C9               	addwf	___fldiv@b+1,f
  5274  0F81  3000               	movlw	0
  5275  0F82  1803               	skipnc
  5276  0F83  3001               	movlw	1
  5277  0F84  07CA               	addwf	___fldiv@b+2,f
  5278  0F85  3000               	movlw	0
  5279  0F86  1803               	skipnc
  5280  0F87  3001               	movlw	1
  5281  0F88  07CB               	addwf	___fldiv@b+3,f
  5282  0F89                     l2005:
  5283  0F89  1C4B               	btfss	___fldiv@b+3,0
  5284  0F8A  2F8C               	goto	u2181
  5285  0F8B  2F8D               	goto	u2180
  5286  0F8C                     u2181:
  5287  0F8C  2FAC               	goto	l2011
  5288  0F8D                     u2180:
  5289  0F8D                     l2007:
  5290  0F8D  0848               	movf	___fldiv@b,w
  5291  0F8E  00CC               	movwf	??___fldiv
  5292  0F8F  0849               	movf	___fldiv@b+1,w
  5293  0F90  00CD               	movwf	??___fldiv+1
  5294  0F91  084A               	movf	___fldiv@b+2,w
  5295  0F92  00CE               	movwf	??___fldiv+2
  5296  0F93  084B               	movf	___fldiv@b+3,w
  5297  0F94  00CF               	movwf	??___fldiv+3
  5298  0F95  3001               	movlw	1
  5299  0F96  00D0               	movwf	??___fldiv+4
  5300  0F97                     u2195:
  5301  0F97  0D4F               	rlf	??___fldiv+3,w
  5302  0F98  0CCF               	rrf	??___fldiv+3,f
  5303  0F99  0CCE               	rrf	??___fldiv+2,f
  5304  0F9A  0CCD               	rrf	??___fldiv+1,f
  5305  0F9B  0CCC               	rrf	??___fldiv,f
  5306  0F9C                     u2190:
  5307  0F9C  0BD0               	decfsz	??___fldiv+4,f
  5308  0F9D  2F97               	goto	u2195
  5309  0F9E  084F               	movf	??___fldiv+3,w
  5310  0F9F  00CB               	movwf	___fldiv@b+3
  5311  0FA0  084E               	movf	??___fldiv+2,w
  5312  0FA1  00CA               	movwf	___fldiv@b+2
  5313  0FA2  084D               	movf	??___fldiv+1,w
  5314  0FA3  00C9               	movwf	___fldiv@b+1
  5315  0FA4  084C               	movf	??___fldiv,w
  5316  0FA5  00C8               	movwf	___fldiv@b
  5317  0FA6                     l2009:
  5318  0FA6  3001               	movlw	1
  5319  0FA7  07D6               	addwf	___fldiv@new_exp,f
  5320  0FA8  1803               	skipnc
  5321  0FA9  0AD7               	incf	___fldiv@new_exp+1,f
  5322  0FAA  3000               	movlw	0
  5323  0FAB  07D7               	addwf	___fldiv@new_exp+1,f
  5324  0FAC                     l2011:
  5325  0FAC  0857               	movf	___fldiv@new_exp+1,w
  5326  0FAD  3A80               	xorlw	128
  5327  0FAE  00FF               	movwf	btemp+1
  5328  0FAF  3080               	movlw	128
  5329  0FB0  027F               	subwf	btemp+1,w
  5330  0FB1  1D03               	skipz
  5331  0FB2  2FB5               	goto	u2205
  5332  0FB3  30FF               	movlw	255
  5333  0FB4  0256               	subwf	___fldiv@new_exp,w
  5334  0FB5                     u2205:
  5335  0FB5  1C03               	skipc
  5336  0FB6  2FB8               	goto	u2201
  5337  0FB7  2FB9               	goto	u2200
  5338  0FB8                     u2201:
  5339  0FB8  2FC7               	goto	l2015
  5340  0FB9                     u2200:
  5341  0FB9                     l2013:
  5342  0FB9  30FF               	movlw	255
  5343  0FBA  1283               	bcf	3,5	;RP0=0, select bank0
  5344  0FBB  1303               	bcf	3,6	;RP1=0, select bank0
  5345  0FBC  00D6               	movwf	___fldiv@new_exp
  5346  0FBD  3000               	movlw	0
  5347  0FBE  00D7               	movwf	___fldiv@new_exp+1
  5348  0FBF  3000               	movlw	0
  5349  0FC0  00CB               	movwf	___fldiv@b+3
  5350  0FC1  3000               	movlw	0
  5351  0FC2  00CA               	movwf	___fldiv@b+2
  5352  0FC3  3000               	movlw	0
  5353  0FC4  00C9               	movwf	___fldiv@b+1
  5354  0FC5  3000               	movlw	0
  5355  0FC6  00C8               	movwf	___fldiv@b
  5356  0FC7                     l2015:
  5357  0FC7  1283               	bcf	3,5	;RP0=0, select bank0
  5358  0FC8  1303               	bcf	3,6	;RP1=0, select bank0
  5359  0FC9  0857               	movf	___fldiv@new_exp+1,w
  5360  0FCA  3A80               	xorlw	128
  5361  0FCB  00FF               	movwf	btemp+1
  5362  0FCC  3080               	movlw	128
  5363  0FCD  027F               	subwf	btemp+1,w
  5364  0FCE  1D03               	skipz
  5365  0FCF  2FD2               	goto	u2215
  5366  0FD0  3001               	movlw	1
  5367  0FD1  0256               	subwf	___fldiv@new_exp,w
  5368  0FD2                     u2215:
  5369  0FD2  1803               	skipnc
  5370  0FD3  2FD5               	goto	u2211
  5371  0FD4  2FD6               	goto	u2210
  5372  0FD5                     u2211:
  5373  0FD5  2FE3               	goto	l645
  5374  0FD6                     u2210:
  5375  0FD6                     l2017:
  5376  0FD6  1283               	bcf	3,5	;RP0=0, select bank0
  5377  0FD7  1303               	bcf	3,6	;RP1=0, select bank0
  5378  0FD8  01D6               	clrf	___fldiv@new_exp
  5379  0FD9  01D7               	clrf	___fldiv@new_exp+1
  5380  0FDA                     l2019:
  5381  0FDA  3000               	movlw	0
  5382  0FDB  00CB               	movwf	___fldiv@b+3
  5383  0FDC  3000               	movlw	0
  5384  0FDD  00CA               	movwf	___fldiv@b+2
  5385  0FDE  3000               	movlw	0
  5386  0FDF  00C9               	movwf	___fldiv@b+1
  5387  0FE0  3000               	movlw	0
  5388  0FE1  00C8               	movwf	___fldiv@b
  5389  0FE2                     l2021:
  5390  0FE2  01D5               	clrf	___fldiv@sign
  5391  0FE3                     l645:
  5392  0FE3  1283               	bcf	3,5	;RP0=0, select bank0
  5393  0FE4  1303               	bcf	3,6	;RP1=0, select bank0
  5394  0FE5  0856               	movf	___fldiv@new_exp,w
  5395  0FE6  00CC               	movwf	??___fldiv
  5396  0FE7  084C               	movf	??___fldiv,w
  5397  0FE8  00DC               	movwf	___fldiv@bexp
  5398  0FE9                     l2023:
  5399  0FE9  1C5C               	btfss	___fldiv@bexp,0
  5400  0FEA  2FEC               	goto	u2221
  5401  0FEB  2FED               	goto	u2220
  5402  0FEC                     u2221:
  5403  0FEC  2FEF               	goto	l2027
  5404  0FED                     u2220:
  5405  0FED                     l2025:
  5406  0FED  17CA               	bsf	___fldiv@b+2,7
  5407  0FEE  2FF3               	goto	l647
  5408  0FEF                     l2027:
  5409  0FEF  307F               	movlw	127
  5410  0FF0  00CC               	movwf	??___fldiv
  5411  0FF1  084C               	movf	??___fldiv,w
  5412  0FF2  05CA               	andwf	___fldiv@b+2,f
  5413  0FF3                     l647:
  5414  0FF3  085C               	movf	___fldiv@bexp,w
  5415  0FF4  00CC               	movwf	??___fldiv
  5416  0FF5  1003               	clrc
  5417  0FF6  0C4C               	rrf	??___fldiv,w
  5418  0FF7  00CD               	movwf	??___fldiv+1
  5419  0FF8  084D               	movf	??___fldiv+1,w
  5420  0FF9  00CB               	movwf	___fldiv@b+3
  5421  0FFA  0855               	movf	___fldiv@sign,w
  5422  0FFB  00CC               	movwf	??___fldiv
  5423  0FFC  084C               	movf	??___fldiv,w
  5424  0FFD  04CB               	iorwf	___fldiv@b+3,f
  5425  0FFE  2E97               	goto	l1935
  5426  0FFF                     l625:
  5427  0FFF  0008               	return
  5428  1000                     __end_of___fldiv:
  5429                           
  5430                           	psect	text20
  5431  0CED                     __ptext20:	
  5432 ;; *************** function ___awmod *****************
  5433 ;; Defined at:
  5434 ;;		line 5 in file "C:\Program Files\Microchip\xc8\v2.31\pic\sources\c90\common\awmod.c"
  5435 ;; Parameters:    Size  Location     Type
  5436 ;;  divisor         2    4[BANK0 ] int 
  5437 ;;  dividend        2    6[BANK0 ] int 
  5438 ;; Auto vars:     Size  Location     Type
  5439 ;;  sign            1   10[BANK0 ] unsigned char 
  5440 ;;  counter         1    9[BANK0 ] unsigned char 
  5441 ;; Return value:  Size  Location     Type
  5442 ;;                  2    4[BANK0 ] int 
  5443 ;; Registers used:
  5444 ;;		wreg, status,2, status,0
  5445 ;; Tracked objects:
  5446 ;;		On entry : 0/0
  5447 ;;		On exit  : 0/0
  5448 ;;		Unchanged: 0/0
  5449 ;; Data sizes:     COMMON   BANK0   BANK1   BANK3   BANK2
  5450 ;;      Params:         0       4       0       0       0
  5451 ;;      Locals:         0       2       0       0       0
  5452 ;;      Temps:          0       1       0       0       0
  5453 ;;      Totals:         0       7       0       0       0
  5454 ;;Total ram usage:        7 bytes
  5455 ;; Hardware stack levels used:    1
  5456 ;; Hardware stack levels required when called:    2
  5457 ;; This function calls:
  5458 ;;		Nothing
  5459 ;; This function is called by:
  5460 ;;		_ADC
  5461 ;; This function uses a non-reentrant model
  5462 ;;
  5463                           
  5464                           
  5465                           ;psect for function ___awmod
  5466  0CED                     ___awmod:
  5467  0CED                     l2459:	
  5468                           ;incstack = 0
  5469                           ; Regs used in ___awmod: [wreg+status,2+status,0]
  5470                           
  5471  0CED  1283               	bcf	3,5	;RP0=0, select bank0
  5472  0CEE  1303               	bcf	3,6	;RP1=0, select bank0
  5473  0CEF  01AA               	clrf	___awmod@sign
  5474  0CF0                     l2461:
  5475  0CF0  1FA7               	btfss	___awmod@dividend+1,7
  5476  0CF1  2CF3               	goto	u2951
  5477  0CF2  2CF4               	goto	u2950
  5478  0CF3                     u2951:
  5479  0CF3  2CFB               	goto	l2467
  5480  0CF4                     u2950:
  5481  0CF4                     l2463:
  5482  0CF4  09A6               	comf	___awmod@dividend,f
  5483  0CF5  09A7               	comf	___awmod@dividend+1,f
  5484  0CF6  0AA6               	incf	___awmod@dividend,f
  5485  0CF7  1903               	skipnz
  5486  0CF8  0AA7               	incf	___awmod@dividend+1,f
  5487  0CF9                     l2465:
  5488  0CF9  01AA               	clrf	___awmod@sign
  5489  0CFA  0AAA               	incf	___awmod@sign,f
  5490  0CFB                     l2467:
  5491  0CFB  1FA5               	btfss	___awmod@divisor+1,7
  5492  0CFC  2CFE               	goto	u2961
  5493  0CFD  2CFF               	goto	u2960
  5494  0CFE                     u2961:
  5495  0CFE  2D04               	goto	l2471
  5496  0CFF                     u2960:
  5497  0CFF                     l2469:
  5498  0CFF  09A4               	comf	___awmod@divisor,f
  5499  0D00  09A5               	comf	___awmod@divisor+1,f
  5500  0D01  0AA4               	incf	___awmod@divisor,f
  5501  0D02  1903               	skipnz
  5502  0D03  0AA5               	incf	___awmod@divisor+1,f
  5503  0D04                     l2471:
  5504  0D04  0824               	movf	___awmod@divisor,w
  5505  0D05  0425               	iorwf	___awmod@divisor+1,w
  5506  0D06  1903               	btfsc	3,2
  5507  0D07  2D09               	goto	u2971
  5508  0D08  2D0A               	goto	u2970
  5509  0D09                     u2971:
  5510  0D09  2D39               	goto	l2489
  5511  0D0A                     u2970:
  5512  0D0A                     l2473:
  5513  0D0A  01A9               	clrf	___awmod@counter
  5514  0D0B  0AA9               	incf	___awmod@counter,f
  5515  0D0C  2D18               	goto	l2479
  5516  0D0D                     l2475:
  5517  0D0D  3001               	movlw	1
  5518  0D0E                     u2985:
  5519  0D0E  1003               	clrc
  5520  0D0F  0DA4               	rlf	___awmod@divisor,f
  5521  0D10  0DA5               	rlf	___awmod@divisor+1,f
  5522  0D11  3EFF               	addlw	-1
  5523  0D12  1D03               	skipz
  5524  0D13  2D0E               	goto	u2985
  5525  0D14                     l2477:
  5526  0D14  3001               	movlw	1
  5527  0D15  00A8               	movwf	??___awmod
  5528  0D16  0828               	movf	??___awmod,w
  5529  0D17  07A9               	addwf	___awmod@counter,f
  5530  0D18                     l2479:
  5531  0D18  1FA5               	btfss	___awmod@divisor+1,7
  5532  0D19  2D1B               	goto	u2991
  5533  0D1A  2D1C               	goto	u2990
  5534  0D1B                     u2991:
  5535  0D1B  2D0D               	goto	l2475
  5536  0D1C                     u2990:
  5537  0D1C                     l2481:
  5538  0D1C  0825               	movf	___awmod@divisor+1,w
  5539  0D1D  0227               	subwf	___awmod@dividend+1,w
  5540  0D1E  1D03               	skipz
  5541  0D1F  2D22               	goto	u3005
  5542  0D20  0824               	movf	___awmod@divisor,w
  5543  0D21  0226               	subwf	___awmod@dividend,w
  5544  0D22                     u3005:
  5545  0D22  1C03               	skipc
  5546  0D23  2D25               	goto	u3001
  5547  0D24  2D26               	goto	u3000
  5548  0D25                     u3001:
  5549  0D25  2D2C               	goto	l2485
  5550  0D26                     u3000:
  5551  0D26                     l2483:
  5552  0D26  0824               	movf	___awmod@divisor,w
  5553  0D27  02A6               	subwf	___awmod@dividend,f
  5554  0D28  0825               	movf	___awmod@divisor+1,w
  5555  0D29  1C03               	skipc
  5556  0D2A  03A7               	decf	___awmod@dividend+1,f
  5557  0D2B  02A7               	subwf	___awmod@dividend+1,f
  5558  0D2C                     l2485:
  5559  0D2C  3001               	movlw	1
  5560  0D2D                     u3015:
  5561  0D2D  1003               	clrc
  5562  0D2E  0CA5               	rrf	___awmod@divisor+1,f
  5563  0D2F  0CA4               	rrf	___awmod@divisor,f
  5564  0D30  3EFF               	addlw	-1
  5565  0D31  1D03               	skipz
  5566  0D32  2D2D               	goto	u3015
  5567  0D33                     l2487:
  5568  0D33  3001               	movlw	1
  5569  0D34  02A9               	subwf	___awmod@counter,f
  5570  0D35  1D03               	btfss	3,2
  5571  0D36  2D38               	goto	u3021
  5572  0D37  2D39               	goto	u3020
  5573  0D38                     u3021:
  5574  0D38  2D1C               	goto	l2481
  5575  0D39                     u3020:
  5576  0D39                     l2489:
  5577  0D39  082A               	movf	___awmod@sign,w
  5578  0D3A  1903               	btfsc	3,2
  5579  0D3B  2D3D               	goto	u3031
  5580  0D3C  2D3E               	goto	u3030
  5581  0D3D                     u3031:
  5582  0D3D  2D43               	goto	l2493
  5583  0D3E                     u3030:
  5584  0D3E                     l2491:
  5585  0D3E  09A6               	comf	___awmod@dividend,f
  5586  0D3F  09A7               	comf	___awmod@dividend+1,f
  5587  0D40  0AA6               	incf	___awmod@dividend,f
  5588  0D41  1903               	skipnz
  5589  0D42  0AA7               	incf	___awmod@dividend+1,f
  5590  0D43                     l2493:
  5591  0D43  0827               	movf	___awmod@dividend+1,w
  5592  0D44  00A5               	movwf	?___awmod+1
  5593  0D45  0826               	movf	___awmod@dividend,w
  5594  0D46  00A4               	movwf	?___awmod
  5595  0D47                     l440:
  5596  0D47  0008               	return
  5597  0D48                     __end_of___awmod:
  5598                           
  5599                           	psect	text21
  5600  0D48                     __ptext21:	
  5601 ;; *************** function ___awdiv *****************
  5602 ;; Defined at:
  5603 ;;		line 5 in file "C:\Program Files\Microchip\xc8\v2.31\pic\sources\c90\common\awdiv.c"
  5604 ;; Parameters:    Size  Location     Type
  5605 ;;  divisor         2    3[COMMON] int 
  5606 ;;  dividend        2    5[COMMON] int 
  5607 ;; Auto vars:     Size  Location     Type
  5608 ;;  quotient        2    2[BANK0 ] int 
  5609 ;;  sign            1    1[BANK0 ] unsigned char 
  5610 ;;  counter         1    0[BANK0 ] unsigned char 
  5611 ;; Return value:  Size  Location     Type
  5612 ;;                  2    3[COMMON] int 
  5613 ;; Registers used:
  5614 ;;		wreg, status,2, status,0
  5615 ;; Tracked objects:
  5616 ;;		On entry : 0/0
  5617 ;;		On exit  : 0/0
  5618 ;;		Unchanged: 0/0
  5619 ;; Data sizes:     COMMON   BANK0   BANK1   BANK3   BANK2
  5620 ;;      Params:         4       0       0       0       0
  5621 ;;      Locals:         0       4       0       0       0
  5622 ;;      Temps:          1       0       0       0       0
  5623 ;;      Totals:         5       4       0       0       0
  5624 ;;Total ram usage:        9 bytes
  5625 ;; Hardware stack levels used:    1
  5626 ;; Hardware stack levels required when called:    2
  5627 ;; This function calls:
  5628 ;;		Nothing
  5629 ;; This function is called by:
  5630 ;;		_ADC
  5631 ;; This function uses a non-reentrant model
  5632 ;;
  5633                           
  5634                           
  5635                           ;psect for function ___awdiv
  5636  0D48                     ___awdiv:
  5637  0D48                     l1773:	
  5638                           ;incstack = 0
  5639                           ; Regs used in ___awdiv: [wreg+status,2+status,0]
  5640                           
  5641  0D48  1283               	bcf	3,5	;RP0=0, select bank0
  5642  0D49  1303               	bcf	3,6	;RP1=0, select bank0
  5643  0D4A  01A1               	clrf	___awdiv@sign
  5644  0D4B                     l1775:
  5645  0D4B  1FF4               	btfss	___awdiv@divisor+1,7
  5646  0D4C  2D4E               	goto	u1651
  5647  0D4D  2D4F               	goto	u1650
  5648  0D4E                     u1651:
  5649  0D4E  2D56               	goto	l1781
  5650  0D4F                     u1650:
  5651  0D4F                     l1777:
  5652  0D4F  09F3               	comf	___awdiv@divisor,f
  5653  0D50  09F4               	comf	___awdiv@divisor+1,f
  5654  0D51  0AF3               	incf	___awdiv@divisor,f
  5655  0D52  1903               	skipnz
  5656  0D53  0AF4               	incf	___awdiv@divisor+1,f
  5657  0D54                     l1779:
  5658  0D54  01A1               	clrf	___awdiv@sign
  5659  0D55  0AA1               	incf	___awdiv@sign,f
  5660  0D56                     l1781:
  5661  0D56  1FF6               	btfss	___awdiv@dividend+1,7
  5662  0D57  2D59               	goto	u1661
  5663  0D58  2D5A               	goto	u1660
  5664  0D59                     u1661:
  5665  0D59  2D63               	goto	l1787
  5666  0D5A                     u1660:
  5667  0D5A                     l1783:
  5668  0D5A  09F5               	comf	___awdiv@dividend,f
  5669  0D5B  09F6               	comf	___awdiv@dividend+1,f
  5670  0D5C  0AF5               	incf	___awdiv@dividend,f
  5671  0D5D  1903               	skipnz
  5672  0D5E  0AF6               	incf	___awdiv@dividend+1,f
  5673  0D5F                     l1785:
  5674  0D5F  3001               	movlw	1
  5675  0D60  00F7               	movwf	??___awdiv
  5676  0D61  0877               	movf	??___awdiv,w
  5677  0D62  06A1               	xorwf	___awdiv@sign,f
  5678  0D63                     l1787:
  5679  0D63  01A2               	clrf	___awdiv@quotient
  5680  0D64  01A3               	clrf	___awdiv@quotient+1
  5681  0D65                     l1789:
  5682  0D65  0873               	movf	___awdiv@divisor,w
  5683  0D66  0474               	iorwf	___awdiv@divisor+1,w
  5684  0D67  1903               	btfsc	3,2
  5685  0D68  2D6A               	goto	u1671
  5686  0D69  2D6B               	goto	u1670
  5687  0D6A                     u1671:
  5688  0D6A  2DA2               	goto	l1809
  5689  0D6B                     u1670:
  5690  0D6B                     l1791:
  5691  0D6B  01A0               	clrf	___awdiv@counter
  5692  0D6C  0AA0               	incf	___awdiv@counter,f
  5693  0D6D  2D79               	goto	l1797
  5694  0D6E                     l1793:
  5695  0D6E  3001               	movlw	1
  5696  0D6F                     u1685:
  5697  0D6F  1003               	clrc
  5698  0D70  0DF3               	rlf	___awdiv@divisor,f
  5699  0D71  0DF4               	rlf	___awdiv@divisor+1,f
  5700  0D72  3EFF               	addlw	-1
  5701  0D73  1D03               	skipz
  5702  0D74  2D6F               	goto	u1685
  5703  0D75                     l1795:
  5704  0D75  3001               	movlw	1
  5705  0D76  00F7               	movwf	??___awdiv
  5706  0D77  0877               	movf	??___awdiv,w
  5707  0D78  07A0               	addwf	___awdiv@counter,f
  5708  0D79                     l1797:
  5709  0D79  1FF4               	btfss	___awdiv@divisor+1,7
  5710  0D7A  2D7C               	goto	u1691
  5711  0D7B  2D7D               	goto	u1690
  5712  0D7C                     u1691:
  5713  0D7C  2D6E               	goto	l1793
  5714  0D7D                     u1690:
  5715  0D7D                     l1799:
  5716  0D7D  3001               	movlw	1
  5717  0D7E                     u1705:
  5718  0D7E  1003               	clrc
  5719  0D7F  0DA2               	rlf	___awdiv@quotient,f
  5720  0D80  0DA3               	rlf	___awdiv@quotient+1,f
  5721  0D81  3EFF               	addlw	-1
  5722  0D82  1D03               	skipz
  5723  0D83  2D7E               	goto	u1705
  5724  0D84  0874               	movf	___awdiv@divisor+1,w
  5725  0D85  0276               	subwf	___awdiv@dividend+1,w
  5726  0D86  1D03               	skipz
  5727  0D87  2D8A               	goto	u1715
  5728  0D88  0873               	movf	___awdiv@divisor,w
  5729  0D89  0275               	subwf	___awdiv@dividend,w
  5730  0D8A                     u1715:
  5731  0D8A  1C03               	skipc
  5732  0D8B  2D8D               	goto	u1711
  5733  0D8C  2D8E               	goto	u1710
  5734  0D8D                     u1711:
  5735  0D8D  2D95               	goto	l1805
  5736  0D8E                     u1710:
  5737  0D8E                     l1801:
  5738  0D8E  0873               	movf	___awdiv@divisor,w
  5739  0D8F  02F5               	subwf	___awdiv@dividend,f
  5740  0D90  0874               	movf	___awdiv@divisor+1,w
  5741  0D91  1C03               	skipc
  5742  0D92  03F6               	decf	___awdiv@dividend+1,f
  5743  0D93  02F6               	subwf	___awdiv@dividend+1,f
  5744  0D94                     l1803:
  5745  0D94  1422               	bsf	___awdiv@quotient,0
  5746  0D95                     l1805:
  5747  0D95  3001               	movlw	1
  5748  0D96                     u1725:
  5749  0D96  1003               	clrc
  5750  0D97  0CF4               	rrf	___awdiv@divisor+1,f
  5751  0D98  0CF3               	rrf	___awdiv@divisor,f
  5752  0D99  3EFF               	addlw	-1
  5753  0D9A  1D03               	skipz
  5754  0D9B  2D96               	goto	u1725
  5755  0D9C                     l1807:
  5756  0D9C  3001               	movlw	1
  5757  0D9D  02A0               	subwf	___awdiv@counter,f
  5758  0D9E  1D03               	btfss	3,2
  5759  0D9F  2DA1               	goto	u1731
  5760  0DA0  2DA2               	goto	u1730
  5761  0DA1                     u1731:
  5762  0DA1  2D7D               	goto	l1799
  5763  0DA2                     u1730:
  5764  0DA2                     l1809:
  5765  0DA2  0821               	movf	___awdiv@sign,w
  5766  0DA3  1903               	btfsc	3,2
  5767  0DA4  2DA6               	goto	u1741
  5768  0DA5  2DA7               	goto	u1740
  5769  0DA6                     u1741:
  5770  0DA6  2DAC               	goto	l1813
  5771  0DA7                     u1740:
  5772  0DA7                     l1811:
  5773  0DA7  09A2               	comf	___awdiv@quotient,f
  5774  0DA8  09A3               	comf	___awdiv@quotient+1,f
  5775  0DA9  0AA2               	incf	___awdiv@quotient,f
  5776  0DAA  1903               	skipnz
  5777  0DAB  0AA3               	incf	___awdiv@quotient+1,f
  5778  0DAC                     l1813:
  5779  0DAC  0823               	movf	___awdiv@quotient+1,w
  5780  0DAD  00F4               	movwf	?___awdiv+1
  5781  0DAE  0822               	movf	___awdiv@quotient,w
  5782  0DAF  00F3               	movwf	?___awdiv
  5783  0DB0                     l427:
  5784  0DB0  0008               	return
  5785  0DB1                     __end_of___awdiv:
  5786                           
  5787                           	psect	text22
  5788  0AF1                     __ptext22:	
  5789 ;; *************** function _ISR *****************
  5790 ;; Defined at:
  5791 ;;		line 80 in file "adc.c"
  5792 ;; Parameters:    Size  Location     Type
  5793 ;;		None
  5794 ;; Auto vars:     Size  Location     Type
  5795 ;;		None
  5796 ;; Return value:  Size  Location     Type
  5797 ;;                  1    wreg      void 
  5798 ;; Registers used:
  5799 ;;		wreg, status,2, status,0, pclath, cstack
  5800 ;; Tracked objects:
  5801 ;;		On entry : 0/0
  5802 ;;		On exit  : 0/0
  5803 ;;		Unchanged: 0/0
  5804 ;; Data sizes:     COMMON   BANK0   BANK1   BANK3   BANK2
  5805 ;;      Params:         0       0       0       0       0
  5806 ;;      Locals:         0       0       0       0       0
  5807 ;;      Temps:          3       0       0       0       0
  5808 ;;      Totals:         3       0       0       0       0
  5809 ;;Total ram usage:        3 bytes
  5810 ;; Hardware stack levels used:    1
  5811 ;; Hardware stack levels required when called:    1
  5812 ;; This function calls:
  5813 ;;		_Counter
  5814 ;; This function is called by:
  5815 ;;		Interrupt level 1
  5816 ;; This function uses a non-reentrant model
  5817 ;;
  5818                           
  5819                           
  5820                           ;psect for function _ISR
  5821  0AF1                     _ISR:
  5822  0AF1                     i1l1587:
  5823                           
  5824                           ;adc.c: 81:     if (PIR1bits.RCIF == 1) {
  5825  0AF1  1283               	bcf	3,5	;RP0=0, select bank0
  5826  0AF2  1303               	bcf	3,6	;RP1=0, select bank0
  5827  0AF3  1E8C               	btfss	12,5	;volatile
  5828  0AF4  2AF6               	goto	u139_21
  5829  0AF5  2AF7               	goto	u139_20
  5830  0AF6                     u139_21:
  5831  0AF6  2B01               	goto	i1l173
  5832  0AF7                     u139_20:
  5833  0AF7                     i1l1589:
  5834                           
  5835                           ;adc.c: 82:         Lectura = RCREG;
  5836  0AF7  081A               	movf	26,w	;volatile
  5837  0AF8  00F0               	movwf	??_ISR
  5838  0AF9  0870               	movf	??_ISR,w
  5839  0AFA  00FA               	movwf	_Lectura
  5840  0AFB                     i1l1591:
  5841                           
  5842                           ;adc.c: 83:         PIR1bits.RCIF = 0;
  5843  0AFB  128C               	bcf	12,5	;volatile
  5844  0AFC                     i1l1593:
  5845                           
  5846                           ;adc.c: 84:         Counter();
  5847  0AFC  120A  158A  2327  120A  158A  	fcall	_Counter
  5848  0B01                     i1l173:
  5849  0B01  0872               	movf	??_ISR+2,w
  5850  0B02  008A               	movwf	10
  5851  0B03  0E71               	swapf	??_ISR+1,w
  5852  0B04  0083               	movwf	3
  5853  0B05  0EFE               	swapf	btemp,f
  5854  0B06  0E7E               	swapf	btemp,w
  5855  0B07  0009               	retfie
  5856  0B08                     __end_of_ISR:
  5857                           
  5858                           	psect	intentry
  5859  0004                     __pintentry:	
  5860                           ;incstack = 0
  5861                           ; Regs used in _ISR: [wreg+status,2+status,0+pclath+cstack]
  5862                           
  5863  0004                     interrupt_function:
  5864  007E                     saved_w	set	btemp
  5865  0004  00FE               	movwf	btemp
  5866  0005  0E03               	swapf	3,w
  5867  0006  00F1               	movwf	??_ISR+1
  5868  0007  080A               	movf	10,w
  5869  0008  00F2               	movwf	??_ISR+2
  5870  0009  120A  158A  2AF1   	ljmp	_ISR
  5871                           
  5872                           	psect	text23
  5873  0B27                     __ptext23:	
  5874 ;; *************** function _Counter *****************
  5875 ;; Defined at:
  5876 ;;		line 68 in file "adc.c"
  5877 ;; Parameters:    Size  Location     Type
  5878 ;;		None
  5879 ;; Auto vars:     Size  Location     Type
  5880 ;;		None
  5881 ;; Return value:  Size  Location     Type
  5882 ;;                  1    wreg      void 
  5883 ;; Registers used:
  5884 ;;		wreg, status,2, status,0
  5885 ;; Tracked objects:
  5886 ;;		On entry : 0/0
  5887 ;;		On exit  : 0/0
  5888 ;;		Unchanged: 0/0
  5889 ;; Data sizes:     COMMON   BANK0   BANK1   BANK3   BANK2
  5890 ;;      Params:         0       0       0       0       0
  5891 ;;      Locals:         0       0       0       0       0
  5892 ;;      Temps:          0       0       0       0       0
  5893 ;;      Totals:         0       0       0       0       0
  5894 ;;Total ram usage:        0 bytes
  5895 ;; Hardware stack levels used:    1
  5896 ;; This function calls:
  5897 ;;		Nothing
  5898 ;; This function is called by:
  5899 ;;		_ISR
  5900 ;; This function uses a non-reentrant model
  5901 ;;
  5902                           
  5903                           
  5904                           ;psect for function _Counter
  5905  0B27                     _Counter:
  5906  0B27                     i1l1533:	
  5907                           ;incstack = 0
  5908                           ; Regs used in _Counter: [wreg+status,2+status,0]
  5909                           
  5910                           
  5911                           ;adc.c: 69:     if (Lectura == '+') {
  5912  0B27  302B               	movlw	43
  5913  0B28  067A               	xorwf	_Lectura,w
  5914  0B29  1D03               	btfss	3,2
  5915  0B2A  2B2C               	goto	u137_21
  5916  0B2B  2B2D               	goto	u137_20
  5917  0B2C                     u137_21:
  5918  0B2C  2B36               	goto	i1l1539
  5919  0B2D                     u137_20:
  5920  0B2D                     i1l1535:
  5921                           
  5922                           ;adc.c: 70:         Contador = Contador + 1;
  5923  0B2D  0878               	movf	_Contador,w
  5924  0B2E  3E01               	addlw	1
  5925  0B2F  00F8               	movwf	_Contador
  5926  0B30  0879               	movf	_Contador+1,w
  5927  0B31  1803               	skipnc
  5928  0B32  3E01               	addlw	1
  5929  0B33  3E00               	addlw	0
  5930  0B34  00F9               	movwf	_Contador+1
  5931  0B35                     i1l1537:
  5932                           
  5933                           ;adc.c: 71:         Lectura = 0;
  5934  0B35  01FA               	clrf	_Lectura
  5935  0B36                     i1l1539:
  5936                           
  5937                           ;adc.c: 73:     if (Lectura == '-') {
  5938  0B36  302D               	movlw	45
  5939  0B37  067A               	xorwf	_Lectura,w
  5940  0B38  1D03               	btfss	3,2
  5941  0B39  2B3B               	goto	u138_21
  5942  0B3A  2B3C               	goto	u138_20
  5943  0B3B                     u138_21:
  5944  0B3B  2B45               	goto	i1l1545
  5945  0B3C                     u138_20:
  5946  0B3C                     i1l1541:
  5947                           
  5948                           ;adc.c: 74:         Contador = Contador - 1;
  5949  0B3C  0878               	movf	_Contador,w
  5950  0B3D  3EFF               	addlw	255
  5951  0B3E  00F8               	movwf	_Contador
  5952  0B3F  0879               	movf	_Contador+1,w
  5953  0B40  1803               	skipnc
  5954  0B41  3E01               	addlw	1
  5955  0B42  3EFF               	addlw	255
  5956  0B43  00F9               	movwf	_Contador+1
  5957  0B44                     i1l1543:
  5958                           
  5959                           ;adc.c: 75:         Lectura = 0;
  5960  0B44  01FA               	clrf	_Lectura
  5961  0B45                     i1l1545:
  5962                           
  5963                           ;adc.c: 77:     Lectura = 0;
  5964  0B45  01FA               	clrf	_Lectura
  5965  0B46                     i1l167:
  5966  0B46  0008               	return
  5967  0B47                     __end_of_Counter:
  5968  007E                     btemp	set	126	;btemp
  5969  007E                     wtemp0	set	126
  5970                           
  5971                           	psect	config
  5972                           
  5973                           ;Config register CONFIG1 @ 0x2007
  5974                           ;	Oscillator Selection bits
  5975                           ;	FOSC = INTRC_NOCLKOUT, INTOSCIO oscillator: I/O function on RA6/OSC2/CLKOUT pin, I/O f
      +                          unction on RA7/OSC1/CLKIN
  5976                           ;	Watchdog Timer Enable bit
  5977                           ;	WDTE = OFF, WDT disabled and can be enabled by SWDTEN bit of the WDTCON register
  5978                           ;	Power-up Timer Enable bit
  5979                           ;	PWRTE = OFF, PWRT disabled
  5980                           ;	RE3/MCLR pin function select bit
  5981                           ;	MCLRE = OFF, RE3/MCLR pin function is digital input, MCLR internally tied to VDD
  5982                           ;	Code Protection bit
  5983                           ;	CP = OFF, Program memory code protection is disabled
  5984                           ;	Data Code Protection bit
  5985                           ;	CPD = OFF, Data memory code protection is disabled
  5986                           ;	Brown Out Reset Selection bits
  5987                           ;	BOREN = OFF, BOR disabled
  5988                           ;	Internal External Switchover bit
  5989                           ;	IESO = OFF, Internal/External Switchover mode is disabled
  5990                           ;	Fail-Safe Clock Monitor Enabled bit
  5991                           ;	FCMEN = OFF, Fail-Safe Clock Monitor is disabled
  5992                           ;	Low Voltage Programming Enable bit
  5993                           ;	LVP = OFF, RB3 pin has digital I/O, HV on MCLR must be used for programming
  5994                           ;	In-Circuit Debugger Mode bit
  5995                           ;	DEBUG = 0x1, unprogrammed default
  5996  2007                     	org	8199
  5997  2007  20D4               	dw	8404
  5998                           
  5999                           ;Config register CONFIG2 @ 0x2008
  6000                           ;	Brown-out Reset Selection bit
  6001                           ;	BOR4V = BOR40V, Brown-out Reset set to 4.0V
  6002                           ;	Flash Program Memory Self Write Enable bits
  6003                           ;	WRT = OFF, Write protection off
  6004  2008                     	org	8200
  6005  2008  3FFF               	dw	16383

Data Sizes:
    Strings     19
    Constant    0
    Data        0
    BSS         78
    Persistent  0
    Stack       0

Auto Spaces:
    Space          Size  Autos    Used
    COMMON           14      8      11
    BANK0            80     62      80
    BANK1            80      4      61
    BANK3            96      0       0
    BANK2            96      0       0

Pointer List with Targets:

    strcpy@from	PTR const unsigned char  size(1) Largest target is 2
		 -> STR_4(CODE[2]), STR_3(CODE[2]), STR_2(CODE[2]), 

    strcpy@to	PTR unsigned char  size(1) Largest target is 5
		 -> test(BANK1[5]), PUNTO2A(BANK1[5]), PUNTO1A(BANK1[5]), 

    strcpy@cp	PTR unsigned char  size(1) Largest target is 5
		 -> test(BANK1[5]), PUNTO2A(BANK1[5]), PUNTO1A(BANK1[5]), 

    strcat@from	PTR const unsigned char  size(1) Largest target is 5
		 -> test(BANK1[5]), PUNTO2A(BANK1[5]), ADCchar2B(BANK1[5]), ADCchar2A(BANK1[5]), 
		 -> PUNTO1A(BANK1[5]), ADCchar1B(BANK1[5]), ADCchar1A(BANK1[5]), 

    strcat@to	PTR unsigned char  size(2) Largest target is 512
		 -> RAM(DATA[512]), PUNTO2A(BANK1[5]), ADCchar2C(BANK1[5]), ADCchar2B(BANK1[5]), 
		 -> PUNTO1A(BANK1[5]), ADCchar1C(BANK1[5]), ADCchar1B(BANK1[5]), 

    strcat@cp	PTR unsigned char  size(2) Largest target is 512
		 -> RAM(DATA[512]), PUNTO2A(BANK1[5]), ADCchar2C(BANK1[5]), ADCchar2B(BANK1[5]), 
		 -> PUNTO1A(BANK1[5]), ADCchar1C(BANK1[5]), ADCchar1B(BANK1[5]), 

    utoa@buf	PTR unsigned char  size(1) Largest target is 5
		 -> ADCchar2C(BANK1[5]), ADCchar2B(BANK1[5]), ADCchar2A(BANK1[5]), ADCchar1C(BANK1[5]), 
		 -> ADCchar1B(BANK1[5]), ADCchar1A(BANK1[5]), 

    sp__utoa	PTR unsigned char  size(1) Largest target is 5
		 -> ADCchar2C(BANK1[5]), ADCchar2B(BANK1[5]), ADCchar2A(BANK1[5]), ADCchar1C(BANK1[5]), 
		 -> ADCchar1B(BANK1[5]), ADCchar1A(BANK1[5]), 

    itoa@buf	PTR unsigned char  size(1) Largest target is 5
		 -> ADCchar2C(BANK1[5]), ADCchar2B(BANK1[5]), ADCchar2A(BANK1[5]), ADCchar1C(BANK1[5]), 
		 -> ADCchar1B(BANK1[5]), ADCchar1A(BANK1[5]), 

    itoa@cp	PTR unsigned char  size(1) Largest target is 5
		 -> ADCchar2C(BANK1[5]), ADCchar2B(BANK1[5]), ADCchar2A(BANK1[5]), ADCchar1C(BANK1[5]), 
		 -> ADCchar1B(BANK1[5]), ADCchar1A(BANK1[5]), 

    sp__strcpy	PTR unsigned char  size(1) Largest target is 5
		 -> test(BANK1[5]), PUNTO2A(BANK1[5]), PUNTO1A(BANK1[5]), 

    sp__strcat	PTR unsigned char  size(2) Largest target is 512
		 -> RAM(DATA[512]), PUNTO2A(BANK1[5]), ADCchar2C(BANK1[5]), ADCchar2B(BANK1[5]), 
		 -> PUNTO1A(BANK1[5]), ADCchar1C(BANK1[5]), ADCchar1B(BANK1[5]), 

    sp__itoa	PTR unsigned char  size(1) Largest target is 5
		 -> ADCchar2C(BANK1[5]), ADCchar2B(BANK1[5]), ADCchar2A(BANK1[5]), ADCchar1C(BANK1[5]), 
		 -> ADCchar1B(BANK1[5]), ADCchar1A(BANK1[5]), 

    lcd_msg@c	PTR unsigned char  size(2) Largest target is 512
		 -> STR_6(CODE[3]), STR_5(CODE[3]), RAM(DATA[512]), ADCchar2C(BANK1[5]), 
		 -> ADCchar1C(BANK1[5]), STR_1(CODE[14]), 


Critical Paths under _main in COMMON

    _inicializacion->_lcd_cmd
    _ADC->___awdiv
    _ADC->_lcd_msg
    _lcd_msg->_lcd_dwr
    _lcd_dwr->_lcd_lat
    _lcd_dwr->_lcd_ready
    _lcd_cmd->_lcd_lat
    _lcd_cmd->_lcd_ready
    _utoa->___lwdiv
    _utoa->___lwmod
    ___flmul->__Umul8_16
    ___flmul->___xxtofl
    ___fldiv->___xxtofl
    ___awmod->___awdiv

Critical Paths under _ISR in COMMON

    None.

Critical Paths under _main in BANK0

    _ADC->___fldiv
    _itoa->_utoa
    _utoa->___lwdiv
    ___fltol->___flmul
    ___flmul->___xxtofl
    ___fldiv->___flmul
    ___awmod->___awdiv

Critical Paths under _ISR in BANK0

    None.

Critical Paths under _main in BANK1

    _main->_ADC

Critical Paths under _ISR in BANK1

    None.

Critical Paths under _main in BANK3

    None.

Critical Paths under _ISR in BANK3

    None.

Critical Paths under _main in BANK2

    None.

Critical Paths under _ISR in BANK2

    None.

Call Graph Tables:

 ---------------------------------------------------------------------------------
 (Depth) Function   	        Calls       Base Space   Used Autos Params    Refs
 ---------------------------------------------------------------------------------
 (0) _main                                                 0     0      0   13326
                                _ADC
                          _SerialCom
                     _inicializacion
 ---------------------------------------------------------------------------------
 (1) _inicializacion                                       0     0      0      22
                            _lcd_cmd
 ---------------------------------------------------------------------------------
 (1) _SerialCom                                            0     0      0       0
 ---------------------------------------------------------------------------------
 (1) _ADC                                                  4     4      0   13304
                                              0 BANK1      4     4      0
                            ___awdiv
                            ___awmod
                            ___fldiv
                            ___flmul
                            ___fltol
                           ___xxtofl
                               _itoa
                            _lcd_cmd
                            _lcd_msg
                             _strcat
                             _strcpy
 ---------------------------------------------------------------------------------
 (2) _strcpy                                               4     3      1     402
                                              3 COMMON     4     3      1
 ---------------------------------------------------------------------------------
 (2) _strcat                                               6     3      3    1403
                                              3 COMMON     4     1      3
                                              0 BANK0      2     2      0
 ---------------------------------------------------------------------------------
 (2) _lcd_msg                                              2     0      2     523
                                              6 COMMON     2     0      2
                            _lcd_dwr
 ---------------------------------------------------------------------------------
 (3) _lcd_dwr                                              1     1      0      22
                                              5 COMMON     1     1      0
                            _lcd_lat
                          _lcd_ready
 ---------------------------------------------------------------------------------
 (2) _lcd_cmd                                              1     1      0      22
                                              5 COMMON     1     1      0
                            _lcd_lat
                          _lcd_ready
 ---------------------------------------------------------------------------------
 (3) _lcd_ready                                            2     2      0       0
                                              3 COMMON     2     2      0
 ---------------------------------------------------------------------------------
 (3) _lcd_lat                                              2     2      0       0
                                              3 COMMON     2     2      0
 ---------------------------------------------------------------------------------
 (2) _itoa                                                 7     3      4    3198
                                             12 BANK0      7     3      4
                               _utoa
 ---------------------------------------------------------------------------------
 (3) _utoa                                                 9     5      4    1669
                                              3 BANK0      9     5      4
                            ___lwdiv
                            ___lwmod
 ---------------------------------------------------------------------------------
 (4) ___lwmod                                              6     2      4     412
                                              3 COMMON     5     1      4
                                              0 BANK0      1     1      0
 ---------------------------------------------------------------------------------
 (4) ___lwdiv                                              8     4      4     601
                                              3 COMMON     5     1      4
                                              0 BANK0      3     3      0
 ---------------------------------------------------------------------------------
 (2) ___xxtofl                                            14    10      4     656
                                              3 COMMON     4     0      4
                                              0 BANK0     10    10      0
 ---------------------------------------------------------------------------------
 (2) ___fltol                                             11     7      4     381
                                             36 BANK0     11     7      4
                            ___flmul (ARG)
 ---------------------------------------------------------------------------------
 (2) ___flmul                                             26    18      8    2873
                                             10 BANK0     26    18      8
                          __Umul8_16
                           ___xxtofl (ARG)
 ---------------------------------------------------------------------------------
 (3) __Umul8_16                                            9     7      2     799
                                              3 COMMON     4     2      2
                                              0 BANK0      5     5      0
 ---------------------------------------------------------------------------------
 (2) ___fldiv                                             26    18      8    1425
                                             36 BANK0     26    18      8
                            ___flmul (ARG)
                           ___xxtofl (ARG)
 ---------------------------------------------------------------------------------
 (2) ___awmod                                              7     3      4    1513
                                              4 BANK0      7     3      4
                            ___awdiv (ARG)
 ---------------------------------------------------------------------------------
 (2) ___awdiv                                              9     5      4     908
                                              3 COMMON     5     1      4
                                              0 BANK0      4     4      0
 ---------------------------------------------------------------------------------
 Estimated maximum stack depth 4
 ---------------------------------------------------------------------------------
 (Depth) Function   	        Calls       Base Space   Used Autos Params    Refs
 ---------------------------------------------------------------------------------
 (5) _ISR                                                  3     3      0       0
                                              0 COMMON     3     3      0
                            _Counter
 ---------------------------------------------------------------------------------
 (6) _Counter                                              0     0      0       0
 ---------------------------------------------------------------------------------
 Estimated maximum stack depth 6
 ---------------------------------------------------------------------------------

 Call Graph Graphs:

 _main (ROOT)
   _ADC
     ___awdiv
     ___awmod
       ___awdiv (ARG)
     ___fldiv
       ___flmul (ARG)
         __Umul8_16
         ___xxtofl (ARG)
       ___xxtofl (ARG)
     ___flmul
       __Umul8_16
       ___xxtofl (ARG)
     ___fltol
       ___flmul (ARG)
         __Umul8_16
         ___xxtofl (ARG)
     ___xxtofl
     _itoa
       _utoa
         ___lwdiv
         ___lwmod
     _lcd_cmd
       _lcd_lat
       _lcd_ready
     _lcd_msg
       _lcd_dwr
         _lcd_lat
         _lcd_ready
     _strcat
     _strcpy
   _SerialCom
   _inicializacion
     _lcd_cmd
       _lcd_lat
       _lcd_ready

 _ISR (ROOT)
   _Counter

 Address spaces:
Name               Size   Autos  Total    Cost      Usage
BITCOMMON            E      0       0       0        0.0%
EEDATA             100      0       0       0        0.0%
NULL                 0      0       0       0        0.0%
CODE                 0      0       0       0        0.0%
COMMON               E      8       B       1       78.6%
BITSFR0              0      0       0       1        0.0%
SFR0                 0      0       0       1        0.0%
BITSFR1              0      0       0       2        0.0%
SFR1                 0      0       0       2        0.0%
STACK                0      0       0       2        0.0%
ABS                  0      0      98       3        0.0%
BITBANK0            50      0       0       4        0.0%
BITSFR3              0      0       0       4        0.0%
SFR3                 0      0       0       4        0.0%
BANK0               50     3E      50       5      100.0%
BITSFR2              0      0       0       5        0.0%
SFR2                 0      0       0       5        0.0%
BITBANK1            50      0       0       6        0.0%
BANK1               50      4      3D       7       76.2%
BITBANK3            60      0       0       8        0.0%
BANK3               60      0       0       9        0.0%
BITBANK2            60      0       0      10        0.0%
BANK2               60      0       0      11        0.0%
DATA                 0      0      98      12        0.0%


Microchip Technology PIC Macro Assembler V2.31 build 20201012212115 
Symbol Table                                                                                   Fri Feb 12 03:49:47 2021

           ___fldiv@aexp 005D             ___fldiv@bexp 005C                        pc 0002  
           ___fldiv@sign 0055                       l60 0AB7                       l65 0C05  
                     l57 0AC9                       l74 0BB3                       l68 0ADB  
                     l77 0B26                       _PI 00AA             ___awdiv@sign 0021  
                     fsr 0004      __Umul8_16@word_mpld 0022                      l162 0AF0  
                    l181 0516                      _ADC 0388                      l440 0D47  
                    l176 0388                      l178 03AB                      l427 0DB0  
                    l460 07FA                      l470 07FA                      l623 0E7F  
                    l720 0748                      l625 0FFF                      l721 0754  
                    l713 072C                      l546 0CEC                      l467 07E5  
                    l707 06E7                      l556 0CA6                      l645 0FE3  
                    l709 077E                      l734 0E0B                      l647 0FF3  
                    l639 0F71                      l663 0387                      l751 0B67  
                    l736 0E22                      l728 0B8D                      l745 0C6A  
                    l682 0BCA                      l675 037B                      l684 0BDC  
                    l669 02F3                      _RE0 0048                      _RE1 0049  
                    _RE2 004A                      _ISR 0AF1                      _plc 00A8  
                    fsr0 0004                      indf 0000             ___awmod@sign 002A  
           ___flmul@aexp 003C             ___flmul@bexp 003D             ___flmul@sign 0037  
           ___flmul@temp 0042             ___flmul@prod 003E                     ?_ADC 0070  
                   ?_ISR 0070             ___fltol@exp1 004E                     l2001 0F76  
                   l2003 0F7B                     l2011 0FAC                     l2021 0FE2  
                   l2013 0FB9                     l2005 0F89                     l2101 01B1  
                   l2023 0FE9                     l2015 0FC7                     l2007 0F8D  
                   l2111 0251                     l2103 01CA                     l2025 0FED  
                   l2017 0FD6                     l2009 0FA6                     l2121 02BF  
                   l2113 0277                     l2105 01E7                     l2041 0039  
                   l2033 0027                     l2027 0FEF                     l2019 0FDA  
                   l2131 02D7                     l2123 02C3                     l2115 029F  
                   l2107 0214                     l2051 0055                     l2043 003E  
                   l2035 002E                     l2141 02F8                     l2133 02D8  
                   l2125 02C4                     l2117 02A8                     l2109 0224  
                   l2061 006A                     l2053 005A                     l2045 0043  
                   l2037 0034                     l2143 02FD                     l2151 032E  
                   l2135 02DC                     l2127 02CD                     l2119 02B6  
                   l2071 0086                     l2063 006F                     l2055 0060  
                   l2047 004B                     l2039 0038                     l2161 0361  
                   l2153 033B                     l2145 030B                     l2137 02F0  
                   l2129 02D3                     l2081 00B1                     l2073 008B  
                   l2065 0077                     l2057 0064                     l2049 004D  
                   l1601 0BE6                     l2217 0B08                     l2163 036F  
                   l2155 0346                     l2147 030F                     l2091 014E  
                   l2083 00CE                     l2067 0079                     l2059 0065  
                   l2411 0DD5                     l2403 0DB4                     l1611 0BFA  
                   l1603 0BE7                     l1531 0AE6                     l2165 0373  
                   l2157 0355                     l2149 0328                     l2093 0157  
                   l2085 00EA                     l2077 0094                     l2069 0081  
                   l2501 06CF                     l2421 0E07                     l2413 0DD9  
                   l2405 0DB8                     l1613 0C02                     l1605 0BE8  
                   l2167 0374                     l2159 035F                     l2095 0167  
                   l2087 0116                     l2079 00A4                     l2511 06FD  
                   l2503 06DF                     l2423 0E0F                     l2415 0DDB  
                   l2407 0DCB                     l1615 0AA9                     l1607 0BF0  
                   l1801 0D8E                     l2169 037F                     l2097 0184  
                   l2089 0132                     l2521 0733                     l2513 070A  
                   l2505 06EF                     l2361 0CB4                     l2425 0E16  
                   l2417 0DEE                     l2409 0DCF                     l2441 0B7A  
                   l2433 0B6B                     l1617 0AAC                     l1609 0BF9  
                   l2601 05B5                     l1529 0ADC                     l1811 0DA7  
                   l1803 0D94                     l2099 0194                     l2531 076C  
                   l2523 073E                     l2515 0711                     l2371 0CDA  
                   l2363 0CBB                     l2355 0CA7                     l2427 0E18  
                   l2419 0E01                     l2443 0B7F                     l2435 0B6B  
                   l1619 0AB4                     l1731 0AC4                     l1723 0AB9  
                   l2451 0C44                     l2611 062C                     l2603 05C8  
                   l1813 0DAC                     l1805 0D95                     l2461 0CF0  
                   l1901 0E3A                     l2533 0771                     l2525 0742  
                   l2517 0715                     l2509 06F8                     l2373 0CDB  
                   l2365 0CBF                     l2357 0CAB                     l2381 0C6B  
                   l2429 0E1E                     l2437 0B6F                     l1725 0ABE  
                   l1733 0B8E                     l2453 0C4F                     l2621 0673  
                   l2613 063A                     l2605 05D6                     l2541 0388  
                   l1807 0D9C                     l2471 0D04                     l2463 0CF4  
                   l1911 0E52                     l1903 0E3F                     l2535 0775  
                   l2527 074C                     l2519 0723                     l2375 0CE2  
                   l2367 0CC3                     l2359 0CB1                     l2391 0C85  
                   l2383 0C71                     l2439 0B76                     l1727 0AC2  
                   l1671 0AD0                     l1735 0B8F                     l2455 0C55  
                   l2447 0C37                     l2631 06A6                     l2623 067F  
                   l2615 0649                     l2607 05FA                     l2551 0394  
                   l2543 038E                     l1809 0DA2                     l2481 0D1C  
                   l2473 0D0A                     l2465 0CF9                     l1921 0E67  
                   l1913 0E57                     l1905 0E47                     l1681 0BB9  
                   l2537 0776                     l2529 0756                     l2369 0CD4  
                   l2377 0CE8                     l2393 0C8F                     l2385 0C76  
                   l1729 0AC3                     l1673 0AD4                     l1737 0B9D  
                   l2457 0C59                     l2449 0C3E                     l2633 06AF  
                   l2625 068E                     l2617 0655                     l2609 0608  
                   l2561 03AF                     l2553 039D                     l2545 038F  
                   l2641 0C0D                     l2491 0D3E                     l2483 0D26  
                   l2475 0D0D                     l2467 0CFB                     l2459 0CED  
                   l1931 0E87                     l1923 0E6C                     l1915 0E5D  
                   l1907 0E48                     l1683 0BC0                     l2395 0C95  
                   l2387 0C7D                     l1595 0BDD                     l1675 0AD5  
                   l1739 0BA3                     l1771 0B55                     l2635 06B8  
                   l2627 0694                     l2619 0664                     l2571 046B  
                   l2563 03B7                     l2555 03A5                     l2547 0392  
                   l2651 0C15                     l2643 0C0E                     l1781 0D56  
                   l1773 0D48                     l2493 0D43                     l2485 0D2C  
                   l2477 0D14                     l2469 0CFF                     l1941 0EA5  
                   l1933 0E93                     l1925 0E74                     l1917 0E61  
                   l1909 0E4A                     l1685 0BC4                     l1861 0795  
                   l2397 0C9C                     l2389 0C81                     l1597 0BE1  
                   l1677 0AD6                     l1669 0ACB                     l2629 069D  
                   l2581 04DE                     l2573 048F                     l2565 0412  
                   l2557 03A9                     l2549 0393                     l2661 0C1D  
                   l2653 0C19                     l2645 0C0F                     l2637 0C06  
                   l1791 0D6B                     l1783 0D5A                     l1775 0D4B  
                   l2487 0D33                     l2479 0D18                     l1951 0ED0  
                   l1935 0E97                     l1927 0E75                     l1919 0E62  
                   l1687 0BD3                     l1679 0BB7                     l1871 07B9  
                   l1863 07AA                     l1855 077F                     l2399 0CA2  
                   l1599 0BE5                     l1767 0B48                     l2591 0514  
                   l2583 04EA                     l2575 049D                     l2567 044A  
                   l2559 03AA                     l2671 0C24                     l2663 0C20  
                   l2655 0C1A                     l2647 0C10                     l2639 0C0C  
                   l1793 0D6E                     l1785 0D5F                     l1777 0D4F  
                   l2489 0D39                     l1961 0EF5                     l1953 0ED8  
                   l1945 0EAE                     l1929 0E77                     l1689 0BD8  
                   l1865 07AB                     l1857 078C                     l2497 06C6  
                   l1769 0B4D                     l2593 0515                     l2585 04F9  
                   l2577 04C1                     l2569 045D                     l2673 0C29  
                   l2665 0C21                     l2657 0C1B                     l2649 0C14  
                   l1795 0D75                     l1787 0D63                     l1779 0D54  
                   l1971 0F20                     l1963 0EF6                     l1955 0EDA  
                   l1947 0EC0                     l1939 0EA0                     l1891 0E23  
                   l1867 07B3                     l2499 06CB                     l2595 051A  
                   l2587 0508                     l2579 04CF                     l2675 0C2E  
                   l2667 0C22                     l2659 0C1C                     l1797 0D79  
                   l1789 0D65                     l1981 0F3D                     l1957 0EDF  
                   l1965 0EFF                     l1973 0F24                     l1949 0EC8  
                   l1893 0E2A                     l1885 07DA                     l1877 07C1  
                   l1869 07B5                     l2597 0522                     l2589 050E  
                   l2669 0C23                     l1799 0D7D                     l1991 0F55  
                   l1983 0F41                     l1975 0F2A                     l1967 0F11  
                   l1959 0EF1                     l1895 0E30                     l1887 07EA  
                   l1879 07D3                     l2599 057D                     l1993 0F56  
                   l1985 0F42                     l1977 0F32                     l1969 0F12  
                   l1897 0E34                     l1889 07EF                     l1995 0F5A  
                   l1987 0F4B                     l1979 0F34                     l1899 0E35  
                   l1997 0F6E                     l1989 0F51                     STR_1 0810  
                   STR_2 0821                     STR_3 0821                     STR_4 0821  
                   STR_5 081E                     STR_6 081E                     u2000 0E87  
                   u2001 0E86                     u2010 0EA5                     u2011 0EA4  
                   u2020 0EDF                     u2021 0EDE                     u2110 0F41  
                   u2111 0F40                     u3000 0D26                     u2200 0FB9  
                   u1400 0BF9                     u3001 0D25                     u2201 0FB8  
                   u2105 0F36                     u1401 0BF8                     u2210 0FD6  
                   u2130 0F55                     u2050 0EF5                     u2211 0FD5  
                   u2131 0F54                     u2051 0EF4                     u2035 0EE1  
                   u3020 0D39                     u2220 0FED                     u2140 0F5A  
                   u2300 008B                     u3100 0732                     u3021 0D38  
                   u3005 0D22                     u2221 0FEC                     u2205 0FB5  
                   u2141 0F59                     u2125 0F44                     u2045 0EEA  
                   u2301 008A                     u3101 0731                     u3030 0D3E  
                   u2150 0F6E                     u2070 0F11                     u2230 0038  
                   u3031 0D3D                     u3015 0D2D                     u2215 0FD2  
                   u2151 0F6D                     u2071 0F10                     u2311 00DC  
                   u2231 0037                     u2160 0F75                     u2080 0F2A  
                   u2312 00E3                     u2240 003E                     u3120 0742  
                   u3040 06CB                     u1600 0BB3                     u2161 0F74  
                   u2081 0F29                     u2065 0EF8                     u2401 0206  
                   u2321 00F8                     u2313 00EA                     u2241 003D  
                   u3121 0741                     u3041 06CA                     u1601 0BB2  
                   u2170 0F7B                     u2090 0F32                     u2402 020D  
                   u2322 00FF                     u2250 0043                     u3130 0748  
                   u3050 06CF                     u2171 0F7A                     u2091 0F31  
                   u2075 0F0D                     u2411 0233                     u2403 0214  
                   u2331 0124                     u2323 0106                     u2251 0042  
                   u3131 0747                     u3115 0737                     u3051 06CE  
                   u2180 0F8D                     u1540 0BC4                     u2500 02D7  
                   u2420 025D                     u2412 023A                     u2332 012B  
                   u2260 0064                     u3140 074C                     u3060 06EF  
                   u2181 0F8C                     u1541 0BC3                     u2501 02D6  
                   u2413 0241                     u2341 0140                     u2333 0132  
                   u2261 0063                     u3141 074B                     u3061 06EE  
                   u1710 0D8E                     u2190 0F9C                     u2510 02DC  
                   u2342 0147                     u2270 006A                     u3150 0761  
                   u1711 0D8D                     u2511 02DB                     u2431 0269  
                   u2343 014E                     u2271 0069                     u3207 03A1  
                   u1560 0BD8                     u2520 02F0                     u2440 0285  
                   u2432 0270                     u2280 006F                     u3160 0771  
                   u3080 0710                     u1640 0B67                     u1705 0D7E  
                   u1561 0BD7                     u2521 02EF                     u2433 0277  
                   u2425 0258                     u2361 0176                     u2281 006E  
                   u3161 0770                     u3081 070F                     u1641 0B66  
                   u3217 050C                     u1730 0DA2                     u1650 0D4F  
                   u2530 02F7                     u2362 017D                     u2290 0086  
                   u3170 0775                     u1731 0DA1                     u1715 0D8A  
                   u1651 0D4E                     u2195 0F97                     u1555 0BCB  
                   u2531 02F6                     u2451 0291                     u2371 01A3  
                   u2363 0184                     u2355 0150                     u2291 0085  
                   u3171 0774                     u3155 075C                     u3075 0702  
                   u3227 0BEC                     u1740 0DA7                     u1660 0D5A  
                   u2540 02FD                     u2452 0298                     u2372 01AA  
                   u1900 07D9                     u3180 03AF                     u1741 0DA6  
                   u1725 0D96                     u1661 0D59                     u2541 02FC  
                   u2453 029F                     u2445 0280                     u2373 01B1  
                   u1901 07D8                     u3237 0BFE                     u3181 03AE  
                   u1670 0D6B                     u2550 030F                     u3190 051A  
                   u1671 0D6A                     u2551 030E                     u2391 01D9  
                   u3095 0724                     u3247 0AB0                     u3191 0519  
                   u2560 031E                     u2480 02C3                     u2392 01E0  
                   u1920 07EA                     u1840 078C                     u2800 0CD4  
                   u2481 02C2                     u2465 02A1                     u2393 01E7  
                   u2385 01B3                     u1921 07E9                     u1841 078B  
                   u2801 0CD3                     u1690 0D7D                     u2570 033B  
                   u1930 07EF                     u1850 07A3                     u1691 0D7C  
                   u2571 033A                     u2475 02B8                     u1931 07EE  
                   u1915 07DC                     u1940 0E34                     u2580 0355  
                   u1860 07B9                     u2820 0CE8                     u2900 0E07  
                   u1685 0D6F                     u1941 0E33                     u2581 0354  
                   u2565 0319                     u1861 07B8                     u2821 0CE7  
                   u2805 0CD0                     u2901 0E06                     u1950 0E3A  
                   u2590 0373                     u1870 07C0                     u2830 0C71  
                   u2910 0E1E                     u1951 0E39                     u2591 0372  
                   u2575 0337                     u2495 02C6                     u1871 07BF  
                   u1855 079E                     u2815 0CDC                     u2831 0C70  
                   u2911 0E1D                     u1960 0E3F                     u2760 0CB1  
                   u2920 0B6F                     u1961 0E3E                     u2585 0351  
                   u2761 0CB0                     u2921 0B6E                     u1970 0E61  
                   u1890 07D2                     u2850 0C85                     u2930 0C4E  
                   u1971 0E60                     u1891 07D1                     u2851 0C84  
                   u2931 0C4D                     u1980 0E67                     u2780 0CC3  
                   u2860 0C8F                     u2940 0C6A                     u1981 0E66  
                   u1885 07C2                     u2781 0CC2                     u2861 0C8E  
                   u2845 0C77                     u2941 0C69                     u2950 0CF4  
                   u1990 0E6C                     u2951 0CF3                     u1991 0E6B  
                   u2775 0CB5                     u2960 0CFF                     u2880 0CA2  
                   u2961 0CFE                     u2881 0CA1                     u2865 0C8B  
                   u2970 0D0A                     u2890 0DD5                     u2971 0D09  
                   u2795 0CC4                     u2875 0C96                     u2891 0DD4  
                   u2990 0D1C                     u2991 0D1B                     u2985 0D0E  
                   _main 0C06                     _itoa 0B68                     _test 00C0  
                   btemp 007E                     _utoa 0DB1                     start 000C  
        ___fldiv@new_exp 0056          __end_of_Counter 0B47                    ??_ADC 00D9  
                  ??_ISR 0070                    _ADC1A 006A                    _ADC1B 0068  
                  _ADC1C 0066                    _ADC2A 0062                    _ADC2B 0060  
                  _ADC2C 005E            ___fltol@sign1 004D                    _ADCLA 00A4  
                  _ADCLB 00A0                    ?_main 0070          __end_of___fldiv 1000  
                  ?_itoa 002C          __end_of___awdiv 0DB1          __end_of___awmod 0D48  
        __end_of___flmul 0388          __end_of___fltol 07FB                    _ANSEL 0188  
                  ?_utoa 0023          ___awdiv@divisor 0073          __end_of___lwdiv 0CED  
                  i1l173 0B01                    i1l167 0B46          __end_of___lwmod 0CA7  
        ___awdiv@counter 0020                    _RCREG 001A                    _RCSTA 0018  
                  _SPBRG 0099                    _PORTA 0005                    _PORTB 0006  
                  _PORTC 0007                    _PORTD 0008                    _PORTE 0009  
                  _TRISA 0085                    _TRISB 0086                    _TRISC 0087  
                  _TRISD 0088                    _TRISE 0089                    _TXSTA 0098  
        __end_of_lcd_cmd 0ACA          __end_of_lcd_lat 0AB8          __end_of_lcd_dwr 0ADC  
        __end_of_lcd_msg 0BB4                    pclath 000A                    utoa@c 002A  
                  utoa@v 0028                    status 0003                    wtemp0 007E  
        __initialization 000F             __end_of_main 0C37             __end_of_itoa 0B8E  
           __end_of_utoa 0E23                   ??_main 0078                   ??_itoa 0030  
                 ??_utoa 0027                   _DCADC1 006C                   _DCADC2 0064  
                 _ADRESH 001E         ___awdiv@dividend 0075                   _ANSELH 0189  
                 i1l1541 0B3C                   i1l1533 0B27                   i1l1543 0B44  
                 i1l1535 0B2D                   i1l1545 0B45                   i1l1537 0B35  
                 i1l1539 0B36                   i1l1591 0AFB                   i1l1593 0AFC  
                 i1l1587 0AF1                   i1l1589 0AF7                   u137_20 0B2D  
                 u137_21 0B2C                   u138_20 0B3C                   u138_21 0B3B  
                 u139_20 0AF7                   u139_21 0AF6  __size_of_inicializacion 001F  
       __end_of___xxtofl 077F                ??_Counter 0070                ??___fldiv 004C  
              ??___awdiv 0077                ??___awmod 0028                ??___flmul 0032  
              ??___fltol 0048                ??___lwdiv 0077                ??___lwmod 0077  
       ___awdiv@quotient 0022       __size_of_SerialCom 0015          ___awmod@divisor 0024  
        ___awmod@counter 0029                ??_lcd_cmd 0075                ??_lcd_lat 0073  
                 _strcat 0C37                ??_lcd_dwr 0075                ??_lcd_msg 0078  
                 _strcpy 0B47       __size_of__Umul8_16 0029                   saved_w 007E  
           ___xxtofl@arg 0026             ___xxtofl@exp 0025             ___xxtofl@val 0073  
__end_of__initialization 0023               ___fltol@f1 0044           __pcstackCOMMON 0070  
     __size_of_lcd_ready 0029               __pbssBANK0 005E               __pbssBANK1 00A0  
      __end_of_SerialCom 0AF1        __end_of__Umul8_16 0BDD               __pmaintext 0C06  
             __pintentry 0004                  ?_strcat 0073                  ?_strcpy 0073  
              ?___xxtofl 0073                  _PUNTO1A 00C5                  _PUNTO2A 00AC  
             __stringtab 0800           _inicializacion 0B08                  _Counter 0B27  
                _Lectura 007A                _ADCchar1A 00D4                _ADCchar1B 00CF  
              _ADCchar1C 00CA                _ADCchar2A 00BB                _ADCchar2B 00B6  
              _ADCchar2C 00B1        __end_of_lcd_ready 0C06                  ___fldiv 0E23  
                ___awdiv 0D48                  ___awmod 0CED                  ___flmul 0027  
                ___fltol 077F                  ___lwdiv 0CA7                  ___lwmod 0C6B  
                __ptext1 0B08                  __ptext2 0ADC                  __ptext3 0388  
                __ptext4 0B47                  __ptext5 0C37                  __ptext6 0B8E  
                __ptext7 0ACA                  __ptext8 0AB8                  __ptext9 0BDD  
                _lcd_cmd 0AB8                  _lcd_lat 0AA9                  _lcd_dwr 0ACA  
                _lcd_msg 0B8E             __size_of_ADC 033B          __size_of_strcat 0034  
        __size_of_strcpy 0021             __size_of_ISR 0017               ??___xxtofl 0020  
       ___awmod@dividend 0026                  clrloop0 0AA2   __end_of_inicializacion 0B27  
   end_of_initialization 0023                  itoa@buf 0032                  itoa@val 002C  
                utoa@buf 002B                  utoa@val 0023            ___xxtofl@sign 0024  
            ___fldiv@grs 0058              ___fldiv@rem 0051          ?_inicializacion 0070  
            ___flmul@grs 0038           __end_of_strcat 0C6B           __end_of_strcpy 0B68  
    start_initialization 000F              __end_of_ADC 06C3              __end_of_ISR 0B08  
              _SerialCom 0ADC                __Umul8_16 0BB4                 ??_strcat 0076  
               ??_strcpy 0074                ___fldiv@a 0044                ___fldiv@b 0048  
              ___flmul@a 002E                ___flmul@b 002A              __pbssCOMMON 0078  
              ___latbits 0002            __pcstackBANK0 0020            __pcstackBANK1 00D9  
      __size_of___xxtofl 00BC                 ?_Counter 0070               ?_SerialCom 0070  
       ___lwdiv@dividend 0075                 ?___fldiv 0044                 ?___awdiv 0073  
               ?___awmod 0024                 ?___flmul 002A                 ?___fltol 0044  
             ?__Umul8_16 0073                 ?___lwdiv 0073                 ?___lwmod 0073  
              _lcd_ready 0BDD                __pstrings 0800                 ?_lcd_cmd 0070  
               ?_lcd_lat 0070                 ?_lcd_dwr 0070                 ?_lcd_msg 0076  
       ___lwdiv@quotient 0021               _ADC1ADRESH 006F               _ADC2ADRESH 006E  
      interrupt_function 0004                clear_ram0 0AA1                 _PIE1bits 008C  
               _PIR1bits 000C               ?_lcd_ready 0070               _ADCON0bits 001F  
            __stringbase 080F               _ADCON1bits 009F         ??_inicializacion 0076  
               _Contador 0078         __size_of_Counter 0020              ??_SerialCom 0073  
            ??__Umul8_16 0075         __size_of___fldiv 01DD         __size_of___awdiv 0069  
       __size_of___awmod 005B         __size_of___flmul 0361         __size_of___fltol 007C  
       __size_of___lwdiv 0046         __size_of___lwmod 003C       __end_of__stringtab 0810  
       __size_of_lcd_cmd 0012         __size_of_lcd_lat 000F         __size_of_lcd_dwr 0012  
       __size_of_lcd_msg 0026                 ___xxtofl 06C3               strcat@from 0075  
        ___lwdiv@divisor 0073          ___lwdiv@counter 0020                 __ptext10 0AA9  
               __ptext11 0B68                 __ptext20 0CED                 __ptext12 0DB1  
               __ptext21 0D48                 __ptext13 0C6B                 __ptext22 0AF1  
               __ptext14 0CA7                 __ptext23 0B27                 __ptext15 06C3  
               __ptext16 077F                 __ptext17 0027                 __ptext18 0BB4  
               __ptext19 0E23               strcpy@from 0073            __size_of_main 0031  
          __size_of_itoa 0026            __size_of_utoa 0072                 lcd_cmd@x 0075  
               lcd_dwr@x 0075                 lcd_msg@c 0076              ??_lcd_ready 0073  
             _INTCONbits 000B                 itoa@base 002E                 intlevel1 0000  
       ___lwmod@dividend 0075                stringcode 080A               _OSCCONbits 008F  
               utoa@base 0025   __Umul8_16@multiplicand 0073                 strcat@cp 0020  
               strcat@to 0073          ___lwmod@divisor 0073                 strcpy@cp 0075  
               strcpy@to 0076          ___lwmod@counter 0020                 stringdir 080A  
               stringtab 0800     __Umul8_16@multiplier 0024        __Umul8_16@product 0020  
